ARM GAS  C:\Users\doita\AppData\Local\Temp\ccfZJKUc.s 			page 1


   1              		.syntax unified
   2              		.cpu cortex-m0plus
   3              		.fpu softvfp
   4              		.eabi_attribute 20, 1
   5              		.eabi_attribute 21, 1
   6              		.eabi_attribute 23, 3
   7              		.eabi_attribute 24, 1
   8              		.eabi_attribute 25, 1
   9              		.eabi_attribute 26, 1
  10              		.eabi_attribute 30, 1
  11              		.eabi_attribute 34, 0
  12              		.eabi_attribute 18, 4
  13              		.thumb
  14              		.syntax unified
  15              		.file	"Display.c"
  16              		.text
  17              	.Ltext0:
  18              		.cfi_sections	.debug_frame
  19              		.section	.text.HeartbeatLed_Blink,"ax",%progbits
  20              		.align	2
  21              		.global	HeartbeatLed_Blink
  22              		.code	16
  23              		.thumb_func
  24              		.type	HeartbeatLed_Blink, %function
  25              	HeartbeatLed_Blink:
  26              	.LFB33:
  27              		.file 1 "Display.c"
   1:Display.c     **** /* ========================================
   2:Display.c     ****  *
   3:Display.c     ****  * Display functions
   4:Display.c     ****  *
   5:Display.c     ****  * ========================================
   6:Display.c     **** */
   7:Display.c     **** 
   8:Display.c     **** #include <project.h>
   9:Display.c     **** #include "Display.h"
  10:Display.c     **** 
  11:Display.c     **** const uint8_t digit0Addr = 0x06;
  12:Display.c     **** const uint8_t digit1Addr = 0x08;
  13:Display.c     **** const uint8_t digit2Addr = 0x0a;
  14:Display.c     **** 
  15:Display.c     **** bool curState = 0;
  16:Display.c     **** 
  17:Display.c     **** void HeartbeatLed_Blink(int period) {
  28              		.loc 1 17 0
  29              		.cfi_startproc
  30              		@ args = 0, pretend = 0, frame = 0
  31              		@ frame_needed = 0, uses_anonymous_args = 0
  32              	.LVL0:
  33 0000 10B5     		push	{r4, lr}
  34              		.cfi_def_cfa_offset 8
  35              		.cfi_offset 4, -8
  36              		.cfi_offset 14, -4
  37 0002 0400     		movs	r4, r0
  18:Display.c     ****     
  19:Display.c     ****     HeartbeatLed_Write(1);
  38              		.loc 1 19 0
ARM GAS  C:\Users\doita\AppData\Local\Temp\ccfZJKUc.s 			page 2


  39 0004 0120     		movs	r0, #1
  40              	.LVL1:
  41 0006 FFF7FEFF 		bl	HeartbeatLed_Write
  42              	.LVL2:
  20:Display.c     ****     CyDelay(period);
  43              		.loc 1 20 0
  44 000a 2000     		movs	r0, r4
  45 000c FFF7FEFF 		bl	CyDelay
  46              	.LVL3:
  21:Display.c     ****     HeartbeatLed_Write(0);
  47              		.loc 1 21 0
  48 0010 0020     		movs	r0, #0
  49 0012 FFF7FEFF 		bl	HeartbeatLed_Write
  50              	.LVL4:
  22:Display.c     ****     CyDelay(period);
  51              		.loc 1 22 0
  52 0016 2000     		movs	r0, r4
  53 0018 FFF7FEFF 		bl	CyDelay
  54              	.LVL5:
  23:Display.c     ****     
  24:Display.c     **** }
  55              		.loc 1 24 0
  56              		@ sp needed
  57              	.LVL6:
  58 001c 10BD     		pop	{r4, pc}
  59              		.cfi_endproc
  60              	.LFE33:
  61              		.size	HeartbeatLed_Blink, .-HeartbeatLed_Blink
  62 001e C046     		.section	.text.HeartbeatLed_Toggle,"ax",%progbits
  63              		.align	2
  64              		.global	HeartbeatLed_Toggle
  65              		.code	16
  66              		.thumb_func
  67              		.type	HeartbeatLed_Toggle, %function
  68              	HeartbeatLed_Toggle:
  69              	.LFB34:
  25:Display.c     **** 
  26:Display.c     **** void HeartbeatLed_Toggle(void) {
  70              		.loc 1 26 0
  71              		.cfi_startproc
  72              		@ args = 0, pretend = 0, frame = 0
  73              		@ frame_needed = 0, uses_anonymous_args = 0
  74 0000 10B5     		push	{r4, lr}
  75              		.cfi_def_cfa_offset 8
  76              		.cfi_offset 4, -8
  77              		.cfi_offset 14, -4
  27:Display.c     ****     
  28:Display.c     ****     curState = !curState;
  78              		.loc 1 28 0
  79 0002 044A     		ldr	r2, .L3
  80 0004 1078     		ldrb	r0, [r2]
  81 0006 0123     		movs	r3, #1
  82 0008 5840     		eors	r0, r3
  83 000a C0B2     		uxtb	r0, r0
  84 000c 1070     		strb	r0, [r2]
  29:Display.c     ****     HeartbeatLed_Write(curState);
  85              		.loc 1 29 0
ARM GAS  C:\Users\doita\AppData\Local\Temp\ccfZJKUc.s 			page 3


  86 000e FFF7FEFF 		bl	HeartbeatLed_Write
  87              	.LVL7:
  30:Display.c     ****     
  31:Display.c     **** }
  88              		.loc 1 31 0
  89              		@ sp needed
  90 0012 10BD     		pop	{r4, pc}
  91              	.L4:
  92              		.align	2
  93              	.L3:
  94 0014 00000000 		.word	.LANCHOR0
  95              		.cfi_endproc
  96              	.LFE34:
  97              		.size	HeartbeatLed_Toggle, .-HeartbeatLed_Toggle
  98              		.section	.text.cycleClock,"ax",%progbits
  99              		.align	2
 100              		.global	cycleClock
 101              		.code	16
 102              		.thumb_func
 103              		.type	cycleClock, %function
 104              	cycleClock:
 105              	.LFB35:
  32:Display.c     **** 
  33:Display.c     **** void cycleClock(void)
  34:Display.c     **** {
 106              		.loc 1 34 0
 107              		.cfi_startproc
 108              		@ args = 0, pretend = 0, frame = 0
 109              		@ frame_needed = 0, uses_anonymous_args = 0
 110 0000 10B5     		push	{r4, lr}
 111              		.cfi_def_cfa_offset 8
 112              		.cfi_offset 4, -8
 113              		.cfi_offset 14, -4
  35:Display.c     ****   
  36:Display.c     ****   SegDispClock_Write(LOW);  
 114              		.loc 1 36 0
 115 0002 0020     		movs	r0, #0
 116 0004 FFF7FEFF 		bl	SegDispClock_Write
 117              	.LVL8:
  37:Display.c     ****   SegDispClock_Write(HIGH); 
 118              		.loc 1 37 0
 119 0008 0120     		movs	r0, #1
 120 000a FFF7FEFF 		bl	SegDispClock_Write
 121              	.LVL9:
  38:Display.c     ****   
  39:Display.c     **** }
 122              		.loc 1 39 0
 123              		@ sp needed
 124 000e 10BD     		pop	{r4, pc}
 125              		.cfi_endproc
 126              	.LFE35:
 127              		.size	cycleClock, .-cycleClock
 128              		.section	.text.strobe,"ax",%progbits
 129              		.align	2
 130              		.global	strobe
 131              		.code	16
 132              		.thumb_func
ARM GAS  C:\Users\doita\AppData\Local\Temp\ccfZJKUc.s 			page 4


 133              		.type	strobe, %function
 134              	strobe:
 135              	.LFB36:
  40:Display.c     **** 
  41:Display.c     **** void strobe(bool state)
  42:Display.c     **** {
 136              		.loc 1 42 0
 137              		.cfi_startproc
 138              		@ args = 0, pretend = 0, frame = 0
 139              		@ frame_needed = 0, uses_anonymous_args = 0
 140              	.LVL10:
 141 0000 10B5     		push	{r4, lr}
 142              		.cfi_def_cfa_offset 8
 143              		.cfi_offset 4, -8
 144              		.cfi_offset 14, -4
  43:Display.c     ****   
  44:Display.c     ****   SegDispStb1_Write(state);
 145              		.loc 1 44 0
 146 0002 FFF7FEFF 		bl	SegDispStb1_Write
 147              	.LVL11:
  45:Display.c     ****   //SegDispStb2_Write(state);
  46:Display.c     **** 
  47:Display.c     **** }
 148              		.loc 1 47 0
 149              		@ sp needed
 150 0006 10BD     		pop	{r4, pc}
 151              		.cfi_endproc
 152              	.LFE36:
 153              		.size	strobe, .-strobe
 154              		.section	.text.writeByte,"ax",%progbits
 155              		.align	2
 156              		.global	writeByte
 157              		.code	16
 158              		.thumb_func
 159              		.type	writeByte, %function
 160              	writeByte:
 161              	.LFB37:
  48:Display.c     **** 
  49:Display.c     **** void writeByte(uint8_t addr)
  50:Display.c     **** {
 162              		.loc 1 50 0
 163              		.cfi_startproc
 164              		@ args = 0, pretend = 0, frame = 0
 165              		@ frame_needed = 0, uses_anonymous_args = 0
 166              	.LVL12:
 167 0000 10B5     		push	{r4, lr}
 168              		.cfi_def_cfa_offset 8
 169              		.cfi_offset 4, -8
 170              		.cfi_offset 14, -4
 171 0002 0400     		movs	r4, r0
  51:Display.c     ****   
  52:Display.c     ****       SegDispData_Write(addr & 1);
 172              		.loc 1 52 0
 173 0004 0120     		movs	r0, #1
 174              	.LVL13:
 175 0006 2040     		ands	r0, r4
 176 0008 FFF7FEFF 		bl	SegDispData_Write
ARM GAS  C:\Users\doita\AppData\Local\Temp\ccfZJKUc.s 			page 5


 177              	.LVL14:
  53:Display.c     ****       cycleClock();
 178              		.loc 1 53 0
 179 000c FFF7FEFF 		bl	cycleClock
 180              	.LVL15:
  54:Display.c     ****       SegDispData_Write(addr & 2);
 181              		.loc 1 54 0
 182 0010 0220     		movs	r0, #2
 183 0012 2040     		ands	r0, r4
 184 0014 FFF7FEFF 		bl	SegDispData_Write
 185              	.LVL16:
  55:Display.c     ****       cycleClock();
 186              		.loc 1 55 0
 187 0018 FFF7FEFF 		bl	cycleClock
 188              	.LVL17:
  56:Display.c     ****       SegDispData_Write(addr & 4);
 189              		.loc 1 56 0
 190 001c 0420     		movs	r0, #4
 191 001e 2040     		ands	r0, r4
 192 0020 FFF7FEFF 		bl	SegDispData_Write
 193              	.LVL18:
  57:Display.c     ****       cycleClock(); 
 194              		.loc 1 57 0
 195 0024 FFF7FEFF 		bl	cycleClock
 196              	.LVL19:
  58:Display.c     ****       SegDispData_Write(addr & 8);
 197              		.loc 1 58 0
 198 0028 0820     		movs	r0, #8
 199 002a 2040     		ands	r0, r4
 200 002c FFF7FEFF 		bl	SegDispData_Write
 201              	.LVL20:
  59:Display.c     ****       cycleClock();
 202              		.loc 1 59 0
 203 0030 FFF7FEFF 		bl	cycleClock
 204              	.LVL21:
  60:Display.c     ****       SegDispData_Write(addr & 16);
 205              		.loc 1 60 0
 206 0034 1020     		movs	r0, #16
 207 0036 2040     		ands	r0, r4
 208 0038 FFF7FEFF 		bl	SegDispData_Write
 209              	.LVL22:
  61:Display.c     ****       cycleClock();
 210              		.loc 1 61 0
 211 003c FFF7FEFF 		bl	cycleClock
 212              	.LVL23:
  62:Display.c     ****       SegDispData_Write(addr & 32);
 213              		.loc 1 62 0
 214 0040 2020     		movs	r0, #32
 215 0042 2040     		ands	r0, r4
 216 0044 FFF7FEFF 		bl	SegDispData_Write
 217              	.LVL24:
  63:Display.c     ****       cycleClock();
 218              		.loc 1 63 0
 219 0048 FFF7FEFF 		bl	cycleClock
 220              	.LVL25:
  64:Display.c     ****       SegDispData_Write(addr & 64);
 221              		.loc 1 64 0
ARM GAS  C:\Users\doita\AppData\Local\Temp\ccfZJKUc.s 			page 6


 222 004c 4020     		movs	r0, #64
 223 004e 2040     		ands	r0, r4
 224 0050 FFF7FEFF 		bl	SegDispData_Write
 225              	.LVL26:
  65:Display.c     ****       cycleClock();
 226              		.loc 1 65 0
 227 0054 FFF7FEFF 		bl	cycleClock
 228              	.LVL27:
  66:Display.c     ****       SegDispData_Write(addr & 128);
 229              		.loc 1 66 0
 230 0058 7F23     		movs	r3, #127
 231 005a 2000     		movs	r0, r4
 232 005c 9843     		bics	r0, r3
 233 005e FFF7FEFF 		bl	SegDispData_Write
 234              	.LVL28:
  67:Display.c     ****       cycleClock();
 235              		.loc 1 67 0
 236 0062 FFF7FEFF 		bl	cycleClock
 237              	.LVL29:
  68:Display.c     ****       
  69:Display.c     **** }
 238              		.loc 1 69 0
 239              		@ sp needed
 240 0066 10BD     		pop	{r4, pc}
 241              		.cfi_endproc
 242              	.LFE37:
 243              		.size	writeByte, .-writeByte
 244              		.section	.text.writeBit,"ax",%progbits
 245              		.align	2
 246              		.global	writeBit
 247              		.code	16
 248              		.thumb_func
 249              		.type	writeBit, %function
 250              	writeBit:
 251              	.LFB38:
  70:Display.c     **** 
  71:Display.c     **** void writeBit(bool state)
  72:Display.c     **** {
 252              		.loc 1 72 0
 253              		.cfi_startproc
 254              		@ args = 0, pretend = 0, frame = 0
 255              		@ frame_needed = 0, uses_anonymous_args = 0
 256              	.LVL30:
 257 0000 10B5     		push	{r4, lr}
 258              		.cfi_def_cfa_offset 8
 259              		.cfi_offset 4, -8
 260              		.cfi_offset 14, -4
  73:Display.c     ****   
  74:Display.c     ****   SegDispData_Write(state);  
 261              		.loc 1 74 0
 262 0002 FFF7FEFF 		bl	SegDispData_Write
 263              	.LVL31:
  75:Display.c     **** 
  76:Display.c     ****   // Clock 8 times to shift to first bit
  77:Display.c     ****   for (int i=0; i>7; i++) { 
  78:Display.c     **** 
  79:Display.c     ****     cycleClock();
ARM GAS  C:\Users\doita\AppData\Local\Temp\ccfZJKUc.s 			page 7


  80:Display.c     ****     
  81:Display.c     ****   }
  82:Display.c     **** }
 264              		.loc 1 82 0
 265              		@ sp needed
 266 0006 10BD     		pop	{r4, pc}
 267              		.cfi_endproc
 268              	.LFE38:
 269              		.size	writeBit, .-writeBit
 270              		.section	.text.writeToSingleDigit,"ax",%progbits
 271              		.align	2
 272              		.global	writeToSingleDigit
 273              		.code	16
 274              		.thumb_func
 275              		.type	writeToSingleDigit, %function
 276              	writeToSingleDigit:
 277              	.LFB39:
  83:Display.c     **** 
  84:Display.c     **** void writeToSingleDigit(uint8_t addr, uint8_t data, bool ledState)
  85:Display.c     **** {
 278              		.loc 1 85 0
 279              		.cfi_startproc
 280              		@ args = 0, pretend = 0, frame = 0
 281              		@ frame_needed = 0, uses_anonymous_args = 0
 282              	.LVL32:
 283 0000 70B5     		push	{r4, r5, r6, lr}
 284              		.cfi_def_cfa_offset 16
 285              		.cfi_offset 4, -16
 286              		.cfi_offset 5, -12
 287              		.cfi_offset 6, -8
 288              		.cfi_offset 14, -4
 289 0002 0400     		movs	r4, r0
 290 0004 0E00     		movs	r6, r1
 291 0006 1500     		movs	r5, r2
  86:Display.c     ****   
  87:Display.c     ****   strobe(LOW); 
 292              		.loc 1 87 0
 293 0008 0020     		movs	r0, #0
 294              	.LVL33:
 295 000a FFF7FEFF 		bl	strobe
 296              	.LVL34:
  88:Display.c     ****   
  89:Display.c     ****   writeByte(0xC0 | addr);    //addr = 00H to 0DH
 297              		.loc 1 89 0
 298 000e 4020     		movs	r0, #64
 299 0010 4042     		rsbs	r0, r0, #0
 300 0012 0443     		orrs	r4, r0
 301 0014 E0B2     		uxtb	r0, r4
 302 0016 FFF7FEFF 		bl	writeByte
 303              	.LVL35:
  90:Display.c     ****   writeByte(characterTable[data]);
 304              		.loc 1 90 0
 305 001a 054B     		ldr	r3, .L10
 306 001c 985D     		ldrb	r0, [r3, r6]
 307 001e FFF7FEFF 		bl	writeByte
 308              	.LVL36:
  91:Display.c     ****   writeBit(ledState);
ARM GAS  C:\Users\doita\AppData\Local\Temp\ccfZJKUc.s 			page 8


 309              		.loc 1 91 0
 310 0022 2800     		movs	r0, r5
 311 0024 FFF7FEFF 		bl	writeBit
 312              	.LVL37:
  92:Display.c     ****   
  93:Display.c     ****   strobe(HIGH);
 313              		.loc 1 93 0
 314 0028 0120     		movs	r0, #1
 315 002a FFF7FEFF 		bl	strobe
 316              	.LVL38:
  94:Display.c     ****   
  95:Display.c     **** }
 317              		.loc 1 95 0
 318              		@ sp needed
 319 002e 70BD     		pop	{r4, r5, r6, pc}
 320              	.L11:
 321              		.align	2
 322              	.L10:
 323 0030 00000000 		.word	characterTable
 324              		.cfi_endproc
 325              	.LFE39:
 326              		.size	writeToSingleDigit, .-writeToSingleDigit
 327              		.section	.text.writeToAllDigits,"ax",%progbits
 328              		.align	2
 329              		.global	writeToAllDigits
 330              		.code	16
 331              		.thumb_func
 332              		.type	writeToAllDigits, %function
 333              	writeToAllDigits:
 334              	.LFB40:
  96:Display.c     **** 
  97:Display.c     **** 
  98:Display.c     **** void writeToAllDigits(uint8_t dig1, uint8_t dig2, uint8_t dig3, int period)
  99:Display.c     **** {
 335              		.loc 1 99 0
 336              		.cfi_startproc
 337              		@ args = 0, pretend = 0, frame = 0
 338              		@ frame_needed = 0, uses_anonymous_args = 0
 339              	.LVL39:
 340 0000 F8B5     		push	{r3, r4, r5, r6, r7, lr}
 341              		.cfi_def_cfa_offset 24
 342              		.cfi_offset 3, -24
 343              		.cfi_offset 4, -20
 344              		.cfi_offset 5, -16
 345              		.cfi_offset 6, -12
 346              		.cfi_offset 7, -8
 347              		.cfi_offset 14, -4
 348 0002 0700     		movs	r7, r0
 349 0004 0E00     		movs	r6, r1
 350 0006 1500     		movs	r5, r2
 351 0008 1C00     		movs	r4, r3
 100:Display.c     ****   
 101:Display.c     ****   writeToSingleDigit(digit0Addr, dig1, LOW);
 352              		.loc 1 101 0
 353 000a 0022     		movs	r2, #0
 354              	.LVL40:
 355 000c 0100     		movs	r1, r0
ARM GAS  C:\Users\doita\AppData\Local\Temp\ccfZJKUc.s 			page 9


 356              	.LVL41:
 357 000e 0620     		movs	r0, #6
 358              	.LVL42:
 359 0010 FFF7FEFF 		bl	writeToSingleDigit
 360              	.LVL43:
 102:Display.c     ****   writeToSingleDigit(digit1Addr, dig2, LOW);
 361              		.loc 1 102 0
 362 0014 0022     		movs	r2, #0
 363 0016 3100     		movs	r1, r6
 364 0018 0820     		movs	r0, #8
 365 001a FFF7FEFF 		bl	writeToSingleDigit
 366              	.LVL44:
 103:Display.c     ****   writeToSingleDigit(digit2Addr, dig3, LOW);
 367              		.loc 1 103 0
 368 001e 0022     		movs	r2, #0
 369 0020 2900     		movs	r1, r5
 370 0022 0A20     		movs	r0, #10
 371 0024 FFF7FEFF 		bl	writeToSingleDigit
 372              	.LVL45:
 104:Display.c     ****     
 105:Display.c     ****   CyDelay(period);
 373              		.loc 1 105 0
 374 0028 2000     		movs	r0, r4
 375 002a FFF7FEFF 		bl	CyDelay
 376              	.LVL46:
 106:Display.c     ****     
 107:Display.c     ****   writeToSingleDigit(digit0Addr, dig1, HIGH);
 377              		.loc 1 107 0
 378 002e 0122     		movs	r2, #1
 379 0030 3900     		movs	r1, r7
 380 0032 0620     		movs	r0, #6
 381 0034 FFF7FEFF 		bl	writeToSingleDigit
 382              	.LVL47:
 108:Display.c     ****   writeToSingleDigit(digit1Addr, dig2, HIGH);
 383              		.loc 1 108 0
 384 0038 0122     		movs	r2, #1
 385 003a 3100     		movs	r1, r6
 386 003c 0820     		movs	r0, #8
 387 003e FFF7FEFF 		bl	writeToSingleDigit
 388              	.LVL48:
 109:Display.c     ****   writeToSingleDigit(digit2Addr, dig3, HIGH);
 389              		.loc 1 109 0
 390 0042 0122     		movs	r2, #1
 391 0044 2900     		movs	r1, r5
 392 0046 0A20     		movs	r0, #10
 393 0048 FFF7FEFF 		bl	writeToSingleDigit
 394              	.LVL49:
 110:Display.c     ****     
 111:Display.c     ****   CyDelay(period);
 395              		.loc 1 111 0
 396 004c 2000     		movs	r0, r4
 397 004e FFF7FEFF 		bl	CyDelay
 398              	.LVL50:
 112:Display.c     **** 
 113:Display.c     ****   HeartbeatLed_Toggle();
 399              		.loc 1 113 0
 400 0052 FFF7FEFF 		bl	HeartbeatLed_Toggle
ARM GAS  C:\Users\doita\AppData\Local\Temp\ccfZJKUc.s 			page 10


 401              	.LVL51:
 114:Display.c     ****   
 115:Display.c     **** }
 402              		.loc 1 115 0
 403              		@ sp needed
 404              	.LVL52:
 405 0056 F8BD     		pop	{r3, r4, r5, r6, r7, pc}
 406              		.cfi_endproc
 407              	.LFE40:
 408              		.size	writeToAllDigits, .-writeToAllDigits
 409              		.section	.text.ctrlDisplay,"ax",%progbits
 410              		.align	2
 411              		.global	ctrlDisplay
 412              		.code	16
 413              		.thumb_func
 414              		.type	ctrlDisplay, %function
 415              	ctrlDisplay:
 416              	.LFB41:
 116:Display.c     **** 
 117:Display.c     **** void ctrlDisplay(int ctx, uint8_t value)
 118:Display.c     **** {
 417              		.loc 1 118 0
 418              		.cfi_startproc
 419              		@ args = 0, pretend = 0, frame = 0
 420              		@ frame_needed = 0, uses_anonymous_args = 0
 421              	.LVL53:
 422 0000 70B5     		push	{r4, r5, r6, lr}
 423              		.cfi_def_cfa_offset 16
 424              		.cfi_offset 4, -16
 425              		.cfi_offset 5, -12
 426              		.cfi_offset 6, -8
 427              		.cfi_offset 14, -4
 428 0002 0400     		movs	r4, r0
 429 0004 0D00     		movs	r5, r1
 119:Display.c     ****   
 120:Display.c     ****   strobe(LOW);
 430              		.loc 1 120 0
 431 0006 0020     		movs	r0, #0
 432              	.LVL54:
 433 0008 FFF7FEFF 		bl	strobe
 434              	.LVL55:
 121:Display.c     ****   
 122:Display.c     ****   switch(ctx) {
 435              		.loc 1 122 0
 436 000c 012C     		cmp	r4, #1
 437 000e 07D0     		beq	.L15
 438 0010 022C     		cmp	r4, #2
 439 0012 09D0     		beq	.L16
 440 0014 002C     		cmp	r4, #0
 441 0016 0DD1     		bne	.L14
 123:Display.c     ****     // Display off
 124:Display.c     ****     case 0:
 125:Display.c     ****       IGNORE(value);
 126:Display.c     ****       writeByte(0x80 & ~0x08);
 442              		.loc 1 126 0
 443 0018 8020     		movs	r0, #128
 444 001a FFF7FEFF 		bl	writeByte
ARM GAS  C:\Users\doita\AppData\Local\Temp\ccfZJKUc.s 			page 11


 445              	.LVL56:
 127:Display.c     ****       break;
 446              		.loc 1 127 0
 447 001e 09E0     		b	.L14
 448              	.L15:
 128:Display.c     ****     // Display on
 129:Display.c     ****     case 1:
 130:Display.c     ****       IGNORE(value);
 131:Display.c     ****       writeByte(0x80 | 0x08);
 449              		.loc 1 131 0
 450 0020 8820     		movs	r0, #136
 451 0022 FFF7FEFF 		bl	writeByte
 452              	.LVL57:
 132:Display.c     ****       break;
 453              		.loc 1 132 0
 454 0026 05E0     		b	.L14
 455              	.L16:
 133:Display.c     ****     // Set brightness
 134:Display.c     ****     case 2:
 135:Display.c     ****       writeByte(0x80 | value);
 456              		.loc 1 135 0
 457 0028 8020     		movs	r0, #128
 458 002a 4042     		rsbs	r0, r0, #0
 459 002c 0543     		orrs	r5, r0
 460 002e E8B2     		uxtb	r0, r5
 461 0030 FFF7FEFF 		bl	writeByte
 462              	.LVL58:
 463              	.L14:
 136:Display.c     ****       break;
 137:Display.c     ****   }
 138:Display.c     **** 
 139:Display.c     ****   strobe(HIGH);
 464              		.loc 1 139 0
 465 0034 0120     		movs	r0, #1
 466 0036 FFF7FEFF 		bl	strobe
 467              	.LVL59:
 140:Display.c     ****   
 141:Display.c     **** }
 468              		.loc 1 141 0
 469              		@ sp needed
 470              	.LVL60:
 471 003a 70BD     		pop	{r4, r5, r6, pc}
 472              		.cfi_endproc
 473              	.LFE41:
 474              		.size	ctrlDisplay, .-ctrlDisplay
 475              		.global	curState
 476              		.global	digit2Addr
 477              		.global	digit1Addr
 478              		.global	digit0Addr
 479              		.section	.rodata
 480              		.type	digit2Addr, %object
 481              		.size	digit2Addr, 1
 482              	digit2Addr:
 483 0000 0A       		.byte	10
 484              		.type	digit1Addr, %object
 485              		.size	digit1Addr, 1
 486              	digit1Addr:
ARM GAS  C:\Users\doita\AppData\Local\Temp\ccfZJKUc.s 			page 12


 487 0001 08       		.byte	8
 488              		.type	digit0Addr, %object
 489              		.size	digit0Addr, 1
 490              	digit0Addr:
 491 0002 06       		.byte	6
 492              		.bss
 493              		.set	.LANCHOR0,. + 0
 494              		.type	curState, %object
 495              		.size	curState, 1
 496              	curState:
 497 0000 00       		.space	1
 498              		.text
 499              	.Letext0:
 500              		.file 2 "c:\\program files (x86)\\cypress\\psoc creator\\4.4\\psoc creator\\import\\gnu\\arm\\5.4.
 501              		.file 3 "c:\\program files (x86)\\cypress\\psoc creator\\4.4\\psoc creator\\import\\gnu\\arm\\5.4.
 502              		.file 4 "Generated_Source\\PSoC4/cytypes.h"
 503              		.file 5 "SsdCharacterTable.h"
 504              		.file 6 "Generated_Source\\PSoC4/HeartbeatLed.h"
 505              		.file 7 "Generated_Source\\PSoC4/CyLib.h"
 506              		.file 8 "Generated_Source\\PSoC4/SegDispClock.h"
 507              		.file 9 "Generated_Source\\PSoC4/SegDispStb1.h"
 508              		.file 10 "Generated_Source\\PSoC4/SegDispData.h"