ARM GAS  C:\Users\doita\AppData\Local\Temp\cc44fZpJ.s 			page 1


   1              		.syntax unified
   2              		.cpu cortex-m0plus
   3              		.fpu softvfp
   4              		.eabi_attribute 20, 1
   5              		.eabi_attribute 21, 1
   6              		.eabi_attribute 23, 3
   7              		.eabi_attribute 24, 1
   8              		.eabi_attribute 25, 1
   9              		.eabi_attribute 26, 1
  10              		.eabi_attribute 30, 1
  11              		.eabi_attribute 34, 0
  12              		.eabi_attribute 18, 4
  13              		.thumb
  14              		.syntax unified
  15              		.file	"Input_Capsense_Processing.c"
  16              		.text
  17              	.Ltext0:
  18              		.cfi_sections	.debug_frame
  19              		.section	.text.Input_Capsense_DpInitialize,"ax",%progbits
  20              		.align	2
  21              		.global	Input_Capsense_DpInitialize
  22              		.code	16
  23              		.thumb_func
  24              		.type	Input_Capsense_DpInitialize, %function
  25              	Input_Capsense_DpInitialize:
  26              	.LFB1:
  27              		.file 1 "Generated_Source\\PSoC4\\Input_Capsense_Processing.c"
   1:Generated_Source\PSoC4/Input_Capsense_Processing.c **** /***************************************************************************//**
   2:Generated_Source\PSoC4/Input_Capsense_Processing.c **** * \file Input_Capsense_Processing.c
   3:Generated_Source\PSoC4/Input_Capsense_Processing.c **** * \version 7.0
   4:Generated_Source\PSoC4/Input_Capsense_Processing.c **** *
   5:Generated_Source\PSoC4/Input_Capsense_Processing.c **** * \brief
   6:Generated_Source\PSoC4/Input_Capsense_Processing.c **** *   This file provides the source code for the Data Processing module APIs
   7:Generated_Source\PSoC4/Input_Capsense_Processing.c **** *   of the Component. The Data Processing module is responsible for the
   8:Generated_Source\PSoC4/Input_Capsense_Processing.c **** *   low level raw counts processing provided by the sensing module, maintaining
   9:Generated_Source\PSoC4/Input_Capsense_Processing.c **** *   baseline and difference values and performing high-level widget processing
  10:Generated_Source\PSoC4/Input_Capsense_Processing.c **** *   like updating button status or calculating slider position.
  11:Generated_Source\PSoC4/Input_Capsense_Processing.c **** *
  12:Generated_Source\PSoC4/Input_Capsense_Processing.c **** * \see Input_Capsense v7.0 Datasheet
  13:Generated_Source\PSoC4/Input_Capsense_Processing.c **** *
  14:Generated_Source\PSoC4/Input_Capsense_Processing.c **** *//*****************************************************************************
  15:Generated_Source\PSoC4/Input_Capsense_Processing.c **** * Copyright (2016-2019), Cypress Semiconductor Corporation.
  16:Generated_Source\PSoC4/Input_Capsense_Processing.c **** ********************************************************************************
  17:Generated_Source\PSoC4/Input_Capsense_Processing.c **** * This software is owned by Cypress Semiconductor Corporation (Cypress) and is
  18:Generated_Source\PSoC4/Input_Capsense_Processing.c **** * protected by and subject to worldwide patent protection (United States and
  19:Generated_Source\PSoC4/Input_Capsense_Processing.c **** * foreign), United States copyright laws and international treaty provisions.
  20:Generated_Source\PSoC4/Input_Capsense_Processing.c **** * Cypress hereby grants to licensee a personal, non-exclusive, non-transferable
  21:Generated_Source\PSoC4/Input_Capsense_Processing.c **** * license to copy, use, modify, create derivative works of, and compile the
  22:Generated_Source\PSoC4/Input_Capsense_Processing.c **** * Cypress Source Code and derivative works for the sole purpose of creating
  23:Generated_Source\PSoC4/Input_Capsense_Processing.c **** * custom software in support of licensee product to be used only in conjunction
  24:Generated_Source\PSoC4/Input_Capsense_Processing.c **** * with a Cypress integrated circuit as specified in the applicable agreement.
  25:Generated_Source\PSoC4/Input_Capsense_Processing.c **** * Any reproduction, modification, translation, compilation, or representation of
  26:Generated_Source\PSoC4/Input_Capsense_Processing.c **** * this software except as specified above is prohibited without the express
  27:Generated_Source\PSoC4/Input_Capsense_Processing.c **** * written permission of Cypress.
  28:Generated_Source\PSoC4/Input_Capsense_Processing.c **** *
  29:Generated_Source\PSoC4/Input_Capsense_Processing.c **** * Disclaimer: CYPRESS MAKES NO WARRANTY OF ANY KIND, EXPRESS OR IMPLIED, WITH
  30:Generated_Source\PSoC4/Input_Capsense_Processing.c **** * REGARD TO THIS MATERIAL, INCLUDING, BUT NOT LIMITED TO, THE IMPLIED
ARM GAS  C:\Users\doita\AppData\Local\Temp\cc44fZpJ.s 			page 2


  31:Generated_Source\PSoC4/Input_Capsense_Processing.c **** * WARRANTIES OF MERCHANTABILITY AND FITNESS FOR A PARTICULAR PURPOSE.
  32:Generated_Source\PSoC4/Input_Capsense_Processing.c **** * Cypress reserves the right to make changes without further notice to the
  33:Generated_Source\PSoC4/Input_Capsense_Processing.c **** * materials described herein. Cypress does not assume any liability arising out
  34:Generated_Source\PSoC4/Input_Capsense_Processing.c **** * of the application or use of any product or circuit described herein. Cypress
  35:Generated_Source\PSoC4/Input_Capsense_Processing.c **** * does not authorize its products for use as critical components in life-support
  36:Generated_Source\PSoC4/Input_Capsense_Processing.c **** * systems where a malfunction or failure may reasonably be expected to result in
  37:Generated_Source\PSoC4/Input_Capsense_Processing.c **** * significant injury to the user. The inclusion of Cypress' product in a life-
  38:Generated_Source\PSoC4/Input_Capsense_Processing.c **** * support systems application implies that the manufacturer assumes all risk of
  39:Generated_Source\PSoC4/Input_Capsense_Processing.c **** * such use and in doing so indemnifies Cypress against all charges. Use may be
  40:Generated_Source\PSoC4/Input_Capsense_Processing.c **** * limited by and subject to the applicable Cypress software license agreement.
  41:Generated_Source\PSoC4/Input_Capsense_Processing.c **** *******************************************************************************/
  42:Generated_Source\PSoC4/Input_Capsense_Processing.c **** 
  43:Generated_Source\PSoC4/Input_Capsense_Processing.c **** #include "CyLib.h"
  44:Generated_Source\PSoC4/Input_Capsense_Processing.c **** #include "cytypes.h"
  45:Generated_Source\PSoC4/Input_Capsense_Processing.c **** #include "Input_Capsense_Configuration.h"
  46:Generated_Source\PSoC4/Input_Capsense_Processing.c **** #include "Input_Capsense_Processing.h"
  47:Generated_Source\PSoC4/Input_Capsense_Processing.c **** #include "Input_Capsense_Filter.h"
  48:Generated_Source\PSoC4/Input_Capsense_Processing.c **** 
  49:Generated_Source\PSoC4/Input_Capsense_Processing.c **** #if (0u != Input_Capsense_CENTROID_EN)
  50:Generated_Source\PSoC4/Input_Capsense_Processing.c ****     #include "Input_Capsense_Centroid_LL.h"
  51:Generated_Source\PSoC4/Input_Capsense_Processing.c **** #endif /* (0 != Input_Capsense_CENTROID_EN) */
  52:Generated_Source\PSoC4/Input_Capsense_Processing.c **** 
  53:Generated_Source\PSoC4/Input_Capsense_Processing.c **** #if (0 != (Input_Capsense_CSD_AUTOTUNE & Input_Capsense_CSD_SS_TH_EN))
  54:Generated_Source\PSoC4/Input_Capsense_Processing.c ****     #include "Input_Capsense_SmartSense_LL.h"
  55:Generated_Source\PSoC4/Input_Capsense_Processing.c **** #endif /* (0 != (Input_Capsense_CSD_AUTOTUNE & Input_Capsense_CSD_SS_TH_EN)) */
  56:Generated_Source\PSoC4/Input_Capsense_Processing.c **** 
  57:Generated_Source\PSoC4/Input_Capsense_Processing.c **** #if (Input_Capsense_ENABLE == Input_Capsense_SELF_TEST_EN)
  58:Generated_Source\PSoC4/Input_Capsense_Processing.c ****     #include "Input_Capsense_SelfTest.h"
  59:Generated_Source\PSoC4/Input_Capsense_Processing.c **** #endif
  60:Generated_Source\PSoC4/Input_Capsense_Processing.c **** 
  61:Generated_Source\PSoC4/Input_Capsense_Processing.c **** #if (Input_Capsense_ENABLE == Input_Capsense_CENTROID_5X5_CSD_EN)
  62:Generated_Source\PSoC4/Input_Capsense_Processing.c ****     #include "Input_Capsense_AdvancedCentroid_LL.h"
  63:Generated_Source\PSoC4/Input_Capsense_Processing.c **** #endif
  64:Generated_Source\PSoC4/Input_Capsense_Processing.c **** 
  65:Generated_Source\PSoC4/Input_Capsense_Processing.c **** #if (Input_Capsense_ENABLE == Input_Capsense_POS_ADAPTIVE_IIR_FILTER_EN)
  66:Generated_Source\PSoC4/Input_Capsense_Processing.c ****     #include "Input_Capsense_AdaptiveFilter_LL.h"
  67:Generated_Source\PSoC4/Input_Capsense_Processing.c **** #endif
  68:Generated_Source\PSoC4/Input_Capsense_Processing.c **** 
  69:Generated_Source\PSoC4/Input_Capsense_Processing.c **** #if(Input_Capsense_ENABLE == Input_Capsense_BALLISTIC_MULTIPLIER_EN)
  70:Generated_Source\PSoC4/Input_Capsense_Processing.c ****     #include "Input_Capsense_Gesture.h"
  71:Generated_Source\PSoC4/Input_Capsense_Processing.c **** #endif
  72:Generated_Source\PSoC4/Input_Capsense_Processing.c **** 
  73:Generated_Source\PSoC4/Input_Capsense_Processing.c **** /**************************************************************************************************
  74:Generated_Source\PSoC4/Input_Capsense_Processing.c **** * Local definition
  75:Generated_Source\PSoC4/Input_Capsense_Processing.c **** ***************************************************************************************************
  76:Generated_Source\PSoC4/Input_Capsense_Processing.c **** 
  77:Generated_Source\PSoC4/Input_Capsense_Processing.c **** /* UINT32 constant with all odd bits set. It is used by the processing function of the Proximity wi
  78:Generated_Source\PSoC4/Input_Capsense_Processing.c **** *  determine type of the status bit: odd bits report proximity status; even bits report touch statu
  79:Generated_Source\PSoC4/Input_Capsense_Processing.c **** */
  80:Generated_Source\PSoC4/Input_Capsense_Processing.c **** #define UINT32_ODD_BITS_CONST       (0x55555555u)
  81:Generated_Source\PSoC4/Input_Capsense_Processing.c **** 
  82:Generated_Source\PSoC4/Input_Capsense_Processing.c **** /* Default value for the Off Debounce counter when the Off Debounce is disabled */
  83:Generated_Source\PSoC4/Input_Capsense_Processing.c **** #define DEFAULT_OFF_DEBOUNCE_VALUE  (1u)
  84:Generated_Source\PSoC4/Input_Capsense_Processing.c **** #define PERCENTAGE_100              (100u)
  85:Generated_Source\PSoC4/Input_Capsense_Processing.c **** #define TEMP_BUFFER_MSB_SHIFT       (16)
  86:Generated_Source\PSoC4/Input_Capsense_Processing.c **** 
  87:Generated_Source\PSoC4/Input_Capsense_Processing.c **** /**************************************************************************************************
ARM GAS  C:\Users\doita\AppData\Local\Temp\cc44fZpJ.s 			page 3


  88:Generated_Source\PSoC4/Input_Capsense_Processing.c **** * Local variables
  89:Generated_Source\PSoC4/Input_Capsense_Processing.c **** ***************************************************************************************************
  90:Generated_Source\PSoC4/Input_Capsense_Processing.c **** #if (0u != Input_Capsense_CSX_MULTIPHASE_TX_EN)
  91:Generated_Source\PSoC4/Input_Capsense_Processing.c ****     static uint16 deconvRowData[Input_Capsense_CSX_MAX_TX_PHASE_LENGTH];
  92:Generated_Source\PSoC4/Input_Capsense_Processing.c **** #endif
  93:Generated_Source\PSoC4/Input_Capsense_Processing.c **** 
  94:Generated_Source\PSoC4/Input_Capsense_Processing.c **** 
  95:Generated_Source\PSoC4/Input_Capsense_Processing.c **** /**************************************************************************************************
  96:Generated_Source\PSoC4/Input_Capsense_Processing.c **** * Static Function Prototypes
  97:Generated_Source\PSoC4/Input_Capsense_Processing.c **** ***************************************************************************************************
  98:Generated_Source\PSoC4/Input_Capsense_Processing.c **** /**
  99:Generated_Source\PSoC4/Input_Capsense_Processing.c **** * \cond SECTION_C_INTERNAL
 100:Generated_Source\PSoC4/Input_Capsense_Processing.c **** * \addtogroup group_c_internal
 101:Generated_Source\PSoC4/Input_Capsense_Processing.c **** * \{
 102:Generated_Source\PSoC4/Input_Capsense_Processing.c **** */
 103:Generated_Source\PSoC4/Input_Capsense_Processing.c **** #if (0u != Input_Capsense_TOTAL_LINEAR_SLIDERS)
 104:Generated_Source\PSoC4/Input_Capsense_Processing.c ****     static CY_INLINE void DpUpdateLinSlider(
 105:Generated_Source\PSoC4/Input_Capsense_Processing.c ****                         const uint16 newPos[], uint32 numTouches,
 106:Generated_Source\PSoC4/Input_Capsense_Processing.c ****                         Input_Capsense_FLASH_WD_STRUCT const *ptrFlashWdgt,
 107:Generated_Source\PSoC4/Input_Capsense_Processing.c ****                         Input_Capsense_RAM_WD_SLIDER_STRUCT *ptrRamWdgt);
 108:Generated_Source\PSoC4/Input_Capsense_Processing.c **** #endif /* #if (0u != Input_Capsense_TOTAL_LINEAR_SLIDERS) */
 109:Generated_Source\PSoC4/Input_Capsense_Processing.c **** 
 110:Generated_Source\PSoC4/Input_Capsense_Processing.c **** #if (0u != Input_Capsense_TOTAL_RADIAL_SLIDERS)
 111:Generated_Source\PSoC4/Input_Capsense_Processing.c ****     static CY_INLINE void DpUpdateRadSlider(
 112:Generated_Source\PSoC4/Input_Capsense_Processing.c ****                         const uint16 newPos[], uint32 numTouches,
 113:Generated_Source\PSoC4/Input_Capsense_Processing.c ****                         Input_Capsense_FLASH_WD_STRUCT const * ptrFlashWdgt,
 114:Generated_Source\PSoC4/Input_Capsense_Processing.c ****                         Input_Capsense_RAM_WD_SLIDER_STRUCT *ptrRamWdgt);
 115:Generated_Source\PSoC4/Input_Capsense_Processing.c **** #endif /* #if (0u != Input_Capsense_TOTAL_RADIAL_SLIDERS) */
 116:Generated_Source\PSoC4/Input_Capsense_Processing.c **** 
 117:Generated_Source\PSoC4/Input_Capsense_Processing.c **** #if (0u != Input_Capsense_CSD_TOUCHPAD_WIDGET_EN)
 118:Generated_Source\PSoC4/Input_Capsense_Processing.c ****     static CY_INLINE void Input_Capsense_DpInitCsdTouchpad(Input_Capsense_FLASH_WD_STRUCT const * p
 119:Generated_Source\PSoC4/Input_Capsense_Processing.c **** #endif /* #if (0u != Input_Capsense_CSD_TOUCHPAD_WIDGET_EN) */
 120:Generated_Source\PSoC4/Input_Capsense_Processing.c **** 
 121:Generated_Source\PSoC4/Input_Capsense_Processing.c **** #if (0u != Input_Capsense_CSX_TOUCHPAD_WIDGET_EN)
 122:Generated_Source\PSoC4/Input_Capsense_Processing.c ****     static CY_INLINE void Input_Capsense_DpInitCsxTouchpad(Input_Capsense_FLASH_WD_STRUCT const * p
 123:Generated_Source\PSoC4/Input_Capsense_Processing.c **** #endif /* #if (0u != Input_Capsense_CSX_TOUCHPAD_WIDGET_EN) */
 124:Generated_Source\PSoC4/Input_Capsense_Processing.c **** 
 125:Generated_Source\PSoC4/Input_Capsense_Processing.c **** #if (0u != Input_Capsense_SLIDER_WIDGET_EN)
 126:Generated_Source\PSoC4/Input_Capsense_Processing.c ****     static CY_INLINE void Input_Capsense_DpInitSlider(Input_Capsense_FLASH_WD_STRUCT const * ptrFla
 127:Generated_Source\PSoC4/Input_Capsense_Processing.c **** #endif /* #if (0u != Input_Capsense_SLIDER_WIDGET_EN) */
 128:Generated_Source\PSoC4/Input_Capsense_Processing.c **** 
 129:Generated_Source\PSoC4/Input_Capsense_Processing.c **** #if (0u != Input_Capsense_CSD_MATRIX_WIDGET_EN)
 130:Generated_Source\PSoC4/Input_Capsense_Processing.c ****     static CY_INLINE void Input_Capsense_DpInitCsdMatrix(Input_Capsense_FLASH_WD_STRUCT const * ptr
 131:Generated_Source\PSoC4/Input_Capsense_Processing.c **** #endif /* #if (0u != Input_Capsense_CSD_MATRIX_WIDGET_EN) */
 132:Generated_Source\PSoC4/Input_Capsense_Processing.c **** 
 133:Generated_Source\PSoC4/Input_Capsense_Processing.c **** /** \}
 134:Generated_Source\PSoC4/Input_Capsense_Processing.c **** * \endcond */
 135:Generated_Source\PSoC4/Input_Capsense_Processing.c **** 
 136:Generated_Source\PSoC4/Input_Capsense_Processing.c **** #if (0u != Input_Capsense_CSD_TOUCHPAD_WIDGET_EN)
 137:Generated_Source\PSoC4/Input_Capsense_Processing.c **** /*******************************************************************************
 138:Generated_Source\PSoC4/Input_Capsense_Processing.c **** * Function Name: Input_Capsense_DpInitCsdTouchpad
 139:Generated_Source\PSoC4/Input_Capsense_Processing.c **** ****************************************************************************//**
 140:Generated_Source\PSoC4/Input_Capsense_Processing.c **** *
 141:Generated_Source\PSoC4/Input_Capsense_Processing.c **** * \brief
 142:Generated_Source\PSoC4/Input_Capsense_Processing.c **** *  Performs initialization of the CSD touchpad widget.
 143:Generated_Source\PSoC4/Input_Capsense_Processing.c **** *   - Resets the position data to NONE
 144:Generated_Source\PSoC4/Input_Capsense_Processing.c **** *   - Initializes the position filter history if enabled.
ARM GAS  C:\Users\doita\AppData\Local\Temp\cc44fZpJ.s 			page 4


 145:Generated_Source\PSoC4/Input_Capsense_Processing.c **** *
 146:Generated_Source\PSoC4/Input_Capsense_Processing.c **** * \details
 147:Generated_Source\PSoC4/Input_Capsense_Processing.c **** *  The position data is always reset to the Input_Capsense_TOUCHPAD_POS_NONE value.
 148:Generated_Source\PSoC4/Input_Capsense_Processing.c **** *  The same happens to the position filter history data if enabled.
 149:Generated_Source\PSoC4/Input_Capsense_Processing.c **** *
 150:Generated_Source\PSoC4/Input_Capsense_Processing.c **** *******************************************************************************/
 151:Generated_Source\PSoC4/Input_Capsense_Processing.c **** static CY_INLINE void Input_Capsense_DpInitCsdTouchpad(Input_Capsense_FLASH_WD_STRUCT const * ptrFl
 152:Generated_Source\PSoC4/Input_Capsense_Processing.c **** {
 153:Generated_Source\PSoC4/Input_Capsense_Processing.c ****     #if (Input_Capsense_ENABLE == Input_Capsense_CENTROID_5X5_CSD_EN)
 154:Generated_Source\PSoC4/Input_Capsense_Processing.c ****         uint32 touchIndex;
 155:Generated_Source\PSoC4/Input_Capsense_Processing.c ****     #endif
 156:Generated_Source\PSoC4/Input_Capsense_Processing.c **** 
 157:Generated_Source\PSoC4/Input_Capsense_Processing.c ****     Input_Capsense_RAM_WD_CSD_TOUCHPAD_STRUCT *ptrWdTouchpad;
 158:Generated_Source\PSoC4/Input_Capsense_Processing.c **** 
 159:Generated_Source\PSoC4/Input_Capsense_Processing.c ****     #if (0u != Input_Capsense_POSITION_FILTER_EN)
 160:Generated_Source\PSoC4/Input_Capsense_Processing.c ****         Input_Capsense_TOUCHPAD_POS_HISTORY_STRUCT *ptrHistory;
 161:Generated_Source\PSoC4/Input_Capsense_Processing.c ****     #endif  /* #if (0u != Input_Capsense_POSITION_FILTER_EN) */
 162:Generated_Source\PSoC4/Input_Capsense_Processing.c **** 
 163:Generated_Source\PSoC4/Input_Capsense_Processing.c ****     #if (0u != Input_Capsense_POS_ADAPTIVE_IIR_FILTER_EN)
 164:Generated_Source\PSoC4/Input_Capsense_Processing.c ****         ADAPTIVE_FILTER_CONTEXT_STRUCT adpContext;
 165:Generated_Source\PSoC4/Input_Capsense_Processing.c ****     #endif /* (0u != Input_Capsense_POS_ADAPTIVE_IIR_FILTER_EN) */
 166:Generated_Source\PSoC4/Input_Capsense_Processing.c **** 
 167:Generated_Source\PSoC4/Input_Capsense_Processing.c ****     ptrWdTouchpad = ptrFlashWdgt->ptr2WdgtRam;
 168:Generated_Source\PSoC4/Input_Capsense_Processing.c **** 
 169:Generated_Source\PSoC4/Input_Capsense_Processing.c ****     /* Reset position data */
 170:Generated_Source\PSoC4/Input_Capsense_Processing.c ****     #if (Input_Capsense_ENABLE == Input_Capsense_CENTROID_5X5_CSD_EN)
 171:Generated_Source\PSoC4/Input_Capsense_Processing.c ****         #if (Input_Capsense_ENABLE == Input_Capsense_CENTROID_3X3_CSD_EN)
 172:Generated_Source\PSoC4/Input_Capsense_Processing.c ****             if (0u != (ptrFlashWdgt->staticConfig & Input_Capsense_CENTROID_5X5_MASK))
 173:Generated_Source\PSoC4/Input_Capsense_Processing.c ****             {
 174:Generated_Source\PSoC4/Input_Capsense_Processing.c ****         #endif
 175:Generated_Source\PSoC4/Input_Capsense_Processing.c **** 
 176:Generated_Source\PSoC4/Input_Capsense_Processing.c ****         ptrWdTouchpad->position.touchNum = 0u;
 177:Generated_Source\PSoC4/Input_Capsense_Processing.c **** 
 178:Generated_Source\PSoC4/Input_Capsense_Processing.c ****         #if (0u != Input_Capsense_POSITION_FILTER_EN)
 179:Generated_Source\PSoC4/Input_Capsense_Processing.c ****             ptrHistory = ptrFlashWdgt->ptr2PosHistory;
 180:Generated_Source\PSoC4/Input_Capsense_Processing.c ****         #endif /* (0u != Input_Capsense_POSITION_FILTER_EN) */
 181:Generated_Source\PSoC4/Input_Capsense_Processing.c **** 
 182:Generated_Source\PSoC4/Input_Capsense_Processing.c ****         for (touchIndex = 0u; touchIndex < ADVANCED_CENTROID_MAX_TOUCHES; touchIndex++)
 183:Generated_Source\PSoC4/Input_Capsense_Processing.c ****         {
 184:Generated_Source\PSoC4/Input_Capsense_Processing.c ****             ptrWdTouchpad->position.pos[touchIndex].x = ADVANCED_CENTROID_POSITION_NONE;
 185:Generated_Source\PSoC4/Input_Capsense_Processing.c ****             ptrWdTouchpad->position.pos[touchIndex].y = ADVANCED_CENTROID_POSITION_NONE;
 186:Generated_Source\PSoC4/Input_Capsense_Processing.c ****             ptrWdTouchpad->position.pos[touchIndex].zX = ADVANCED_CENTROID_POSITION_NONE;
 187:Generated_Source\PSoC4/Input_Capsense_Processing.c ****             ptrWdTouchpad->position.pos[touchIndex].zY = ADVANCED_CENTROID_POSITION_NONE;
 188:Generated_Source\PSoC4/Input_Capsense_Processing.c **** 
 189:Generated_Source\PSoC4/Input_Capsense_Processing.c ****             /* Clear position filter history data if available */
 190:Generated_Source\PSoC4/Input_Capsense_Processing.c ****             #if (0u != Input_Capsense_POSITION_FILTER_EN)
 191:Generated_Source\PSoC4/Input_Capsense_Processing.c ****                 if (NULL != ptrHistory)
 192:Generated_Source\PSoC4/Input_Capsense_Processing.c ****                 {
 193:Generated_Source\PSoC4/Input_Capsense_Processing.c ****                     Input_Capsense_InitPosFiltersDd(&ptrHistory[touchIndex], Input_Capsense_TOUCHPA
 194:Generated_Source\PSoC4/Input_Capsense_Processing.c ****                     #if (0u != Input_Capsense_POS_ADAPTIVE_IIR_FILTER_EN)
 195:Generated_Source\PSoC4/Input_Capsense_Processing.c ****                         AdaptiveFilter_Initialize(&ptrWdTouchpad->aiirConfig, &adpContext);
 196:Generated_Source\PSoC4/Input_Capsense_Processing.c ****                         ptrHistory[touchIndex].xPos.posAIIRCoeff = adpContext.coefficient;
 197:Generated_Source\PSoC4/Input_Capsense_Processing.c ****                         ptrHistory[touchIndex].yPos.posAIIRCoeff = adpContext.coefficient;
 198:Generated_Source\PSoC4/Input_Capsense_Processing.c ****                     #endif /* (0u != Input_Capsense_POS_ADAPTIVE_IIR_FILTER_EN) */
 199:Generated_Source\PSoC4/Input_Capsense_Processing.c ****                 }
 200:Generated_Source\PSoC4/Input_Capsense_Processing.c ****             #endif /* (0u != Input_Capsense_POSITION_FILTER_EN) */
 201:Generated_Source\PSoC4/Input_Capsense_Processing.c ****         }
ARM GAS  C:\Users\doita\AppData\Local\Temp\cc44fZpJ.s 			page 5


 202:Generated_Source\PSoC4/Input_Capsense_Processing.c **** 
 203:Generated_Source\PSoC4/Input_Capsense_Processing.c ****         #if (Input_Capsense_ENABLE == Input_Capsense_CENTROID_3X3_CSD_EN)
 204:Generated_Source\PSoC4/Input_Capsense_Processing.c ****             }
 205:Generated_Source\PSoC4/Input_Capsense_Processing.c ****         #endif
 206:Generated_Source\PSoC4/Input_Capsense_Processing.c ****     #endif
 207:Generated_Source\PSoC4/Input_Capsense_Processing.c **** 
 208:Generated_Source\PSoC4/Input_Capsense_Processing.c ****     #if (Input_Capsense_ENABLE == Input_Capsense_CENTROID_3X3_CSD_EN)
 209:Generated_Source\PSoC4/Input_Capsense_Processing.c ****         if (0u != (ptrFlashWdgt->staticConfig & Input_Capsense_CENTROID_3X3_MASK))
 210:Generated_Source\PSoC4/Input_Capsense_Processing.c ****         {
 211:Generated_Source\PSoC4/Input_Capsense_Processing.c ****             ptrWdTouchpad->posX = Input_Capsense_TOUCHPAD_POS_NONE;
 212:Generated_Source\PSoC4/Input_Capsense_Processing.c ****             ptrWdTouchpad->posY = Input_Capsense_TOUCHPAD_POS_NONE;
 213:Generated_Source\PSoC4/Input_Capsense_Processing.c **** 
 214:Generated_Source\PSoC4/Input_Capsense_Processing.c ****             /* Clear position filter history data if available */
 215:Generated_Source\PSoC4/Input_Capsense_Processing.c ****             #if (0u != Input_Capsense_POSITION_FILTER_EN)
 216:Generated_Source\PSoC4/Input_Capsense_Processing.c ****                 ptrHistory = ptrFlashWdgt->ptr2PosHistory;
 217:Generated_Source\PSoC4/Input_Capsense_Processing.c ****                 Input_Capsense_InitPosFiltersDd(ptrHistory, Input_Capsense_TOUCHPAD_POS_NONE, Input
 218:Generated_Source\PSoC4/Input_Capsense_Processing.c **** 
 219:Generated_Source\PSoC4/Input_Capsense_Processing.c ****                 #if (0u != Input_Capsense_POS_ADAPTIVE_IIR_FILTER_EN)
 220:Generated_Source\PSoC4/Input_Capsense_Processing.c ****                     if (NULL != ptrHistory)
 221:Generated_Source\PSoC4/Input_Capsense_Processing.c ****                     {
 222:Generated_Source\PSoC4/Input_Capsense_Processing.c ****                         AdaptiveFilter_Initialize(&ptrWdTouchpad->aiirConfig, &adpContext);
 223:Generated_Source\PSoC4/Input_Capsense_Processing.c ****                         ptrHistory->xPos.posAIIRCoeff = adpContext.coefficient;
 224:Generated_Source\PSoC4/Input_Capsense_Processing.c ****                         ptrHistory->yPos.posAIIRCoeff = adpContext.coefficient;
 225:Generated_Source\PSoC4/Input_Capsense_Processing.c ****                     }
 226:Generated_Source\PSoC4/Input_Capsense_Processing.c ****                 #endif /* (0u != Input_Capsense_POS_ADAPTIVE_IIR_FILTER_EN) */
 227:Generated_Source\PSoC4/Input_Capsense_Processing.c ****             #endif /* (0u != Input_Capsense_POSITION_FILTER_EN) */
 228:Generated_Source\PSoC4/Input_Capsense_Processing.c ****         }
 229:Generated_Source\PSoC4/Input_Capsense_Processing.c ****     #endif
 230:Generated_Source\PSoC4/Input_Capsense_Processing.c **** }
 231:Generated_Source\PSoC4/Input_Capsense_Processing.c **** #endif /* #if (0u != Input_Capsense_CSD_TOUCHPAD_WIDGET_EN) */
 232:Generated_Source\PSoC4/Input_Capsense_Processing.c **** 
 233:Generated_Source\PSoC4/Input_Capsense_Processing.c **** #if (0u != Input_Capsense_CSX_TOUCHPAD_WIDGET_EN)
 234:Generated_Source\PSoC4/Input_Capsense_Processing.c **** /*******************************************************************************
 235:Generated_Source\PSoC4/Input_Capsense_Processing.c **** * Function Name: Input_Capsense_DpInitCsxTouchpad
 236:Generated_Source\PSoC4/Input_Capsense_Processing.c **** ****************************************************************************//**
 237:Generated_Source\PSoC4/Input_Capsense_Processing.c **** *
 238:Generated_Source\PSoC4/Input_Capsense_Processing.c **** * \brief
 239:Generated_Source\PSoC4/Input_Capsense_Processing.c **** *  Performs initialization of the CSX touchpad widget i.e. Resets the position data to NONE.
 240:Generated_Source\PSoC4/Input_Capsense_Processing.c **** *
 241:Generated_Source\PSoC4/Input_Capsense_Processing.c **** * \details
 242:Generated_Source\PSoC4/Input_Capsense_Processing.c **** *  The position data is always reset to the Input_Capsense_TOUCHPAD_POS_NONE value.
 243:Generated_Source\PSoC4/Input_Capsense_Processing.c **** *
 244:Generated_Source\PSoC4/Input_Capsense_Processing.c **** *******************************************************************************/
 245:Generated_Source\PSoC4/Input_Capsense_Processing.c **** static CY_INLINE void Input_Capsense_DpInitCsxTouchpad(Input_Capsense_FLASH_WD_STRUCT const * ptrFl
 246:Generated_Source\PSoC4/Input_Capsense_Processing.c **** {
 247:Generated_Source\PSoC4/Input_Capsense_Processing.c ****     Input_Capsense_RAM_WD_CSX_TOUCHPAD_STRUCT *ptrWdTouchpad;
 248:Generated_Source\PSoC4/Input_Capsense_Processing.c **** 
 249:Generated_Source\PSoC4/Input_Capsense_Processing.c ****     #if (0u != Input_Capsense_POSITION_FILTER_EN)
 250:Generated_Source\PSoC4/Input_Capsense_Processing.c ****         uint32 touchIndex;
 251:Generated_Source\PSoC4/Input_Capsense_Processing.c ****         Input_Capsense_TOUCHPAD_POS_HISTORY_STRUCT *ptrHistory;
 252:Generated_Source\PSoC4/Input_Capsense_Processing.c ****     #endif  /* #if (0u != Input_Capsense_POSITION_FILTER_EN) */
 253:Generated_Source\PSoC4/Input_Capsense_Processing.c **** 
 254:Generated_Source\PSoC4/Input_Capsense_Processing.c ****     #if (0u != Input_Capsense_POS_ADAPTIVE_IIR_FILTER_EN)
 255:Generated_Source\PSoC4/Input_Capsense_Processing.c ****         ADAPTIVE_FILTER_CONTEXT_STRUCT adpContext;
 256:Generated_Source\PSoC4/Input_Capsense_Processing.c ****     #endif /* (0u != Input_Capsense_POS_ADAPTIVE_IIR_FILTER_EN) */
 257:Generated_Source\PSoC4/Input_Capsense_Processing.c **** 
 258:Generated_Source\PSoC4/Input_Capsense_Processing.c ****     ptrWdTouchpad = ptrFlashWdgt->ptr2WdgtRam;
ARM GAS  C:\Users\doita\AppData\Local\Temp\cc44fZpJ.s 			page 6


 259:Generated_Source\PSoC4/Input_Capsense_Processing.c **** 
 260:Generated_Source\PSoC4/Input_Capsense_Processing.c ****     #if (0u != Input_Capsense_POSITION_FILTER_EN)
 261:Generated_Source\PSoC4/Input_Capsense_Processing.c ****         ptrHistory = ptrFlashWdgt->ptr2PosHistory;
 262:Generated_Source\PSoC4/Input_Capsense_Processing.c ****     #endif /* (0u != Input_Capsense_POSITION_FILTER_EN) */
 263:Generated_Source\PSoC4/Input_Capsense_Processing.c **** 
 264:Generated_Source\PSoC4/Input_Capsense_Processing.c ****     /* Reset position data for finger */
 265:Generated_Source\PSoC4/Input_Capsense_Processing.c ****     ptrWdTouchpad->touch[0u].x = Input_Capsense_TOUCHPAD_POS_NONE;
 266:Generated_Source\PSoC4/Input_Capsense_Processing.c ****     ptrWdTouchpad->touch[0u].y = Input_Capsense_TOUCHPAD_POS_NONE;
 267:Generated_Source\PSoC4/Input_Capsense_Processing.c ****     ptrWdTouchpad->touch[0u].z = LO8(Input_Capsense_TOUCHPAD_POS_NONE);
 268:Generated_Source\PSoC4/Input_Capsense_Processing.c **** 
 269:Generated_Source\PSoC4/Input_Capsense_Processing.c ****     #if (Input_Capsense_CSX_MAX_FINGERS > 1u)
 270:Generated_Source\PSoC4/Input_Capsense_Processing.c ****         ptrWdTouchpad->touch[1u].x = Input_Capsense_TOUCHPAD_POS_NONE;
 271:Generated_Source\PSoC4/Input_Capsense_Processing.c ****         ptrWdTouchpad->touch[1u].y = Input_Capsense_TOUCHPAD_POS_NONE;
 272:Generated_Source\PSoC4/Input_Capsense_Processing.c ****         ptrWdTouchpad->touch[1u].z = LO8(Input_Capsense_TOUCHPAD_POS_NONE);
 273:Generated_Source\PSoC4/Input_Capsense_Processing.c ****     #endif /* #if (Input_Capsense_CSX_MAX_FINGERS > 1u) */
 274:Generated_Source\PSoC4/Input_Capsense_Processing.c **** 
 275:Generated_Source\PSoC4/Input_Capsense_Processing.c ****     #if (Input_Capsense_CSX_MAX_FINGERS > 2u)
 276:Generated_Source\PSoC4/Input_Capsense_Processing.c ****         ptrWdTouchpad->touch[2u].x = Input_Capsense_TOUCHPAD_POS_NONE;
 277:Generated_Source\PSoC4/Input_Capsense_Processing.c ****         ptrWdTouchpad->touch[2u].y = Input_Capsense_TOUCHPAD_POS_NONE;
 278:Generated_Source\PSoC4/Input_Capsense_Processing.c ****         ptrWdTouchpad->touch[2u].z = LO8(Input_Capsense_TOUCHPAD_POS_NONE);
 279:Generated_Source\PSoC4/Input_Capsense_Processing.c ****     #endif /* #if (Input_Capsense_CSX_MAX_FINGERS > 2u) */
 280:Generated_Source\PSoC4/Input_Capsense_Processing.c **** 
 281:Generated_Source\PSoC4/Input_Capsense_Processing.c ****     #if (0u != Input_Capsense_POSITION_FILTER_EN)
 282:Generated_Source\PSoC4/Input_Capsense_Processing.c ****         for (touchIndex = 0u; touchIndex < Input_Capsense_CSX_MAX_FINGERS; touchIndex++)
 283:Generated_Source\PSoC4/Input_Capsense_Processing.c ****         {
 284:Generated_Source\PSoC4/Input_Capsense_Processing.c ****             if (NULL != ptrHistory)
 285:Generated_Source\PSoC4/Input_Capsense_Processing.c ****             {
 286:Generated_Source\PSoC4/Input_Capsense_Processing.c ****                 /* Clear position filter history data if available */
 287:Generated_Source\PSoC4/Input_Capsense_Processing.c ****                 Input_Capsense_InitPosFiltersDd(&ptrHistory[touchIndex], Input_Capsense_TOUCHPAD_PO
 288:Generated_Source\PSoC4/Input_Capsense_Processing.c ****                 #if (0u != Input_Capsense_POS_ADAPTIVE_IIR_FILTER_EN)
 289:Generated_Source\PSoC4/Input_Capsense_Processing.c ****                     AdaptiveFilter_Initialize(&ptrWdTouchpad->aiirConfig, &adpContext);
 290:Generated_Source\PSoC4/Input_Capsense_Processing.c ****                     ptrHistory[touchIndex].xPos.posAIIRCoeff = adpContext.coefficient;
 291:Generated_Source\PSoC4/Input_Capsense_Processing.c ****                     ptrHistory[touchIndex].yPos.posAIIRCoeff = adpContext.coefficient;
 292:Generated_Source\PSoC4/Input_Capsense_Processing.c ****                 #endif /* (0u != Input_Capsense_POS_ADAPTIVE_IIR_FILTER_EN) */
 293:Generated_Source\PSoC4/Input_Capsense_Processing.c ****             }
 294:Generated_Source\PSoC4/Input_Capsense_Processing.c ****         }
 295:Generated_Source\PSoC4/Input_Capsense_Processing.c ****     #endif /* (0u != Input_Capsense_POSITION_FILTER_EN) */
 296:Generated_Source\PSoC4/Input_Capsense_Processing.c **** }
 297:Generated_Source\PSoC4/Input_Capsense_Processing.c **** #endif /* #if (0u != Input_Capsense_CSX_TOUCHPAD_WIDGET_EN) */
 298:Generated_Source\PSoC4/Input_Capsense_Processing.c **** 
 299:Generated_Source\PSoC4/Input_Capsense_Processing.c **** #if (0u != Input_Capsense_SLIDER_WIDGET_EN)
 300:Generated_Source\PSoC4/Input_Capsense_Processing.c **** /*******************************************************************************
 301:Generated_Source\PSoC4/Input_Capsense_Processing.c **** * Function Name: Input_Capsense_DpInitSlider
 302:Generated_Source\PSoC4/Input_Capsense_Processing.c **** ****************************************************************************//**
 303:Generated_Source\PSoC4/Input_Capsense_Processing.c **** *
 304:Generated_Source\PSoC4/Input_Capsense_Processing.c **** * \brief
 305:Generated_Source\PSoC4/Input_Capsense_Processing.c **** *  Performs initialization of the Radial and Linear Slider widget.
 306:Generated_Source\PSoC4/Input_Capsense_Processing.c **** *   - Resets the position data to NONE
 307:Generated_Source\PSoC4/Input_Capsense_Processing.c **** *   - Initializes the position filter history to NONE if enabled.
 308:Generated_Source\PSoC4/Input_Capsense_Processing.c **** *
 309:Generated_Source\PSoC4/Input_Capsense_Processing.c **** * \details
 310:Generated_Source\PSoC4/Input_Capsense_Processing.c **** *  Position data is always reset to the Input_Capsense_SLIDER_POS_NONE value.
 311:Generated_Source\PSoC4/Input_Capsense_Processing.c **** *  The same happens to the position filter history data if enabled.
 312:Generated_Source\PSoC4/Input_Capsense_Processing.c **** *
 313:Generated_Source\PSoC4/Input_Capsense_Processing.c **** *******************************************************************************/
 314:Generated_Source\PSoC4/Input_Capsense_Processing.c **** static CY_INLINE void Input_Capsense_DpInitSlider(Input_Capsense_FLASH_WD_STRUCT const * ptrFlashWd
 315:Generated_Source\PSoC4/Input_Capsense_Processing.c **** {
ARM GAS  C:\Users\doita\AppData\Local\Temp\cc44fZpJ.s 			page 7


 316:Generated_Source\PSoC4/Input_Capsense_Processing.c ****     uint32 idx;
 317:Generated_Source\PSoC4/Input_Capsense_Processing.c ****     Input_Capsense_RAM_WD_SLIDER_STRUCT *ptrWdSlider;
 318:Generated_Source\PSoC4/Input_Capsense_Processing.c **** 
 319:Generated_Source\PSoC4/Input_Capsense_Processing.c ****     #if (0u != Input_Capsense_POSITION_FILTER_EN)
 320:Generated_Source\PSoC4/Input_Capsense_Processing.c ****         Input_Capsense_SLIDER_POS_HISTORY_STRUCT *ptrHistory;
 321:Generated_Source\PSoC4/Input_Capsense_Processing.c ****     #endif /* #if (0u != Input_Capsense_POSITION_FILTER_EN) */
 322:Generated_Source\PSoC4/Input_Capsense_Processing.c **** 
 323:Generated_Source\PSoC4/Input_Capsense_Processing.c ****     #if (0u != Input_Capsense_POS_ADAPTIVE_IIR_FILTER_EN)
 324:Generated_Source\PSoC4/Input_Capsense_Processing.c ****         ADAPTIVE_FILTER_CONTEXT_STRUCT context;
 325:Generated_Source\PSoC4/Input_Capsense_Processing.c ****     #endif /* (0u != Input_Capsense_POS_ADAPTIVE_IIR_FILTER_EN) */
 326:Generated_Source\PSoC4/Input_Capsense_Processing.c **** 
 327:Generated_Source\PSoC4/Input_Capsense_Processing.c ****     ptrWdSlider = ptrFlashWdgt->ptr2WdgtRam;
 328:Generated_Source\PSoC4/Input_Capsense_Processing.c **** 
 329:Generated_Source\PSoC4/Input_Capsense_Processing.c ****     /* Reset slider position data to NONE */
 330:Generated_Source\PSoC4/Input_Capsense_Processing.c ****     for (idx = 0u; idx < Input_Capsense_NUM_CENTROIDS; idx++)
 331:Generated_Source\PSoC4/Input_Capsense_Processing.c ****     {
 332:Generated_Source\PSoC4/Input_Capsense_Processing.c ****         ptrWdSlider->position[idx] = Input_Capsense_SLIDER_POS_NONE;
 333:Generated_Source\PSoC4/Input_Capsense_Processing.c **** 
 334:Generated_Source\PSoC4/Input_Capsense_Processing.c ****         #if (0u != Input_Capsense_POSITION_FILTER_EN)
 335:Generated_Source\PSoC4/Input_Capsense_Processing.c ****             ptrHistory = ptrFlashWdgt->ptr2PosHistory;
 336:Generated_Source\PSoC4/Input_Capsense_Processing.c ****             if (NULL != ptrHistory)
 337:Generated_Source\PSoC4/Input_Capsense_Processing.c ****             {
 338:Generated_Source\PSoC4/Input_Capsense_Processing.c ****                 Input_Capsense_InitPosFiltersSd(&ptrHistory[idx], Input_Capsense_SLIDER_POS_NONE);
 339:Generated_Source\PSoC4/Input_Capsense_Processing.c ****                 #if (0u != Input_Capsense_POS_ADAPTIVE_IIR_FILTER_EN)
 340:Generated_Source\PSoC4/Input_Capsense_Processing.c ****                     AdaptiveFilter_Initialize(&ptrWdSlider->aiirConfig, &context);
 341:Generated_Source\PSoC4/Input_Capsense_Processing.c ****                     ptrHistory->posAIIRCoeff = context.coefficient;
 342:Generated_Source\PSoC4/Input_Capsense_Processing.c ****                 #endif /* (0u != Input_Capsense_POS_ADAPTIVE_IIR_FILTER_EN) */
 343:Generated_Source\PSoC4/Input_Capsense_Processing.c ****             }
 344:Generated_Source\PSoC4/Input_Capsense_Processing.c **** 
 345:Generated_Source\PSoC4/Input_Capsense_Processing.c ****         #endif /* #if (0u != Input_Capsense_POSITION_FILTER_EN) */
 346:Generated_Source\PSoC4/Input_Capsense_Processing.c ****     }
 347:Generated_Source\PSoC4/Input_Capsense_Processing.c **** }
 348:Generated_Source\PSoC4/Input_Capsense_Processing.c **** #endif /* #if (0u != Input_Capsense_SLIDER_WIDGET_EN) */
 349:Generated_Source\PSoC4/Input_Capsense_Processing.c **** 
 350:Generated_Source\PSoC4/Input_Capsense_Processing.c **** #if (0u != Input_Capsense_CSD_MATRIX_WIDGET_EN)
 351:Generated_Source\PSoC4/Input_Capsense_Processing.c **** /*******************************************************************************
 352:Generated_Source\PSoC4/Input_Capsense_Processing.c **** * Function Name: Input_Capsense_DpInitCsdMatrix
 353:Generated_Source\PSoC4/Input_Capsense_Processing.c **** ****************************************************************************//**
 354:Generated_Source\PSoC4/Input_Capsense_Processing.c **** *
 355:Generated_Source\PSoC4/Input_Capsense_Processing.c **** * \brief
 356:Generated_Source\PSoC4/Input_Capsense_Processing.c **** *  Performs initialization of the CSD Matrix Buttons widget.
 357:Generated_Source\PSoC4/Input_Capsense_Processing.c **** *   - Resets the active button position data to NONE.
 358:Generated_Source\PSoC4/Input_Capsense_Processing.c **** *
 359:Generated_Source\PSoC4/Input_Capsense_Processing.c **** * \details
 360:Generated_Source\PSoC4/Input_Capsense_Processing.c **** *  Position data is always reset to the Input_Capsense_MATRIX_POS_NONE value.
 361:Generated_Source\PSoC4/Input_Capsense_Processing.c **** *
 362:Generated_Source\PSoC4/Input_Capsense_Processing.c **** *******************************************************************************/
 363:Generated_Source\PSoC4/Input_Capsense_Processing.c **** static CY_INLINE void Input_Capsense_DpInitCsdMatrix(Input_Capsense_FLASH_WD_STRUCT const * ptrFlas
 364:Generated_Source\PSoC4/Input_Capsense_Processing.c **** {
 365:Generated_Source\PSoC4/Input_Capsense_Processing.c ****     Input_Capsense_RAM_WD_CSD_MATRIX_STRUCT *ptrRamWdgt;
 366:Generated_Source\PSoC4/Input_Capsense_Processing.c **** 
 367:Generated_Source\PSoC4/Input_Capsense_Processing.c ****     ptrRamWdgt = (Input_Capsense_RAM_WD_CSD_MATRIX_STRUCT *)ptrFlashWdgt->ptr2WdgtRam;
 368:Generated_Source\PSoC4/Input_Capsense_Processing.c **** 
 369:Generated_Source\PSoC4/Input_Capsense_Processing.c ****     /* Reset sensor id, row and col registers in data structure */
 370:Generated_Source\PSoC4/Input_Capsense_Processing.c ****     ptrRamWdgt->posRow   = Input_Capsense_MATRIX_POS_NONE;
 371:Generated_Source\PSoC4/Input_Capsense_Processing.c ****     ptrRamWdgt->posCol   = Input_Capsense_MATRIX_POS_NONE;
 372:Generated_Source\PSoC4/Input_Capsense_Processing.c ****     ptrRamWdgt->posSnsId = Input_Capsense_MATRIX_POS_NONE;
ARM GAS  C:\Users\doita\AppData\Local\Temp\cc44fZpJ.s 			page 8


 373:Generated_Source\PSoC4/Input_Capsense_Processing.c **** }
 374:Generated_Source\PSoC4/Input_Capsense_Processing.c **** #endif /* #if (0u != Input_Capsense_CSD_MATRIX_WIDGET_EN) */
 375:Generated_Source\PSoC4/Input_Capsense_Processing.c **** 
 376:Generated_Source\PSoC4/Input_Capsense_Processing.c **** /*******************************************************************************
 377:Generated_Source\PSoC4/Input_Capsense_Processing.c **** * Function Name: Input_Capsense_DpInitialize
 378:Generated_Source\PSoC4/Input_Capsense_Processing.c **** ****************************************************************************//**
 379:Generated_Source\PSoC4/Input_Capsense_Processing.c **** *
 380:Generated_Source\PSoC4/Input_Capsense_Processing.c **** * \brief
 381:Generated_Source\PSoC4/Input_Capsense_Processing.c **** *  Performs initialization of the data processing FW module:
 382:Generated_Source\PSoC4/Input_Capsense_Processing.c **** *   - Resets the de-bounce counters of all the widgets
 383:Generated_Source\PSoC4/Input_Capsense_Processing.c **** *   - Resets the position filter history for slider and touchpad widgets
 384:Generated_Source\PSoC4/Input_Capsense_Processing.c **** *   - Clears widget and sensor statuses
 385:Generated_Source\PSoC4/Input_Capsense_Processing.c **** *   - Enables all the widgets.
 386:Generated_Source\PSoC4/Input_Capsense_Processing.c **** *
 387:Generated_Source\PSoC4/Input_Capsense_Processing.c **** * \details
 388:Generated_Source\PSoC4/Input_Capsense_Processing.c **** *  The Button and Matrix Button widgets have individual de-bounce counter per
 389:Generated_Source\PSoC4/Input_Capsense_Processing.c **** *  sensor for the CSD widgets and per node for the CSX widgets.
 390:Generated_Source\PSoC4/Input_Capsense_Processing.c **** *
 391:Generated_Source\PSoC4/Input_Capsense_Processing.c **** *  The Slider and Touchpad widgets have a single de-bounce counter per widget.
 392:Generated_Source\PSoC4/Input_Capsense_Processing.c **** *
 393:Generated_Source\PSoC4/Input_Capsense_Processing.c **** *  The Proximity widget has two de-bounce counters per sensor. One for the
 394:Generated_Source\PSoC4/Input_Capsense_Processing.c **** *  proximity event and second for the touch event.
 395:Generated_Source\PSoC4/Input_Capsense_Processing.c **** *
 396:Generated_Source\PSoC4/Input_Capsense_Processing.c **** *  All debounce counters during initialization are set to the value of the
 397:Generated_Source\PSoC4/Input_Capsense_Processing.c **** *  onDebounce widget parameter.
 398:Generated_Source\PSoC4/Input_Capsense_Processing.c **** *
 399:Generated_Source\PSoC4/Input_Capsense_Processing.c **** *******************************************************************************/
 400:Generated_Source\PSoC4/Input_Capsense_Processing.c **** void Input_Capsense_DpInitialize(void)
 401:Generated_Source\PSoC4/Input_Capsense_Processing.c **** {
  28              		.loc 1 401 0
  29              		.cfi_startproc
  30              		@ args = 0, pretend = 0, frame = 0
  31              		@ frame_needed = 0, uses_anonymous_args = 0
  32 0000 70B5     		push	{r4, r5, r6, lr}
  33              		.cfi_def_cfa_offset 16
  34              		.cfi_offset 4, -16
  35              		.cfi_offset 5, -12
  36              		.cfi_offset 6, -8
  37              		.cfi_offset 14, -4
  38              	.LVL0:
 402:Generated_Source\PSoC4/Input_Capsense_Processing.c ****     uint32 wdgtId;
 403:Generated_Source\PSoC4/Input_Capsense_Processing.c ****     Input_Capsense_WD_TYPE_ENUM widgetType;
 404:Generated_Source\PSoC4/Input_Capsense_Processing.c ****     Input_Capsense_RAM_WD_BASE_STRUCT * ptrRamWdgt;
 405:Generated_Source\PSoC4/Input_Capsense_Processing.c ****     Input_Capsense_FLASH_WD_STRUCT const * ptrFlashWdgt;
 406:Generated_Source\PSoC4/Input_Capsense_Processing.c **** 
 407:Generated_Source\PSoC4/Input_Capsense_Processing.c ****     for (wdgtId = 0u; wdgtId < Input_Capsense_WDGT_STATUS_WORDS; wdgtId++)
  39              		.loc 1 407 0
  40 0002 0023     		movs	r3, #0
  41 0004 09E0     		b	.L2
  42              	.LVL1:
  43              	.L3:
 408:Generated_Source\PSoC4/Input_Capsense_Processing.c ****     {
 409:Generated_Source\PSoC4/Input_Capsense_Processing.c ****         /* Clear widget status */
 410:Generated_Source\PSoC4/Input_Capsense_Processing.c ****         Input_Capsense_dsRam.wdgtStatus[wdgtId] = 0u;
  44              		.loc 1 410 0 discriminator 3
  45 0006 1249     		ldr	r1, .L8
  46 0008 1A1D     		adds	r2, r3, #4
ARM GAS  C:\Users\doita\AppData\Local\Temp\cc44fZpJ.s 			page 9


  47 000a 9200     		lsls	r2, r2, #2
  48 000c 8818     		adds	r0, r1, r2
  49 000e 0024     		movs	r4, #0
  50 0010 4460     		str	r4, [r0, #4]
 411:Generated_Source\PSoC4/Input_Capsense_Processing.c **** 
 412:Generated_Source\PSoC4/Input_Capsense_Processing.c ****         /* Enable all the widgets */
 413:Generated_Source\PSoC4/Input_Capsense_Processing.c ****         Input_Capsense_dsRam.wdgtEnable[wdgtId] = 0xFFFFFFFFLu;
  51              		.loc 1 413 0 discriminator 3
  52 0012 0120     		movs	r0, #1
  53 0014 4042     		rsbs	r0, r0, #0
  54 0016 5050     		str	r0, [r2, r1]
 407:Generated_Source\PSoC4/Input_Capsense_Processing.c ****     {
  55              		.loc 1 407 0 discriminator 3
  56 0018 0133     		adds	r3, r3, #1
  57              	.LVL2:
  58              	.L2:
 407:Generated_Source\PSoC4/Input_Capsense_Processing.c ****     {
  59              		.loc 1 407 0 is_stmt 0 discriminator 1
  60 001a 002B     		cmp	r3, #0
  61 001c F3D0     		beq	.L3
  62 001e 0D4C     		ldr	r4, .L8+4
  63 0020 0D23     		movs	r3, #13
  64              	.LVL3:
  65 0022 10E0     		b	.L4
  66              	.LVL4:
  67              	.L7:
 414:Generated_Source\PSoC4/Input_Capsense_Processing.c **** 
 415:Generated_Source\PSoC4/Input_Capsense_Processing.c ****         /* Set all the widgets to working state if the Self-Test is not enabled */
 416:Generated_Source\PSoC4/Input_Capsense_Processing.c ****         #if (0u != Input_Capsense_SELF_TEST_EN)
 417:Generated_Source\PSoC4/Input_Capsense_Processing.c ****             Input_Capsense_dsRam.wdgtWorking[wdgtId] = 0xFFFFFFFFLu;
 418:Generated_Source\PSoC4/Input_Capsense_Processing.c ****         #endif /* #if (0u == Input_Capsense_SELF_TEST_EN) */
 419:Generated_Source\PSoC4/Input_Capsense_Processing.c ****     }
 420:Generated_Source\PSoC4/Input_Capsense_Processing.c **** 
 421:Generated_Source\PSoC4/Input_Capsense_Processing.c ****     ptrFlashWdgt = Input_Capsense_dsFlash.wdgtArray;
 422:Generated_Source\PSoC4/Input_Capsense_Processing.c **** 
 423:Generated_Source\PSoC4/Input_Capsense_Processing.c ****     for (wdgtId = Input_Capsense_TOTAL_WIDGETS; wdgtId-- > 0u; )
 424:Generated_Source\PSoC4/Input_Capsense_Processing.c ****     {
 425:Generated_Source\PSoC4/Input_Capsense_Processing.c ****         ptrRamWdgt = (Input_Capsense_RAM_WD_BASE_STRUCT *)ptrFlashWdgt->ptr2WdgtRam;
  68              		.loc 1 425 0 is_stmt 1
  69 0024 6668     		ldr	r6, [r4, #4]
  70              	.LVL5:
 426:Generated_Source\PSoC4/Input_Capsense_Processing.c ****         widgetType = (Input_Capsense_WD_TYPE_ENUM)ptrFlashWdgt->wdgtType;
  71              		.loc 1 426 0
  72 0026 A27E     		ldrb	r2, [r4, #26]
  73              	.LVL6:
 427:Generated_Source\PSoC4/Input_Capsense_Processing.c **** 
 428:Generated_Source\PSoC4/Input_Capsense_Processing.c ****         /* Clear all sensor statuses */
 429:Generated_Source\PSoC4/Input_Capsense_Processing.c ****         Input_Capsense_dsRam.snsStatus[wdgtId] = 0u;
  74              		.loc 1 429 0
  75 0028 094B     		ldr	r3, .L8
  76 002a 5B19     		adds	r3, r3, r5
  77 002c 0021     		movs	r1, #0
  78 002e 1976     		strb	r1, [r3, #24]
 430:Generated_Source\PSoC4/Input_Capsense_Processing.c **** 
 431:Generated_Source\PSoC4/Input_Capsense_Processing.c ****         /* Reset de-bounce counters */
 432:Generated_Source\PSoC4/Input_Capsense_Processing.c ****         switch (widgetType)
  79              		.loc 1 432 0
ARM GAS  C:\Users\doita\AppData\Local\Temp\cc44fZpJ.s 			page 10


  80 0030 012A     		cmp	r2, #1
  81 0032 06D1     		bne	.L5
 433:Generated_Source\PSoC4/Input_Capsense_Processing.c ****         {
 434:Generated_Source\PSoC4/Input_Capsense_Processing.c ****         #if (0u != Input_Capsense_MATRIX_WIDGET_EN)
 435:Generated_Source\PSoC4/Input_Capsense_Processing.c ****             case Input_Capsense_WD_MATRIX_BUTTON_E:
 436:Generated_Source\PSoC4/Input_Capsense_Processing.c ****                 #if (0u != Input_Capsense_CSD_MATRIX_WIDGET_EN)
 437:Generated_Source\PSoC4/Input_Capsense_Processing.c ****                     if (Input_Capsense_SENSE_METHOD_CSD_E == Input_Capsense_GET_SENSE_METHOD(ptrFla
 438:Generated_Source\PSoC4/Input_Capsense_Processing.c ****                     {
 439:Generated_Source\PSoC4/Input_Capsense_Processing.c ****                         Input_Capsense_DpInitCsdMatrix(ptrFlashWdgt);
 440:Generated_Source\PSoC4/Input_Capsense_Processing.c ****                     }
 441:Generated_Source\PSoC4/Input_Capsense_Processing.c ****                 #endif /* #if (0u != Input_Capsense_CSD_MATRIX_WIDGET_EN) */
 442:Generated_Source\PSoC4/Input_Capsense_Processing.c **** 
 443:Generated_Source\PSoC4/Input_Capsense_Processing.c ****                 if (NULL != ptrFlashWdgt->ptr2DebounceArr)
 444:Generated_Source\PSoC4/Input_Capsense_Processing.c ****                 {
 445:Generated_Source\PSoC4/Input_Capsense_Processing.c ****                     /* Initialize array of debounce counters */
 446:Generated_Source\PSoC4/Input_Capsense_Processing.c ****                     (void)memset(ptrFlashWdgt->ptr2DebounceArr,
 447:Generated_Source\PSoC4/Input_Capsense_Processing.c ****                                  (int32)ptrRamWdgt->onDebounce,
 448:Generated_Source\PSoC4/Input_Capsense_Processing.c ****                                  (size_t)ptrFlashWdgt->totalNumSns);
 449:Generated_Source\PSoC4/Input_Capsense_Processing.c ****                 }
 450:Generated_Source\PSoC4/Input_Capsense_Processing.c ****                 break;
 451:Generated_Source\PSoC4/Input_Capsense_Processing.c ****         #endif /* #if (0u != Input_Capsense_MATRIX_WIDGET_EN) */
 452:Generated_Source\PSoC4/Input_Capsense_Processing.c **** 
 453:Generated_Source\PSoC4/Input_Capsense_Processing.c ****         #if (0u != Input_Capsense_BUTTON_WIDGET_EN)
 454:Generated_Source\PSoC4/Input_Capsense_Processing.c ****             case Input_Capsense_WD_BUTTON_E:
 455:Generated_Source\PSoC4/Input_Capsense_Processing.c ****                 if (NULL != ptrFlashWdgt->ptr2DebounceArr)
  82              		.loc 1 455 0
  83 0034 2069     		ldr	r0, [r4, #16]
  84 0036 0028     		cmp	r0, #0
  85 0038 03D0     		beq	.L5
 456:Generated_Source\PSoC4/Input_Capsense_Processing.c ****                 {
 457:Generated_Source\PSoC4/Input_Capsense_Processing.c ****                     /* Initialize array of debounce counters */
 458:Generated_Source\PSoC4/Input_Capsense_Processing.c ****                     (void)memset(ptrFlashWdgt->ptr2DebounceArr,
 459:Generated_Source\PSoC4/Input_Capsense_Processing.c ****                                  (int32)ptrRamWdgt->onDebounce,
  86              		.loc 1 459 0
  87 003a F179     		ldrb	r1, [r6, #7]
 460:Generated_Source\PSoC4/Input_Capsense_Processing.c ****                                  (size_t)ptrFlashWdgt->totalNumSns);
  88              		.loc 1 460 0
  89 003c 228B     		ldrh	r2, [r4, #24]
  90              	.LVL7:
 458:Generated_Source\PSoC4/Input_Capsense_Processing.c ****                                  (int32)ptrRamWdgt->onDebounce,
  91              		.loc 1 458 0
  92 003e FFF7FEFF 		bl	memset
  93              	.LVL8:
  94              	.L5:
 461:Generated_Source\PSoC4/Input_Capsense_Processing.c ****                 }
 462:Generated_Source\PSoC4/Input_Capsense_Processing.c ****                 break;
 463:Generated_Source\PSoC4/Input_Capsense_Processing.c ****         #endif /* #if (0u != Input_Capsense_BUTTON_WIDGET_EN) */
 464:Generated_Source\PSoC4/Input_Capsense_Processing.c **** 
 465:Generated_Source\PSoC4/Input_Capsense_Processing.c ****         #if (0u != Input_Capsense_SLIDER_WIDGET_EN)
 466:Generated_Source\PSoC4/Input_Capsense_Processing.c ****             case Input_Capsense_WD_LINEAR_SLIDER_E:
 467:Generated_Source\PSoC4/Input_Capsense_Processing.c ****             case Input_Capsense_WD_RADIAL_SLIDER_E:
 468:Generated_Source\PSoC4/Input_Capsense_Processing.c ****                 if (NULL != ptrFlashWdgt->ptr2DebounceArr)
 469:Generated_Source\PSoC4/Input_Capsense_Processing.c ****                 {
 470:Generated_Source\PSoC4/Input_Capsense_Processing.c ****                     /* Initialize single debounce counter of slider */
 471:Generated_Source\PSoC4/Input_Capsense_Processing.c ****                     *(uint8 *)(ptrFlashWdgt->ptr2DebounceArr) = ptrRamWdgt->onDebounce;
 472:Generated_Source\PSoC4/Input_Capsense_Processing.c ****                 }
 473:Generated_Source\PSoC4/Input_Capsense_Processing.c **** 
ARM GAS  C:\Users\doita\AppData\Local\Temp\cc44fZpJ.s 			page 11


 474:Generated_Source\PSoC4/Input_Capsense_Processing.c ****                 Input_Capsense_DpInitSlider(ptrFlashWdgt);
 475:Generated_Source\PSoC4/Input_Capsense_Processing.c **** 
 476:Generated_Source\PSoC4/Input_Capsense_Processing.c ****                 break;
 477:Generated_Source\PSoC4/Input_Capsense_Processing.c ****         #endif /* #if (0u != Input_Capsense_SLIDER_WIDGET_EN) */
 478:Generated_Source\PSoC4/Input_Capsense_Processing.c **** 
 479:Generated_Source\PSoC4/Input_Capsense_Processing.c ****         #if (0u != Input_Capsense_TOUCHPAD_WIDGET_EN)
 480:Generated_Source\PSoC4/Input_Capsense_Processing.c ****             case Input_Capsense_WD_TOUCHPAD_E:
 481:Generated_Source\PSoC4/Input_Capsense_Processing.c ****                 if (NULL != ptrFlashWdgt->ptr2DebounceArr)
 482:Generated_Source\PSoC4/Input_Capsense_Processing.c ****                 {
 483:Generated_Source\PSoC4/Input_Capsense_Processing.c ****                     /* Initialize single debounce counter of touchpad */
 484:Generated_Source\PSoC4/Input_Capsense_Processing.c ****                     *(uint8 *)(ptrFlashWdgt->ptr2DebounceArr) = ptrRamWdgt->onDebounce;
 485:Generated_Source\PSoC4/Input_Capsense_Processing.c ****                 }
 486:Generated_Source\PSoC4/Input_Capsense_Processing.c **** 
 487:Generated_Source\PSoC4/Input_Capsense_Processing.c ****                 #if (0u != Input_Capsense_CSD_TOUCHPAD_WIDGET_EN)
 488:Generated_Source\PSoC4/Input_Capsense_Processing.c ****                     if (Input_Capsense_SENSE_METHOD_CSD_E == Input_Capsense_GET_SENSE_METHOD(ptrFla
 489:Generated_Source\PSoC4/Input_Capsense_Processing.c ****                     {
 490:Generated_Source\PSoC4/Input_Capsense_Processing.c ****                         Input_Capsense_DpInitCsdTouchpad(ptrFlashWdgt);
 491:Generated_Source\PSoC4/Input_Capsense_Processing.c ****                     }
 492:Generated_Source\PSoC4/Input_Capsense_Processing.c ****                 #endif /* #if (0u != Input_Capsense_CSD_TOUCHPAD_WIDGET_EN) */
 493:Generated_Source\PSoC4/Input_Capsense_Processing.c **** 
 494:Generated_Source\PSoC4/Input_Capsense_Processing.c ****                 #if (0u != Input_Capsense_CSX_TOUCHPAD_WIDGET_EN)
 495:Generated_Source\PSoC4/Input_Capsense_Processing.c ****                     if (Input_Capsense_SENSE_METHOD_CSX_E == Input_Capsense_GET_SENSE_METHOD(ptrFla
 496:Generated_Source\PSoC4/Input_Capsense_Processing.c ****                     {
 497:Generated_Source\PSoC4/Input_Capsense_Processing.c ****                         Input_Capsense_DpInitCsxTouchpad(ptrFlashWdgt);
 498:Generated_Source\PSoC4/Input_Capsense_Processing.c ****                     }
 499:Generated_Source\PSoC4/Input_Capsense_Processing.c ****                 #endif /* #if (0u != Input_Capsense_CSX_TOUCHPAD_WIDGET_EN) */
 500:Generated_Source\PSoC4/Input_Capsense_Processing.c **** 
 501:Generated_Source\PSoC4/Input_Capsense_Processing.c ****                 break;
 502:Generated_Source\PSoC4/Input_Capsense_Processing.c ****         #endif /* #if (0u != Input_Capsense_TOUCHPAD_WIDGET_EN) */
 503:Generated_Source\PSoC4/Input_Capsense_Processing.c **** 
 504:Generated_Source\PSoC4/Input_Capsense_Processing.c ****         #if (0u != Input_Capsense_PROXIMITY_WIDGET_EN)
 505:Generated_Source\PSoC4/Input_Capsense_Processing.c ****             case Input_Capsense_WD_PROXIMITY_E:
 506:Generated_Source\PSoC4/Input_Capsense_Processing.c ****                 if (NULL != ptrFlashWdgt->ptr2DebounceArr)
 507:Generated_Source\PSoC4/Input_Capsense_Processing.c ****                 {
 508:Generated_Source\PSoC4/Input_Capsense_Processing.c ****                     /* Proximity widgets have 2 de-bounce counters per sensor.
 509:Generated_Source\PSoC4/Input_Capsense_Processing.c ****                      * Therefore the number of sensors is multiplied by 2.
 510:Generated_Source\PSoC4/Input_Capsense_Processing.c ****                      */
 511:Generated_Source\PSoC4/Input_Capsense_Processing.c ****                    (void)memset(ptrFlashWdgt->ptr2DebounceArr,
 512:Generated_Source\PSoC4/Input_Capsense_Processing.c ****                                 (int32)ptrRamWdgt->onDebounce,
 513:Generated_Source\PSoC4/Input_Capsense_Processing.c ****                                 (size_t)ptrFlashWdgt->totalNumSns * 2u);
 514:Generated_Source\PSoC4/Input_Capsense_Processing.c ****                 }
 515:Generated_Source\PSoC4/Input_Capsense_Processing.c ****                 break;
 516:Generated_Source\PSoC4/Input_Capsense_Processing.c ****         #endif /* #if (0u != Input_Capsense_PROXIMITY_WIDGET_EN) */
 517:Generated_Source\PSoC4/Input_Capsense_Processing.c **** 
 518:Generated_Source\PSoC4/Input_Capsense_Processing.c ****         #if (0u != Input_Capsense_ENCODERDIAL_WIDGET_EN)
 519:Generated_Source\PSoC4/Input_Capsense_Processing.c ****             case Input_Capsense_WD_ENCODERDIAL_E:
 520:Generated_Source\PSoC4/Input_Capsense_Processing.c ****                 if (NULL != ptrFlashWdgt->ptr2DebounceArr)
 521:Generated_Source\PSoC4/Input_Capsense_Processing.c ****                 {
 522:Generated_Source\PSoC4/Input_Capsense_Processing.c ****                     /* Proximity widgets have 2 de-bounce counters per sensor.
 523:Generated_Source\PSoC4/Input_Capsense_Processing.c ****                      * Therefore the number of sensors is multiplied by 2.
 524:Generated_Source\PSoC4/Input_Capsense_Processing.c ****                      */
 525:Generated_Source\PSoC4/Input_Capsense_Processing.c ****                    (void)memset(ptrFlashWdgt->ptr2DebounceArr,
 526:Generated_Source\PSoC4/Input_Capsense_Processing.c ****                                 (int32)ptrRamWdgt->onDebounce,
 527:Generated_Source\PSoC4/Input_Capsense_Processing.c ****                                 (size_t)ptrFlashWdgt->totalNumSns);
 528:Generated_Source\PSoC4/Input_Capsense_Processing.c ****                 }
 529:Generated_Source\PSoC4/Input_Capsense_Processing.c ****                 break;
 530:Generated_Source\PSoC4/Input_Capsense_Processing.c ****         #endif /* (0u != Input_Capsense_ENCODERDIAL_WIDGET_EN) */
ARM GAS  C:\Users\doita\AppData\Local\Temp\cc44fZpJ.s 			page 12


 531:Generated_Source\PSoC4/Input_Capsense_Processing.c ****             default:
 532:Generated_Source\PSoC4/Input_Capsense_Processing.c ****                 break;
 533:Generated_Source\PSoC4/Input_Capsense_Processing.c ****         }
 534:Generated_Source\PSoC4/Input_Capsense_Processing.c **** 
 535:Generated_Source\PSoC4/Input_Capsense_Processing.c ****         /* Move to next widget */
 536:Generated_Source\PSoC4/Input_Capsense_Processing.c ****         ptrFlashWdgt++;
  95              		.loc 1 536 0
  96 0042 2034     		adds	r4, r4, #32
  97              	.LVL9:
 423:Generated_Source\PSoC4/Input_Capsense_Processing.c ****     {
  98              		.loc 1 423 0
  99 0044 2B00     		movs	r3, r5
 100              	.LVL10:
 101              	.L4:
 423:Generated_Source\PSoC4/Input_Capsense_Processing.c ****     {
 102              		.loc 1 423 0 is_stmt 0 discriminator 1
 103 0046 5D1E     		subs	r5, r3, #1
 104              	.LVL11:
 105 0048 002B     		cmp	r3, #0
 106 004a EBD1     		bne	.L7
 537:Generated_Source\PSoC4/Input_Capsense_Processing.c ****     }
 538:Generated_Source\PSoC4/Input_Capsense_Processing.c **** }
 107              		.loc 1 538 0 is_stmt 1
 108              		@ sp needed
 109              	.LVL12:
 110              	.LVL13:
 111 004c 70BD     		pop	{r4, r5, r6, pc}
 112              	.L9:
 113 004e C046     		.align	2
 114              	.L8:
 115 0050 00000000 		.word	Input_Capsense_dsRam
 116 0054 00000000 		.word	Input_Capsense_dsFlash
 117              		.cfi_endproc
 118              	.LFE1:
 119              		.size	Input_Capsense_DpInitialize, .-Input_Capsense_DpInitialize
 120              		.section	.text.Input_Capsense_DpUpdateThresholds,"ax",%progbits
 121              		.align	2
 122              		.global	Input_Capsense_DpUpdateThresholds
 123              		.code	16
 124              		.thumb_func
 125              		.type	Input_Capsense_DpUpdateThresholds, %function
 126              	Input_Capsense_DpUpdateThresholds:
 127              	.LFB5:
 539:Generated_Source\PSoC4/Input_Capsense_Processing.c **** 
 540:Generated_Source\PSoC4/Input_Capsense_Processing.c **** #if (0u != Input_Capsense_TOTAL_CSX_WIDGETS)
 541:Generated_Source\PSoC4/Input_Capsense_Processing.c **** /*******************************************************************************
 542:Generated_Source\PSoC4/Input_Capsense_Processing.c **** * Function Name: Input_Capsense_DpProcessCsxWidgetRawCounts
 543:Generated_Source\PSoC4/Input_Capsense_Processing.c **** ****************************************************************************//**
 544:Generated_Source\PSoC4/Input_Capsense_Processing.c **** *
 545:Generated_Source\PSoC4/Input_Capsense_Processing.c **** * \brief
 546:Generated_Source\PSoC4/Input_Capsense_Processing.c **** *  Performs default processing of the CSX raw counts.
 547:Generated_Source\PSoC4/Input_Capsense_Processing.c **** *
 548:Generated_Source\PSoC4/Input_Capsense_Processing.c **** * \details
 549:Generated_Source\PSoC4/Input_Capsense_Processing.c **** *  Performs default processing of the CSX raw counts:
 550:Generated_Source\PSoC4/Input_Capsense_Processing.c **** *   - Run Filters
 551:Generated_Source\PSoC4/Input_Capsense_Processing.c **** *   - Update Baselines
 552:Generated_Source\PSoC4/Input_Capsense_Processing.c **** *   - Update Differences
ARM GAS  C:\Users\doita\AppData\Local\Temp\cc44fZpJ.s 			page 13


 553:Generated_Source\PSoC4/Input_Capsense_Processing.c **** *   - Update Status.
 554:Generated_Source\PSoC4/Input_Capsense_Processing.c **** *  The same process is applied to all the sensors of the specified widget.
 555:Generated_Source\PSoC4/Input_Capsense_Processing.c **** *
 556:Generated_Source\PSoC4/Input_Capsense_Processing.c **** * \param ptrFlashWdgt The pointer to the Flash widget structure.
 557:Generated_Source\PSoC4/Input_Capsense_Processing.c **** *
 558:Generated_Source\PSoC4/Input_Capsense_Processing.c **** * \return
 559:Generated_Source\PSoC4/Input_Capsense_Processing.c **** *  Returns the status of the specified widget processing operation:
 560:Generated_Source\PSoC4/Input_Capsense_Processing.c **** *  - CYRET_SUCCESS if operation was successfully completed;
 561:Generated_Source\PSoC4/Input_Capsense_Processing.c **** *  - Input_Capsense_PROCESS_BASELINE_FAILED if baseline processing of any
 562:Generated_Source\PSoC4/Input_Capsense_Processing.c **** *    sensor of the specified widget failed. The result is concatenated with the index
 563:Generated_Source\PSoC4/Input_Capsense_Processing.c **** *    of failed sensor.
 564:Generated_Source\PSoC4/Input_Capsense_Processing.c **** *
 565:Generated_Source\PSoC4/Input_Capsense_Processing.c **** *******************************************************************************/
 566:Generated_Source\PSoC4/Input_Capsense_Processing.c **** uint32 Input_Capsense_DpProcessCsxWidgetRawCounts(Input_Capsense_FLASH_WD_STRUCT const *ptrFlashWdg
 567:Generated_Source\PSoC4/Input_Capsense_Processing.c **** {
 568:Generated_Source\PSoC4/Input_Capsense_Processing.c ****     uint32 result = CYRET_SUCCESS;
 569:Generated_Source\PSoC4/Input_Capsense_Processing.c ****     uint32 widgetType;
 570:Generated_Source\PSoC4/Input_Capsense_Processing.c ****     uint32 snsCount;
 571:Generated_Source\PSoC4/Input_Capsense_Processing.c ****     Input_Capsense_RAM_SNS_STRUCT *ptrSnsTmp;
 572:Generated_Source\PSoC4/Input_Capsense_Processing.c ****     Input_Capsense_RAM_WD_BASE_STRUCT *ptrRamWdgt;
 573:Generated_Source\PSoC4/Input_Capsense_Processing.c **** 
 574:Generated_Source\PSoC4/Input_Capsense_Processing.c ****     #if (Input_Capsense_ENABLE == Input_Capsense_RC_FILTER_EN)
 575:Generated_Source\PSoC4/Input_Capsense_Processing.c ****         Input_Capsense_PTR_FILTER_VARIANT fltrHistV;
 576:Generated_Source\PSoC4/Input_Capsense_Processing.c **** 
 577:Generated_Source\PSoC4/Input_Capsense_Processing.c ****         fltrHistV.ptr = ptrFlashWdgt->ptr2FltrHistory;
 578:Generated_Source\PSoC4/Input_Capsense_Processing.c ****     #endif /* #if (Input_Capsense_ENABLE == Input_Capsense_RC_FILTER_EN) */
 579:Generated_Source\PSoC4/Input_Capsense_Processing.c **** 
 580:Generated_Source\PSoC4/Input_Capsense_Processing.c ****     ptrSnsTmp = ptrFlashWdgt->ptr2SnsRam;
 581:Generated_Source\PSoC4/Input_Capsense_Processing.c ****     snsCount = ptrFlashWdgt->totalNumSns;
 582:Generated_Source\PSoC4/Input_Capsense_Processing.c ****     ptrRamWdgt = (Input_Capsense_RAM_WD_BASE_STRUCT *)ptrFlashWdgt->ptr2WdgtRam;
 583:Generated_Source\PSoC4/Input_Capsense_Processing.c ****     widgetType = ptrFlashWdgt->wdgtType;
 584:Generated_Source\PSoC4/Input_Capsense_Processing.c **** 
 585:Generated_Source\PSoC4/Input_Capsense_Processing.c ****     /* Run deconvolution algorithm for the widgets with multiphase TX support */
 586:Generated_Source\PSoC4/Input_Capsense_Processing.c ****     #if (0u != Input_Capsense_CSX_MULTIPHASE_TX_EN)
 587:Generated_Source\PSoC4/Input_Capsense_Processing.c ****         if (0u != (ptrFlashWdgt->staticConfig & Input_Capsense_MULTIPHASE_TX_MASK))
 588:Generated_Source\PSoC4/Input_Capsense_Processing.c ****         {
 589:Generated_Source\PSoC4/Input_Capsense_Processing.c ****             Input_Capsense_DpDeconvolution(ptrFlashWdgt);
 590:Generated_Source\PSoC4/Input_Capsense_Processing.c ****         }
 591:Generated_Source\PSoC4/Input_Capsense_Processing.c ****     #endif  /* #if (0u != Input_Capsense_CSX_MULTIPHASE_TX_EN) */
 592:Generated_Source\PSoC4/Input_Capsense_Processing.c **** 
 593:Generated_Source\PSoC4/Input_Capsense_Processing.c ****     for (;snsCount-- > 0u;)
 594:Generated_Source\PSoC4/Input_Capsense_Processing.c ****     {
 595:Generated_Source\PSoC4/Input_Capsense_Processing.c ****         #if (Input_Capsense_ENABLE == Input_Capsense_RC_FILTER_EN)
 596:Generated_Source\PSoC4/Input_Capsense_Processing.c ****             Input_Capsense_FtRunEnabledFiltersInternal(fltrHistV, ptrSnsTmp, widgetType);
 597:Generated_Source\PSoC4/Input_Capsense_Processing.c ****             #if (Input_Capsense_ALP_FILTER_EN)
 598:Generated_Source\PSoC4/Input_Capsense_Processing.c ****                 Input_Capsense_ConfigRunALPInternal(fltrHistV, ptrRamWdgt, ptrSnsTmp, widgetType);
 599:Generated_Source\PSoC4/Input_Capsense_Processing.c ****             #endif
 600:Generated_Source\PSoC4/Input_Capsense_Processing.c ****         #endif /* #if (Input_Capsense_ENABLE == Input_Capsense_RC_FILTER_EN) */
 601:Generated_Source\PSoC4/Input_Capsense_Processing.c **** 
 602:Generated_Source\PSoC4/Input_Capsense_Processing.c ****         result = Input_Capsense_FtUpdateBaseline(ptrRamWdgt, ptrSnsTmp, widgetType);
 603:Generated_Source\PSoC4/Input_Capsense_Processing.c **** 
 604:Generated_Source\PSoC4/Input_Capsense_Processing.c ****         #if (Input_Capsense_ENABLE == Input_Capsense_TST_BSLN_DUPLICATION_EN)
 605:Generated_Source\PSoC4/Input_Capsense_Processing.c ****             if (CYRET_SUCCESS != result)
 606:Generated_Source\PSoC4/Input_Capsense_Processing.c ****             {
 607:Generated_Source\PSoC4/Input_Capsense_Processing.c ****                 result = snsCount | Input_Capsense_PROCESS_BASELINE_FAILED;
 608:Generated_Source\PSoC4/Input_Capsense_Processing.c ****             }
 609:Generated_Source\PSoC4/Input_Capsense_Processing.c ****         #endif /* (Input_Capsense_ENABLE == Input_Capsense_TST_BSLN_DUPLICATION_EN) */
ARM GAS  C:\Users\doita\AppData\Local\Temp\cc44fZpJ.s 			page 14


 610:Generated_Source\PSoC4/Input_Capsense_Processing.c **** 
 611:Generated_Source\PSoC4/Input_Capsense_Processing.c ****         Input_Capsense_DpUpdateDifferences(ptrRamWdgt, ptrSnsTmp);
 612:Generated_Source\PSoC4/Input_Capsense_Processing.c **** 
 613:Generated_Source\PSoC4/Input_Capsense_Processing.c ****         /* Move pointers to the next sensor and filter history objects */
 614:Generated_Source\PSoC4/Input_Capsense_Processing.c ****         ptrSnsTmp++;
 615:Generated_Source\PSoC4/Input_Capsense_Processing.c **** 
 616:Generated_Source\PSoC4/Input_Capsense_Processing.c ****         #if (Input_Capsense_ENABLE == Input_Capsense_RC_FILTER_EN)
 617:Generated_Source\PSoC4/Input_Capsense_Processing.c ****             Input_Capsense_INC_REG_FLTR_OBJ(fltrHistV);
 618:Generated_Source\PSoC4/Input_Capsense_Processing.c ****         #endif /* #if (Input_Capsense_ENABLE == Input_Capsense_RC_FILTER_EN) */
 619:Generated_Source\PSoC4/Input_Capsense_Processing.c ****     }
 620:Generated_Source\PSoC4/Input_Capsense_Processing.c ****     return result;
 621:Generated_Source\PSoC4/Input_Capsense_Processing.c **** }
 622:Generated_Source\PSoC4/Input_Capsense_Processing.c **** 
 623:Generated_Source\PSoC4/Input_Capsense_Processing.c **** /*******************************************************************************
 624:Generated_Source\PSoC4/Input_Capsense_Processing.c **** * Function Name: Input_Capsense_DpProcessCsxSensorRawCountsExt
 625:Generated_Source\PSoC4/Input_Capsense_Processing.c **** ****************************************************************************//**
 626:Generated_Source\PSoC4/Input_Capsense_Processing.c **** *
 627:Generated_Source\PSoC4/Input_Capsense_Processing.c **** * \brief
 628:Generated_Source\PSoC4/Input_Capsense_Processing.c **** *   Performs customized processing of the CSX sensor raw counts.
 629:Generated_Source\PSoC4/Input_Capsense_Processing.c **** *
 630:Generated_Source\PSoC4/Input_Capsense_Processing.c **** * \details
 631:Generated_Source\PSoC4/Input_Capsense_Processing.c **** *   Performs customized processing of the CSX sensor raw counts.
 632:Generated_Source\PSoC4/Input_Capsense_Processing.c **** *
 633:Generated_Source\PSoC4/Input_Capsense_Processing.c **** *   If all bits are set at once the default processing order will take place.
 634:Generated_Source\PSoC4/Input_Capsense_Processing.c **** *   For the custom order this API can be called multiple times and execute one task at a time.
 635:Generated_Source\PSoC4/Input_Capsense_Processing.c **** *
 636:Generated_Source\PSoC4/Input_Capsense_Processing.c **** * \param ptrFlashWdgt The pointer to the Flash Widget Object.
 637:Generated_Source\PSoC4/Input_Capsense_Processing.c **** * \param curSnsPtr    The pointer to the specific RAM Sensor Object.
 638:Generated_Source\PSoC4/Input_Capsense_Processing.c **** * \param fltrHistV    The pointer to the Filter History Object in RAM associated with specific sens
 639:Generated_Source\PSoC4/Input_Capsense_Processing.c **** * \param mode         The bit-mask with the data processing tasks to be executed.
 640:Generated_Source\PSoC4/Input_Capsense_Processing.c **** *   The mode parameters can take the following values:
 641:Generated_Source\PSoC4/Input_Capsense_Processing.c **** *    - Input_Capsense_PROCESS_FILTER     (0x01) Run Firmware Filter
 642:Generated_Source\PSoC4/Input_Capsense_Processing.c **** *    - Input_Capsense_PROCESS_BASELINE   (0x02) Update Baselines
 643:Generated_Source\PSoC4/Input_Capsense_Processing.c **** *    - Input_Capsense_PROCESS_DIFFCOUNTS (0x04) Update Difference Counts
 644:Generated_Source\PSoC4/Input_Capsense_Processing.c **** *    - Input_Capsense_PROCESS_ALL               Execute all tasks
 645:Generated_Source\PSoC4/Input_Capsense_Processing.c **** *
 646:Generated_Source\PSoC4/Input_Capsense_Processing.c **** * \return
 647:Generated_Source\PSoC4/Input_Capsense_Processing.c **** *  Returns the status of the specified sensor processing operation:
 648:Generated_Source\PSoC4/Input_Capsense_Processing.c **** *  - CYRET_SUCCESS if operation was successfully completed;
 649:Generated_Source\PSoC4/Input_Capsense_Processing.c **** *  - Input_Capsense_PROCESS_BASELINE_FAILED if baseline processing of any
 650:Generated_Source\PSoC4/Input_Capsense_Processing.c **** *    sensor of the specified widget failed. The result is concatenated with the index
 651:Generated_Source\PSoC4/Input_Capsense_Processing.c **** *    of failed sensor.
 652:Generated_Source\PSoC4/Input_Capsense_Processing.c **** *
 653:Generated_Source\PSoC4/Input_Capsense_Processing.c **** *******************************************************************************/
 654:Generated_Source\PSoC4/Input_Capsense_Processing.c **** uint32 Input_Capsense_DpProcessCsxSensorRawCountsExt(
 655:Generated_Source\PSoC4/Input_Capsense_Processing.c ****                 Input_Capsense_FLASH_WD_STRUCT const *ptrFlashWdgt,
 656:Generated_Source\PSoC4/Input_Capsense_Processing.c ****                 Input_Capsense_RAM_SNS_STRUCT *curSnsPtr,
 657:Generated_Source\PSoC4/Input_Capsense_Processing.c ****                 Input_Capsense_PTR_FILTER_VARIANT fltrHistV,
 658:Generated_Source\PSoC4/Input_Capsense_Processing.c ****                 uint32 mode)
 659:Generated_Source\PSoC4/Input_Capsense_Processing.c **** {
 660:Generated_Source\PSoC4/Input_Capsense_Processing.c ****     uint32  result = CYRET_SUCCESS;
 661:Generated_Source\PSoC4/Input_Capsense_Processing.c ****     uint32  widgetType;
 662:Generated_Source\PSoC4/Input_Capsense_Processing.c ****     Input_Capsense_RAM_WD_BASE_STRUCT *ptrRamWdgt;
 663:Generated_Source\PSoC4/Input_Capsense_Processing.c **** 
 664:Generated_Source\PSoC4/Input_Capsense_Processing.c ****     widgetType = ptrFlashWdgt->wdgtType;
 665:Generated_Source\PSoC4/Input_Capsense_Processing.c ****     ptrRamWdgt = (Input_Capsense_RAM_WD_BASE_STRUCT *)ptrFlashWdgt->ptr2WdgtRam;
 666:Generated_Source\PSoC4/Input_Capsense_Processing.c **** 
ARM GAS  C:\Users\doita\AppData\Local\Temp\cc44fZpJ.s 			page 15


 667:Generated_Source\PSoC4/Input_Capsense_Processing.c ****     #if (Input_Capsense_ENABLE == Input_Capsense_RC_FILTER_EN)
 668:Generated_Source\PSoC4/Input_Capsense_Processing.c ****         if (0u != (mode & Input_Capsense_PROCESS_FILTER))
 669:Generated_Source\PSoC4/Input_Capsense_Processing.c ****         {
 670:Generated_Source\PSoC4/Input_Capsense_Processing.c ****             Input_Capsense_FtRunEnabledFiltersInternal(fltrHistV, curSnsPtr, widgetType);
 671:Generated_Source\PSoC4/Input_Capsense_Processing.c ****             #if (Input_Capsense_ALP_FILTER_EN)
 672:Generated_Source\PSoC4/Input_Capsense_Processing.c ****                 Input_Capsense_ConfigRunALPInternal(fltrHistV, ptrRamWdgt, curSnsPtr, widgetType);
 673:Generated_Source\PSoC4/Input_Capsense_Processing.c ****             #endif
 674:Generated_Source\PSoC4/Input_Capsense_Processing.c ****         }
 675:Generated_Source\PSoC4/Input_Capsense_Processing.c ****     #else
 676:Generated_Source\PSoC4/Input_Capsense_Processing.c ****         (void)fltrHistV; /* This parameter is unused in such configurations */
 677:Generated_Source\PSoC4/Input_Capsense_Processing.c ****     #endif /* #if (Input_Capsense_ENABLE == Input_Capsense_RC_FILTER_EN) */
 678:Generated_Source\PSoC4/Input_Capsense_Processing.c **** 
 679:Generated_Source\PSoC4/Input_Capsense_Processing.c ****     if (0u != (mode & Input_Capsense_PROCESS_BASELINE))
 680:Generated_Source\PSoC4/Input_Capsense_Processing.c ****     {
 681:Generated_Source\PSoC4/Input_Capsense_Processing.c ****         result = Input_Capsense_FtUpdateBaseline(ptrRamWdgt, curSnsPtr, widgetType);
 682:Generated_Source\PSoC4/Input_Capsense_Processing.c ****     }
 683:Generated_Source\PSoC4/Input_Capsense_Processing.c **** 
 684:Generated_Source\PSoC4/Input_Capsense_Processing.c ****     if (0u != (mode & Input_Capsense_PROCESS_DIFFCOUNTS))
 685:Generated_Source\PSoC4/Input_Capsense_Processing.c ****     {
 686:Generated_Source\PSoC4/Input_Capsense_Processing.c ****         Input_Capsense_DpUpdateDifferences(ptrRamWdgt, curSnsPtr);
 687:Generated_Source\PSoC4/Input_Capsense_Processing.c ****     }
 688:Generated_Source\PSoC4/Input_Capsense_Processing.c ****     return result;
 689:Generated_Source\PSoC4/Input_Capsense_Processing.c **** }
 690:Generated_Source\PSoC4/Input_Capsense_Processing.c **** 
 691:Generated_Source\PSoC4/Input_Capsense_Processing.c **** 
 692:Generated_Source\PSoC4/Input_Capsense_Processing.c **** /*******************************************************************************
 693:Generated_Source\PSoC4/Input_Capsense_Processing.c **** * Function Name: Input_Capsense_DpProcessCsxWidgetStatus
 694:Generated_Source\PSoC4/Input_Capsense_Processing.c **** ****************************************************************************//**
 695:Generated_Source\PSoC4/Input_Capsense_Processing.c **** *
 696:Generated_Source\PSoC4/Input_Capsense_Processing.c **** * \brief
 697:Generated_Source\PSoC4/Input_Capsense_Processing.c **** *   Updates the status of the CSX widget in the Data Structure.
 698:Generated_Source\PSoC4/Input_Capsense_Processing.c **** *
 699:Generated_Source\PSoC4/Input_Capsense_Processing.c **** * \details
 700:Generated_Source\PSoC4/Input_Capsense_Processing.c **** *  This API determines the type of widget and runs the appropriate function
 701:Generated_Source\PSoC4/Input_Capsense_Processing.c **** *  that implements the status update algorithm for this type of widget.
 702:Generated_Source\PSoC4/Input_Capsense_Processing.c **** *
 703:Generated_Source\PSoC4/Input_Capsense_Processing.c **** *  When the widget-specific processing completes this API updates the snsStatus
 704:Generated_Source\PSoC4/Input_Capsense_Processing.c **** *  and wdgtStatus registers in the data structure. The wdgtStatus register
 705:Generated_Source\PSoC4/Input_Capsense_Processing.c **** *  is a bitmask were each bit corresponds to the specific widget identified by
 706:Generated_Source\PSoC4/Input_Capsense_Processing.c **** *  the widget index. When the bit is set the widget is active (touched);
 707:Generated_Source\PSoC4/Input_Capsense_Processing.c **** *
 708:Generated_Source\PSoC4/Input_Capsense_Processing.c **** *  Depending on the type of widget the snsStatus register may contain either
 709:Generated_Source\PSoC4/Input_Capsense_Processing.c **** *  status of each widget node (active/non-active) or in case of the CSX Touchpad
 710:Generated_Source\PSoC4/Input_Capsense_Processing.c **** *  is contains the number of touches. In both cases 0 means that widget is not
 711:Generated_Source\PSoC4/Input_Capsense_Processing.c **** *  active.
 712:Generated_Source\PSoC4/Input_Capsense_Processing.c **** *
 713:Generated_Source\PSoC4/Input_Capsense_Processing.c **** * \param widgetId     The widget ID number.
 714:Generated_Source\PSoC4/Input_Capsense_Processing.c **** * \param ptrFlashWdgt The pointer to the Flash Widget Object.
 715:Generated_Source\PSoC4/Input_Capsense_Processing.c **** *
 716:Generated_Source\PSoC4/Input_Capsense_Processing.c **** *******************************************************************************/
 717:Generated_Source\PSoC4/Input_Capsense_Processing.c **** void Input_Capsense_DpProcessCsxWidgetStatus(uint32 widgetId, Input_Capsense_FLASH_WD_STRUCT const 
 718:Generated_Source\PSoC4/Input_Capsense_Processing.c **** {
 719:Generated_Source\PSoC4/Input_Capsense_Processing.c ****     uint32 sensorStatus;
 720:Generated_Source\PSoC4/Input_Capsense_Processing.c ****     uint32 wdStatusIndex;
 721:Generated_Source\PSoC4/Input_Capsense_Processing.c ****     uint32 wdStatusMask;
 722:Generated_Source\PSoC4/Input_Capsense_Processing.c ****     Input_Capsense_WD_TYPE_ENUM widgetType;
 723:Generated_Source\PSoC4/Input_Capsense_Processing.c **** 
ARM GAS  C:\Users\doita\AppData\Local\Temp\cc44fZpJ.s 			page 16


 724:Generated_Source\PSoC4/Input_Capsense_Processing.c ****     widgetType = (Input_Capsense_WD_TYPE_ENUM)ptrFlashWdgt->wdgtType;
 725:Generated_Source\PSoC4/Input_Capsense_Processing.c ****     sensorStatus = Input_Capsense_dsRam.snsStatus[widgetId];
 726:Generated_Source\PSoC4/Input_Capsense_Processing.c **** 
 727:Generated_Source\PSoC4/Input_Capsense_Processing.c ****     switch (widgetType)
 728:Generated_Source\PSoC4/Input_Capsense_Processing.c ****     {
 729:Generated_Source\PSoC4/Input_Capsense_Processing.c ****     #if (0u != Input_Capsense_BUTTON_WIDGET_EN)
 730:Generated_Source\PSoC4/Input_Capsense_Processing.c ****         case Input_Capsense_WD_BUTTON_E:
 731:Generated_Source\PSoC4/Input_Capsense_Processing.c ****             sensorStatus = Input_Capsense_DpProcessButton(sensorStatus, ptrFlashWdgt);
 732:Generated_Source\PSoC4/Input_Capsense_Processing.c ****             break;
 733:Generated_Source\PSoC4/Input_Capsense_Processing.c ****     #endif /* #if (0u != Input_Capsense_BUTTON_WIDGET_EN) */
 734:Generated_Source\PSoC4/Input_Capsense_Processing.c **** 
 735:Generated_Source\PSoC4/Input_Capsense_Processing.c ****     #if (0u != Input_Capsense_CSX_MATRIX_WIDGET_EN)
 736:Generated_Source\PSoC4/Input_Capsense_Processing.c ****         case Input_Capsense_WD_MATRIX_BUTTON_E:
 737:Generated_Source\PSoC4/Input_Capsense_Processing.c ****             sensorStatus = Input_Capsense_DpProcessButton(sensorStatus, ptrFlashWdgt);
 738:Generated_Source\PSoC4/Input_Capsense_Processing.c ****             break;
 739:Generated_Source\PSoC4/Input_Capsense_Processing.c ****     #endif /* #if (0u != Input_Capsense_CSX_MATRIX_WIDGET_EN) */
 740:Generated_Source\PSoC4/Input_Capsense_Processing.c **** 
 741:Generated_Source\PSoC4/Input_Capsense_Processing.c ****     #if (0u != Input_Capsense_CSX_TOUCHPAD_WIDGET_EN)
 742:Generated_Source\PSoC4/Input_Capsense_Processing.c ****         case Input_Capsense_WD_TOUCHPAD_E:
 743:Generated_Source\PSoC4/Input_Capsense_Processing.c ****             sensorStatus = Input_Capsense_DpProcessCsxTouchpad(sensorStatus, ptrFlashWdgt);
 744:Generated_Source\PSoC4/Input_Capsense_Processing.c ****             break;
 745:Generated_Source\PSoC4/Input_Capsense_Processing.c ****     #endif /* #if (0u != Input_Capsense_CSX_TOUCHPAD_WIDGET_EN) */
 746:Generated_Source\PSoC4/Input_Capsense_Processing.c **** 
 747:Generated_Source\PSoC4/Input_Capsense_Processing.c ****     default:
 748:Generated_Source\PSoC4/Input_Capsense_Processing.c ****         CYASSERT(0u);
 749:Generated_Source\PSoC4/Input_Capsense_Processing.c ****         break;
 750:Generated_Source\PSoC4/Input_Capsense_Processing.c ****     }
 751:Generated_Source\PSoC4/Input_Capsense_Processing.c **** 
 752:Generated_Source\PSoC4/Input_Capsense_Processing.c ****     /* Update sensor status in the data structure */
 753:Generated_Source\PSoC4/Input_Capsense_Processing.c ****     Input_Capsense_dsRam.snsStatus[widgetId] = (Input_Capsense_SNS_STS_TYPE)sensorStatus;
 754:Generated_Source\PSoC4/Input_Capsense_Processing.c **** 
 755:Generated_Source\PSoC4/Input_Capsense_Processing.c ****     /* The next two lines calculate index and bitmask of the widget status bit in the wdgtStatus ar
 756:Generated_Source\PSoC4/Input_Capsense_Processing.c ****     wdStatusIndex = Input_Capsense_GET_WDGT_STATUS_INDEX(widgetId);
 757:Generated_Source\PSoC4/Input_Capsense_Processing.c ****     wdStatusMask = Input_Capsense_GET_WDGT_STATUS_MASK(widgetId);
 758:Generated_Source\PSoC4/Input_Capsense_Processing.c **** 
 759:Generated_Source\PSoC4/Input_Capsense_Processing.c ****     /* Check if there are active sensors and update widget status accordingly */
 760:Generated_Source\PSoC4/Input_Capsense_Processing.c ****     if (0u == sensorStatus)
 761:Generated_Source\PSoC4/Input_Capsense_Processing.c ****     {
 762:Generated_Source\PSoC4/Input_Capsense_Processing.c ****         Input_Capsense_dsRam.wdgtStatus[wdStatusIndex] &= ~wdStatusMask;
 763:Generated_Source\PSoC4/Input_Capsense_Processing.c ****     }
 764:Generated_Source\PSoC4/Input_Capsense_Processing.c ****     else
 765:Generated_Source\PSoC4/Input_Capsense_Processing.c ****     {
 766:Generated_Source\PSoC4/Input_Capsense_Processing.c ****         Input_Capsense_dsRam.wdgtStatus[wdStatusIndex] |= wdStatusMask;
 767:Generated_Source\PSoC4/Input_Capsense_Processing.c ****     }
 768:Generated_Source\PSoC4/Input_Capsense_Processing.c **** }
 769:Generated_Source\PSoC4/Input_Capsense_Processing.c **** #endif /* #if Input_Capsense_TOTAL_CSX_WIDGETS */
 770:Generated_Source\PSoC4/Input_Capsense_Processing.c **** 
 771:Generated_Source\PSoC4/Input_Capsense_Processing.c **** #if (0u != Input_Capsense_TOTAL_ISX_WIDGETS)
 772:Generated_Source\PSoC4/Input_Capsense_Processing.c **** /*******************************************************************************
 773:Generated_Source\PSoC4/Input_Capsense_Processing.c **** * Function Name: Input_Capsense_DpProcessIsxWidgetRawCounts
 774:Generated_Source\PSoC4/Input_Capsense_Processing.c **** ****************************************************************************//**
 775:Generated_Source\PSoC4/Input_Capsense_Processing.c **** *
 776:Generated_Source\PSoC4/Input_Capsense_Processing.c **** * \brief
 777:Generated_Source\PSoC4/Input_Capsense_Processing.c **** *  Performs default processing of the ISX raw counts.
 778:Generated_Source\PSoC4/Input_Capsense_Processing.c **** *
 779:Generated_Source\PSoC4/Input_Capsense_Processing.c **** * \details
 780:Generated_Source\PSoC4/Input_Capsense_Processing.c **** *  Performs default processing of the ISX raw counts:
ARM GAS  C:\Users\doita\AppData\Local\Temp\cc44fZpJ.s 			page 17


 781:Generated_Source\PSoC4/Input_Capsense_Processing.c **** *   - Run Filters
 782:Generated_Source\PSoC4/Input_Capsense_Processing.c **** *   - Update Baselines
 783:Generated_Source\PSoC4/Input_Capsense_Processing.c **** *   - Update Differences
 784:Generated_Source\PSoC4/Input_Capsense_Processing.c **** *   - Update Status.
 785:Generated_Source\PSoC4/Input_Capsense_Processing.c **** *  The same process is applied to all the sensors of the specified widget.
 786:Generated_Source\PSoC4/Input_Capsense_Processing.c **** *
 787:Generated_Source\PSoC4/Input_Capsense_Processing.c **** * \param ptrFlashWdgt The pointer to the Flash widget structure.
 788:Generated_Source\PSoC4/Input_Capsense_Processing.c **** *
 789:Generated_Source\PSoC4/Input_Capsense_Processing.c **** * \return
 790:Generated_Source\PSoC4/Input_Capsense_Processing.c **** *  Returns the status of the specified widget processing operation:
 791:Generated_Source\PSoC4/Input_Capsense_Processing.c **** *  - CYRET_SUCCESS if operation was successfully completed;
 792:Generated_Source\PSoC4/Input_Capsense_Processing.c **** *  - Input_Capsense_PROCESS_BASELINE_FAILED if baseline processing of any
 793:Generated_Source\PSoC4/Input_Capsense_Processing.c **** *    sensor of the specified widget failed. The result is concatenated with the index
 794:Generated_Source\PSoC4/Input_Capsense_Processing.c **** *    of failed sensor.
 795:Generated_Source\PSoC4/Input_Capsense_Processing.c **** *
 796:Generated_Source\PSoC4/Input_Capsense_Processing.c **** *******************************************************************************/
 797:Generated_Source\PSoC4/Input_Capsense_Processing.c **** uint32 Input_Capsense_DpProcessIsxWidgetRawCounts(Input_Capsense_FLASH_WD_STRUCT const *ptrFlashWdg
 798:Generated_Source\PSoC4/Input_Capsense_Processing.c **** {
 799:Generated_Source\PSoC4/Input_Capsense_Processing.c ****     uint32 result = CYRET_SUCCESS;
 800:Generated_Source\PSoC4/Input_Capsense_Processing.c ****     uint32 widgetType;
 801:Generated_Source\PSoC4/Input_Capsense_Processing.c ****     uint32 snsCount;
 802:Generated_Source\PSoC4/Input_Capsense_Processing.c ****     Input_Capsense_RAM_SNS_STRUCT *ptrSns;
 803:Generated_Source\PSoC4/Input_Capsense_Processing.c ****     Input_Capsense_RAM_WD_BASE_STRUCT *ptrRamWdgt;
 804:Generated_Source\PSoC4/Input_Capsense_Processing.c **** 
 805:Generated_Source\PSoC4/Input_Capsense_Processing.c ****     #if (Input_Capsense_ENABLE == Input_Capsense_RC_FILTER_EN)
 806:Generated_Source\PSoC4/Input_Capsense_Processing.c ****         Input_Capsense_PTR_FILTER_VARIANT fltrHistV;
 807:Generated_Source\PSoC4/Input_Capsense_Processing.c **** 
 808:Generated_Source\PSoC4/Input_Capsense_Processing.c ****         fltrHistV.ptr = ptrFlashWdgt->ptr2FltrHistory;
 809:Generated_Source\PSoC4/Input_Capsense_Processing.c ****     #endif /* #if (Input_Capsense_ENABLE == Input_Capsense_RC_FILTER_EN) */
 810:Generated_Source\PSoC4/Input_Capsense_Processing.c **** 
 811:Generated_Source\PSoC4/Input_Capsense_Processing.c ****     ptrSns = ptrFlashWdgt->ptr2SnsRam;
 812:Generated_Source\PSoC4/Input_Capsense_Processing.c ****     snsCount = ptrFlashWdgt->totalNumSns;
 813:Generated_Source\PSoC4/Input_Capsense_Processing.c ****     ptrRamWdgt = ptrFlashWdgt->ptr2WdgtRam;
 814:Generated_Source\PSoC4/Input_Capsense_Processing.c ****     widgetType = ptrFlashWdgt->wdgtType;
 815:Generated_Source\PSoC4/Input_Capsense_Processing.c **** 
 816:Generated_Source\PSoC4/Input_Capsense_Processing.c ****     #if (0u != Input_Capsense_ISX_SKIP_OVSMPL_SPECIFIC_NODES)
 817:Generated_Source\PSoC4/Input_Capsense_Processing.c ****         if (0u != ptrSns->resolution)
 818:Generated_Source\PSoC4/Input_Capsense_Processing.c ****     #endif
 819:Generated_Source\PSoC4/Input_Capsense_Processing.c ****     {
 820:Generated_Source\PSoC4/Input_Capsense_Processing.c ****         for(;snsCount-- > 0u;)
 821:Generated_Source\PSoC4/Input_Capsense_Processing.c ****         {
 822:Generated_Source\PSoC4/Input_Capsense_Processing.c ****             #if (Input_Capsense_ENABLE == Input_Capsense_RC_FILTER_EN)
 823:Generated_Source\PSoC4/Input_Capsense_Processing.c ****                 Input_Capsense_FtRunEnabledFiltersInternal(fltrHistV, ptrSns, widgetType);
 824:Generated_Source\PSoC4/Input_Capsense_Processing.c ****             #endif /* #if (Input_Capsense_ENABLE == Input_Capsense_RC_FILTER_EN) */
 825:Generated_Source\PSoC4/Input_Capsense_Processing.c **** 
 826:Generated_Source\PSoC4/Input_Capsense_Processing.c ****             result = Input_Capsense_FtUpdateBaseline(ptrRamWdgt, ptrSns, widgetType);
 827:Generated_Source\PSoC4/Input_Capsense_Processing.c **** 
 828:Generated_Source\PSoC4/Input_Capsense_Processing.c ****             #if (Input_Capsense_ENABLE == Input_Capsense_TST_BSLN_DUPLICATION_EN)
 829:Generated_Source\PSoC4/Input_Capsense_Processing.c ****                 if (CYRET_SUCCESS != result)
 830:Generated_Source\PSoC4/Input_Capsense_Processing.c ****                 {
 831:Generated_Source\PSoC4/Input_Capsense_Processing.c ****                     result = Input_Capsense_PROCESS_BASELINE_FAILED;
 832:Generated_Source\PSoC4/Input_Capsense_Processing.c ****                 }
 833:Generated_Source\PSoC4/Input_Capsense_Processing.c ****             #endif /* (Input_Capsense_ENABLE == Input_Capsense_TST_BSLN_DUPLICATION_EN) */
 834:Generated_Source\PSoC4/Input_Capsense_Processing.c **** 
 835:Generated_Source\PSoC4/Input_Capsense_Processing.c ****             Input_Capsense_DpUpdateDifferences(ptrRamWdgt, ptrSns);
 836:Generated_Source\PSoC4/Input_Capsense_Processing.c ****             ptrSns++;
 837:Generated_Source\PSoC4/Input_Capsense_Processing.c **** 
ARM GAS  C:\Users\doita\AppData\Local\Temp\cc44fZpJ.s 			page 18


 838:Generated_Source\PSoC4/Input_Capsense_Processing.c ****             #if (Input_Capsense_ENABLE == Input_Capsense_RC_FILTER_EN)
 839:Generated_Source\PSoC4/Input_Capsense_Processing.c ****                 Input_Capsense_INC_FLTR_OBJ_VARIANT(0u, fltrHistV);
 840:Generated_Source\PSoC4/Input_Capsense_Processing.c ****             #endif /* #if (Input_Capsense_ENABLE == Input_Capsense_RC_FILTER_EN) */
 841:Generated_Source\PSoC4/Input_Capsense_Processing.c ****         }
 842:Generated_Source\PSoC4/Input_Capsense_Processing.c ****     }
 843:Generated_Source\PSoC4/Input_Capsense_Processing.c **** 
 844:Generated_Source\PSoC4/Input_Capsense_Processing.c ****     return result;
 845:Generated_Source\PSoC4/Input_Capsense_Processing.c **** }
 846:Generated_Source\PSoC4/Input_Capsense_Processing.c **** 
 847:Generated_Source\PSoC4/Input_Capsense_Processing.c **** /*******************************************************************************
 848:Generated_Source\PSoC4/Input_Capsense_Processing.c **** * Function Name: Input_Capsense_DpProcessIsxSensorRawCountsExt
 849:Generated_Source\PSoC4/Input_Capsense_Processing.c **** ****************************************************************************//**
 850:Generated_Source\PSoC4/Input_Capsense_Processing.c **** *
 851:Generated_Source\PSoC4/Input_Capsense_Processing.c **** * \brief
 852:Generated_Source\PSoC4/Input_Capsense_Processing.c **** *   Performs customized processing of the ISX sensor raw counts.
 853:Generated_Source\PSoC4/Input_Capsense_Processing.c **** *
 854:Generated_Source\PSoC4/Input_Capsense_Processing.c **** * \details
 855:Generated_Source\PSoC4/Input_Capsense_Processing.c **** *   Performs customized processing of the ISX sensor raw counts.
 856:Generated_Source\PSoC4/Input_Capsense_Processing.c **** *
 857:Generated_Source\PSoC4/Input_Capsense_Processing.c **** *   If all bits are set at once the default processing order will take place.
 858:Generated_Source\PSoC4/Input_Capsense_Processing.c **** *   For the custom order this API can be called multiple times and execute one task at a time.
 859:Generated_Source\PSoC4/Input_Capsense_Processing.c **** *
 860:Generated_Source\PSoC4/Input_Capsense_Processing.c **** * \param ptrFlashWdgt The pointer to the Flash Widget Object.
 861:Generated_Source\PSoC4/Input_Capsense_Processing.c **** * \param ptrSns       The pointer to the specific RAM Sensor Object.
 862:Generated_Source\PSoC4/Input_Capsense_Processing.c **** * \param fltrHistV    The pointer to the Filter History Object in RAM associated with specific sens
 863:Generated_Source\PSoC4/Input_Capsense_Processing.c **** * \param mode         The bit-mask with the data processing tasks to be executed.
 864:Generated_Source\PSoC4/Input_Capsense_Processing.c **** *   The mode parameters can take the following values:
 865:Generated_Source\PSoC4/Input_Capsense_Processing.c **** *    - Input_Capsense_PROCESS_FILTER     (0x01) Run Firmware Filter
 866:Generated_Source\PSoC4/Input_Capsense_Processing.c **** *    - Input_Capsense_PROCESS_BASELINE   (0x02) Update Baselines
 867:Generated_Source\PSoC4/Input_Capsense_Processing.c **** *    - Input_Capsense_PROCESS_DIFFCOUNTS (0x04) Update Difference Counts
 868:Generated_Source\PSoC4/Input_Capsense_Processing.c **** *    - Input_Capsense_PROCESS_ALL               Execute all tasks
 869:Generated_Source\PSoC4/Input_Capsense_Processing.c **** *
 870:Generated_Source\PSoC4/Input_Capsense_Processing.c **** * \return
 871:Generated_Source\PSoC4/Input_Capsense_Processing.c **** *  Returns the status of the specified sensor processing operation:
 872:Generated_Source\PSoC4/Input_Capsense_Processing.c **** *  - CYRET_SUCCESS if operation was successfully completed;
 873:Generated_Source\PSoC4/Input_Capsense_Processing.c **** *  - Input_Capsense_PROCESS_BASELINE_FAILED if baseline processing of any
 874:Generated_Source\PSoC4/Input_Capsense_Processing.c **** *    sensor of the specified widget failed. The result is concatenated with the index
 875:Generated_Source\PSoC4/Input_Capsense_Processing.c **** *    of failed sensor.
 876:Generated_Source\PSoC4/Input_Capsense_Processing.c **** *
 877:Generated_Source\PSoC4/Input_Capsense_Processing.c **** *******************************************************************************/
 878:Generated_Source\PSoC4/Input_Capsense_Processing.c **** uint32 Input_Capsense_DpProcessIsxSensorRawCountsExt(
 879:Generated_Source\PSoC4/Input_Capsense_Processing.c ****                 Input_Capsense_FLASH_WD_STRUCT const *ptrFlashWdgt,
 880:Generated_Source\PSoC4/Input_Capsense_Processing.c ****                 Input_Capsense_RAM_SNS_STRUCT *ptrSns,
 881:Generated_Source\PSoC4/Input_Capsense_Processing.c ****                 Input_Capsense_PTR_FILTER_VARIANT fltrHistV,
 882:Generated_Source\PSoC4/Input_Capsense_Processing.c ****                 uint32 mode)
 883:Generated_Source\PSoC4/Input_Capsense_Processing.c **** {
 884:Generated_Source\PSoC4/Input_Capsense_Processing.c ****     uint32  result = CYRET_SUCCESS;
 885:Generated_Source\PSoC4/Input_Capsense_Processing.c ****     uint32  widgetType;
 886:Generated_Source\PSoC4/Input_Capsense_Processing.c ****     Input_Capsense_RAM_WD_BASE_STRUCT *ptrRamWdgt;
 887:Generated_Source\PSoC4/Input_Capsense_Processing.c **** 
 888:Generated_Source\PSoC4/Input_Capsense_Processing.c ****     widgetType = ptrFlashWdgt->wdgtType;
 889:Generated_Source\PSoC4/Input_Capsense_Processing.c ****     ptrRamWdgt = ptrFlashWdgt->ptr2WdgtRam;
 890:Generated_Source\PSoC4/Input_Capsense_Processing.c **** 
 891:Generated_Source\PSoC4/Input_Capsense_Processing.c ****     #if (Input_Capsense_ENABLE == Input_Capsense_RC_FILTER_EN)
 892:Generated_Source\PSoC4/Input_Capsense_Processing.c ****         if (0u != (mode & Input_Capsense_PROCESS_FILTER))
 893:Generated_Source\PSoC4/Input_Capsense_Processing.c ****         {
 894:Generated_Source\PSoC4/Input_Capsense_Processing.c ****             Input_Capsense_FtRunEnabledFiltersInternal(fltrHistV, ptrSns, widgetType);
ARM GAS  C:\Users\doita\AppData\Local\Temp\cc44fZpJ.s 			page 19


 895:Generated_Source\PSoC4/Input_Capsense_Processing.c ****         }
 896:Generated_Source\PSoC4/Input_Capsense_Processing.c ****     #else
 897:Generated_Source\PSoC4/Input_Capsense_Processing.c ****         (void)fltrHistV; /* This parameter is unused in such configurations */
 898:Generated_Source\PSoC4/Input_Capsense_Processing.c ****     #endif /* #if (Input_Capsense_ENABLE == Input_Capsense_RC_FILTER_EN) */
 899:Generated_Source\PSoC4/Input_Capsense_Processing.c **** 
 900:Generated_Source\PSoC4/Input_Capsense_Processing.c ****     if (0u != (mode & Input_Capsense_PROCESS_BASELINE))
 901:Generated_Source\PSoC4/Input_Capsense_Processing.c ****     {
 902:Generated_Source\PSoC4/Input_Capsense_Processing.c ****         result = Input_Capsense_FtUpdateBaseline(ptrRamWdgt, ptrSns, widgetType);
 903:Generated_Source\PSoC4/Input_Capsense_Processing.c ****     }
 904:Generated_Source\PSoC4/Input_Capsense_Processing.c **** 
 905:Generated_Source\PSoC4/Input_Capsense_Processing.c ****     if (0u != (mode & Input_Capsense_PROCESS_DIFFCOUNTS))
 906:Generated_Source\PSoC4/Input_Capsense_Processing.c ****     {
 907:Generated_Source\PSoC4/Input_Capsense_Processing.c ****         Input_Capsense_DpUpdateDifferences(ptrRamWdgt, ptrSns);
 908:Generated_Source\PSoC4/Input_Capsense_Processing.c ****     }
 909:Generated_Source\PSoC4/Input_Capsense_Processing.c ****     return result;
 910:Generated_Source\PSoC4/Input_Capsense_Processing.c **** }
 911:Generated_Source\PSoC4/Input_Capsense_Processing.c **** 
 912:Generated_Source\PSoC4/Input_Capsense_Processing.c **** 
 913:Generated_Source\PSoC4/Input_Capsense_Processing.c **** /*******************************************************************************
 914:Generated_Source\PSoC4/Input_Capsense_Processing.c **** * Function Name: Input_Capsense_DpProcessIsxWidgetStatus
 915:Generated_Source\PSoC4/Input_Capsense_Processing.c **** ****************************************************************************//**
 916:Generated_Source\PSoC4/Input_Capsense_Processing.c **** *
 917:Generated_Source\PSoC4/Input_Capsense_Processing.c **** * \brief
 918:Generated_Source\PSoC4/Input_Capsense_Processing.c **** *   Updates the status of the ISX widget in the Data Structure.
 919:Generated_Source\PSoC4/Input_Capsense_Processing.c **** *
 920:Generated_Source\PSoC4/Input_Capsense_Processing.c **** * \details
 921:Generated_Source\PSoC4/Input_Capsense_Processing.c **** *  This API determines the type of widget and runs the appropriate function
 922:Generated_Source\PSoC4/Input_Capsense_Processing.c **** *  that implements the status update algorithm for this type of widget.
 923:Generated_Source\PSoC4/Input_Capsense_Processing.c **** *
 924:Generated_Source\PSoC4/Input_Capsense_Processing.c **** *  When the widget-specific processing completes this API updates the snsStatus
 925:Generated_Source\PSoC4/Input_Capsense_Processing.c **** *  and wdgtStatus registers in the data structure. The wdgtStatus register
 926:Generated_Source\PSoC4/Input_Capsense_Processing.c **** *  is a bitmask were each bit corresponds to the specific widget identified by
 927:Generated_Source\PSoC4/Input_Capsense_Processing.c **** *  the widget index. When the bit is set the widget is active (touched);
 928:Generated_Source\PSoC4/Input_Capsense_Processing.c **** *
 929:Generated_Source\PSoC4/Input_Capsense_Processing.c **** *  Depending on the type of widget the snsStatus register may contain either
 930:Generated_Source\PSoC4/Input_Capsense_Processing.c **** *  status of each widget node (active/non-active) or in case of the ISX Touchpad
 931:Generated_Source\PSoC4/Input_Capsense_Processing.c **** *  is contains the number of touches. In both cases 0 means that widget is not
 932:Generated_Source\PSoC4/Input_Capsense_Processing.c **** *  active.
 933:Generated_Source\PSoC4/Input_Capsense_Processing.c **** *
 934:Generated_Source\PSoC4/Input_Capsense_Processing.c **** * \param wdgtId       The widget index number.
 935:Generated_Source\PSoC4/Input_Capsense_Processing.c **** * \param ptrFlashWdgt The pointer to the Flash Widget Object.
 936:Generated_Source\PSoC4/Input_Capsense_Processing.c **** *
 937:Generated_Source\PSoC4/Input_Capsense_Processing.c **** *******************************************************************************/
 938:Generated_Source\PSoC4/Input_Capsense_Processing.c **** void Input_Capsense_DpProcessIsxWidgetStatus(uint32 wdgtId, Input_Capsense_FLASH_WD_STRUCT const *p
 939:Generated_Source\PSoC4/Input_Capsense_Processing.c **** {
 940:Generated_Source\PSoC4/Input_Capsense_Processing.c ****     uint32 sensorStatus;
 941:Generated_Source\PSoC4/Input_Capsense_Processing.c ****     uint32 wdStatusIndex;
 942:Generated_Source\PSoC4/Input_Capsense_Processing.c ****     uint32 wdStatusMask;
 943:Generated_Source\PSoC4/Input_Capsense_Processing.c ****     Input_Capsense_WD_TYPE_ENUM widgetType;
 944:Generated_Source\PSoC4/Input_Capsense_Processing.c **** 
 945:Generated_Source\PSoC4/Input_Capsense_Processing.c ****     widgetType = (Input_Capsense_WD_TYPE_ENUM)ptrFlashWdgt->wdgtType;
 946:Generated_Source\PSoC4/Input_Capsense_Processing.c ****     sensorStatus = Input_Capsense_dsRam.snsStatus[wdgtId];
 947:Generated_Source\PSoC4/Input_Capsense_Processing.c **** 
 948:Generated_Source\PSoC4/Input_Capsense_Processing.c ****     switch (widgetType)
 949:Generated_Source\PSoC4/Input_Capsense_Processing.c ****     {
 950:Generated_Source\PSoC4/Input_Capsense_Processing.c ****     #if (0u != Input_Capsense_PROXIMITY_WIDGET_EN)
 951:Generated_Source\PSoC4/Input_Capsense_Processing.c ****         case Input_Capsense_WD_PROXIMITY_E:
ARM GAS  C:\Users\doita\AppData\Local\Temp\cc44fZpJ.s 			page 20


 952:Generated_Source\PSoC4/Input_Capsense_Processing.c ****             sensorStatus = Input_Capsense_DpProcessProximity(sensorStatus, ptrFlashWdgt);
 953:Generated_Source\PSoC4/Input_Capsense_Processing.c ****             break;
 954:Generated_Source\PSoC4/Input_Capsense_Processing.c ****     #endif /* #if (0u != Input_Capsense_Proximity_WIDGET_EN) */
 955:Generated_Source\PSoC4/Input_Capsense_Processing.c ****     #if (0u != Input_Capsense_ENCODERDIAL_WIDGET_EN)
 956:Generated_Source\PSoC4/Input_Capsense_Processing.c ****         case Input_Capsense_WD_ENCODERDIAL_E:
 957:Generated_Source\PSoC4/Input_Capsense_Processing.c ****             sensorStatus = Input_Capsense_DpProcessEncoderDial(sensorStatus, ptrFlashWdgt);
 958:Generated_Source\PSoC4/Input_Capsense_Processing.c ****             break;
 959:Generated_Source\PSoC4/Input_Capsense_Processing.c ****     #endif /* #if (0u != Input_Capsense_Proximity_WIDGET_EN) */
 960:Generated_Source\PSoC4/Input_Capsense_Processing.c ****     #if (0u != Input_Capsense_BUTTON_WIDGET_EN)
 961:Generated_Source\PSoC4/Input_Capsense_Processing.c ****         case Input_Capsense_WD_BUTTON_E:
 962:Generated_Source\PSoC4/Input_Capsense_Processing.c ****             sensorStatus = Input_Capsense_DpProcessButton(sensorStatus, ptrFlashWdgt);
 963:Generated_Source\PSoC4/Input_Capsense_Processing.c ****             break;
 964:Generated_Source\PSoC4/Input_Capsense_Processing.c ****     #endif /* #if (0u != Input_Capsense_Proximity_WIDGET_EN) */
 965:Generated_Source\PSoC4/Input_Capsense_Processing.c **** 
 966:Generated_Source\PSoC4/Input_Capsense_Processing.c ****     default:
 967:Generated_Source\PSoC4/Input_Capsense_Processing.c ****         CYASSERT(0u);
 968:Generated_Source\PSoC4/Input_Capsense_Processing.c ****         break;
 969:Generated_Source\PSoC4/Input_Capsense_Processing.c ****     }
 970:Generated_Source\PSoC4/Input_Capsense_Processing.c **** 
 971:Generated_Source\PSoC4/Input_Capsense_Processing.c ****     /* Update sensor status in the data structure */
 972:Generated_Source\PSoC4/Input_Capsense_Processing.c ****     Input_Capsense_dsRam.snsStatus[wdgtId] = (Input_Capsense_SNS_STS_TYPE)sensorStatus;
 973:Generated_Source\PSoC4/Input_Capsense_Processing.c **** 
 974:Generated_Source\PSoC4/Input_Capsense_Processing.c ****     /* The next two lines calculate index and bitmask of the widget status bit in the wdgtStatus ar
 975:Generated_Source\PSoC4/Input_Capsense_Processing.c ****     wdStatusIndex = Input_Capsense_GET_WDGT_STATUS_INDEX(wdgtId);
 976:Generated_Source\PSoC4/Input_Capsense_Processing.c ****     wdStatusMask = Input_Capsense_GET_WDGT_STATUS_MASK(wdgtId);
 977:Generated_Source\PSoC4/Input_Capsense_Processing.c **** 
 978:Generated_Source\PSoC4/Input_Capsense_Processing.c ****     /* Check if there are active sensors and update widget status accordingly */
 979:Generated_Source\PSoC4/Input_Capsense_Processing.c ****     if (0u == sensorStatus)
 980:Generated_Source\PSoC4/Input_Capsense_Processing.c ****     {
 981:Generated_Source\PSoC4/Input_Capsense_Processing.c ****         Input_Capsense_dsRam.wdgtStatus[wdStatusIndex] &= ~wdStatusMask;
 982:Generated_Source\PSoC4/Input_Capsense_Processing.c ****     }
 983:Generated_Source\PSoC4/Input_Capsense_Processing.c ****     else
 984:Generated_Source\PSoC4/Input_Capsense_Processing.c ****     {
 985:Generated_Source\PSoC4/Input_Capsense_Processing.c ****         Input_Capsense_dsRam.wdgtStatus[wdStatusIndex] |= wdStatusMask;
 986:Generated_Source\PSoC4/Input_Capsense_Processing.c ****     }
 987:Generated_Source\PSoC4/Input_Capsense_Processing.c **** }
 988:Generated_Source\PSoC4/Input_Capsense_Processing.c **** #endif /* #if Input_Capsense_TOTAL_ISX_WIDGETS */
 989:Generated_Source\PSoC4/Input_Capsense_Processing.c **** 
 990:Generated_Source\PSoC4/Input_Capsense_Processing.c **** #if (0u != Input_Capsense_TOTAL_CSD_WIDGETS)
 991:Generated_Source\PSoC4/Input_Capsense_Processing.c **** /*******************************************************************************
 992:Generated_Source\PSoC4/Input_Capsense_Processing.c **** * Function Name: Input_Capsense_DpProcessCsdWidgetRawCounts
 993:Generated_Source\PSoC4/Input_Capsense_Processing.c **** ****************************************************************************//**
 994:Generated_Source\PSoC4/Input_Capsense_Processing.c **** *
 995:Generated_Source\PSoC4/Input_Capsense_Processing.c **** * \brief
 996:Generated_Source\PSoC4/Input_Capsense_Processing.c **** *   Performs default processing for the CSD widget raw counts.
 997:Generated_Source\PSoC4/Input_Capsense_Processing.c **** *
 998:Generated_Source\PSoC4/Input_Capsense_Processing.c **** * \details
 999:Generated_Source\PSoC4/Input_Capsense_Processing.c **** *   Performs default processing for the CSD widget raw counts:
1000:Generated_Source\PSoC4/Input_Capsense_Processing.c **** *    - Run Filters
1001:Generated_Source\PSoC4/Input_Capsense_Processing.c **** *    - Update Thresholds (FW Auto-tuning)
1002:Generated_Source\PSoC4/Input_Capsense_Processing.c **** *    - Update Baselines
1003:Generated_Source\PSoC4/Input_Capsense_Processing.c **** *    - Update Differences.
1004:Generated_Source\PSoC4/Input_Capsense_Processing.c **** *   The process is applied to all widget's sensors.
1005:Generated_Source\PSoC4/Input_Capsense_Processing.c **** *
1006:Generated_Source\PSoC4/Input_Capsense_Processing.c **** * \param ptrFlashWdgt The pointer to the Flash Widget Object.
1007:Generated_Source\PSoC4/Input_Capsense_Processing.c **** *
1008:Generated_Source\PSoC4/Input_Capsense_Processing.c **** * \return
ARM GAS  C:\Users\doita\AppData\Local\Temp\cc44fZpJ.s 			page 21


1009:Generated_Source\PSoC4/Input_Capsense_Processing.c **** *  Returns the status of the specified widget processing operation:
1010:Generated_Source\PSoC4/Input_Capsense_Processing.c **** *  - CYRET_SUCCESS if operation was successfully completed;
1011:Generated_Source\PSoC4/Input_Capsense_Processing.c **** *  - Input_Capsense_PROCESS_BASELINE_FAILED if baseline processing of any
1012:Generated_Source\PSoC4/Input_Capsense_Processing.c **** *    sensor of the specified widget failed. The result is concatenated with the index
1013:Generated_Source\PSoC4/Input_Capsense_Processing.c **** *    of failed sensor.
1014:Generated_Source\PSoC4/Input_Capsense_Processing.c **** *
1015:Generated_Source\PSoC4/Input_Capsense_Processing.c **** *******************************************************************************/
1016:Generated_Source\PSoC4/Input_Capsense_Processing.c **** uint32 Input_Capsense_DpProcessCsdWidgetRawCounts(Input_Capsense_FLASH_WD_STRUCT const *ptrFlashWdg
1017:Generated_Source\PSoC4/Input_Capsense_Processing.c **** {
1018:Generated_Source\PSoC4/Input_Capsense_Processing.c ****     uint32  result = CYRET_SUCCESS;
1019:Generated_Source\PSoC4/Input_Capsense_Processing.c **** 
1020:Generated_Source\PSoC4/Input_Capsense_Processing.c ****     #if (Input_Capsense_ENABLE == Input_Capsense_TST_BSLN_DUPLICATION_EN)
1021:Generated_Source\PSoC4/Input_Capsense_Processing.c ****         uint32 bslnTstResult = CYRET_SUCCESS;
1022:Generated_Source\PSoC4/Input_Capsense_Processing.c ****     #endif /* (Input_Capsense_ENABLE == Input_Capsense_TST_BSLN_DUPLICATION_EN) */
1023:Generated_Source\PSoC4/Input_Capsense_Processing.c **** 
1024:Generated_Source\PSoC4/Input_Capsense_Processing.c ****     uint32  widgetType;
1025:Generated_Source\PSoC4/Input_Capsense_Processing.c ****     uint32  snsId;
1026:Generated_Source\PSoC4/Input_Capsense_Processing.c ****     Input_Capsense_RAM_SNS_STRUCT *ptrSnsTmp;
1027:Generated_Source\PSoC4/Input_Capsense_Processing.c ****     Input_Capsense_RAM_WD_BASE_STRUCT *ptrRamWdgt;
1028:Generated_Source\PSoC4/Input_Capsense_Processing.c **** 
1029:Generated_Source\PSoC4/Input_Capsense_Processing.c ****     #if (0u != (Input_Capsense_CSD_AUTOTUNE & Input_Capsense_CSD_SS_TH_EN))
1030:Generated_Source\PSoC4/Input_Capsense_Processing.c ****         /* The noise envelope data is available only when Full CSD Auto-Tuning is enabled */
1031:Generated_Source\PSoC4/Input_Capsense_Processing.c ****         SMARTSENSE_CSD_NOISE_ENVELOPE_STRUCT *ptrNoiseEnvelope;
1032:Generated_Source\PSoC4/Input_Capsense_Processing.c ****         #if (Input_Capsense_ENABLE == Input_Capsense_PROXIMITY_WIDGET_EN)
1033:Generated_Source\PSoC4/Input_Capsense_Processing.c ****             uint32  proximityThreshold;
1034:Generated_Source\PSoC4/Input_Capsense_Processing.c ****         #endif /* (0 != Input_Capsense_PROXIMITY_WIDGET_EN) */
1035:Generated_Source\PSoC4/Input_Capsense_Processing.c ****     #endif /* #if (0u != (Input_Capsense_CSD_AUTOTUNE & Input_Capsense_CSD_SS_TH_EN)) */
1036:Generated_Source\PSoC4/Input_Capsense_Processing.c **** 
1037:Generated_Source\PSoC4/Input_Capsense_Processing.c ****     #if (Input_Capsense_ENABLE == Input_Capsense_RC_FILTER_EN)
1038:Generated_Source\PSoC4/Input_Capsense_Processing.c ****         Input_Capsense_PTR_FILTER_VARIANT fltrHistV;
1039:Generated_Source\PSoC4/Input_Capsense_Processing.c **** 
1040:Generated_Source\PSoC4/Input_Capsense_Processing.c ****         /* Determine if widget type is proximity */
1041:Generated_Source\PSoC4/Input_Capsense_Processing.c ****         uint32 isProxWdgt = (Input_Capsense_GET_WIDGET_TYPE(ptrFlashWdgt) == Input_Capsense_WD_PROX
1042:Generated_Source\PSoC4/Input_Capsense_Processing.c **** 
1043:Generated_Source\PSoC4/Input_Capsense_Processing.c ****         /* Get pointer to the filter history object */
1044:Generated_Source\PSoC4/Input_Capsense_Processing.c ****         fltrHistV.ptr = ptrFlashWdgt->ptr2FltrHistory;
1045:Generated_Source\PSoC4/Input_Capsense_Processing.c ****     #endif /* #if (Input_Capsense_ENABLE == Input_Capsense_RC_FILTER_EN) */
1046:Generated_Source\PSoC4/Input_Capsense_Processing.c **** 
1047:Generated_Source\PSoC4/Input_Capsense_Processing.c ****     ptrSnsTmp = ptrFlashWdgt->ptr2SnsRam;
1048:Generated_Source\PSoC4/Input_Capsense_Processing.c ****     ptrRamWdgt = (Input_Capsense_RAM_WD_BASE_STRUCT *)ptrFlashWdgt->ptr2WdgtRam;
1049:Generated_Source\PSoC4/Input_Capsense_Processing.c ****     widgetType = ptrFlashWdgt->wdgtType;
1050:Generated_Source\PSoC4/Input_Capsense_Processing.c **** 
1051:Generated_Source\PSoC4/Input_Capsense_Processing.c ****     #if (0u != (Input_Capsense_CSD_AUTOTUNE & Input_Capsense_CSD_SS_TH_EN))
1052:Generated_Source\PSoC4/Input_Capsense_Processing.c ****         ptrNoiseEnvelope = ptrFlashWdgt->ptr2NoiseEnvlp;
1053:Generated_Source\PSoC4/Input_Capsense_Processing.c ****     #endif /* #if (0u != (Input_Capsense_CSD_AUTOTUNE & Input_Capsense_CSD_SS_TH_EN)) */
1054:Generated_Source\PSoC4/Input_Capsense_Processing.c **** 
1055:Generated_Source\PSoC4/Input_Capsense_Processing.c ****     /* Iterate through all widget's sensors */
1056:Generated_Source\PSoC4/Input_Capsense_Processing.c ****     for(snsId = 0u; snsId < ptrFlashWdgt->totalNumSns; snsId++)
1057:Generated_Source\PSoC4/Input_Capsense_Processing.c ****     {
1058:Generated_Source\PSoC4/Input_Capsense_Processing.c ****         /* Run all enabled filter on specified widget's sensor */
1059:Generated_Source\PSoC4/Input_Capsense_Processing.c ****         #if (Input_Capsense_ENABLE == Input_Capsense_RC_FILTER_EN)
1060:Generated_Source\PSoC4/Input_Capsense_Processing.c ****             Input_Capsense_FtRunEnabledFiltersInternal(fltrHistV, ptrSnsTmp, widgetType);
1061:Generated_Source\PSoC4/Input_Capsense_Processing.c ****             #if (Input_Capsense_ALP_FILTER_EN)
1062:Generated_Source\PSoC4/Input_Capsense_Processing.c ****                 Input_Capsense_ConfigRunALPInternal(fltrHistV, ptrRamWdgt, ptrSnsTmp, widgetType);
1063:Generated_Source\PSoC4/Input_Capsense_Processing.c ****             #endif
1064:Generated_Source\PSoC4/Input_Capsense_Processing.c ****         #endif /* #if (Input_Capsense_ENABLE == Input_Capsense_RC_FILTER_EN) */
1065:Generated_Source\PSoC4/Input_Capsense_Processing.c **** 
ARM GAS  C:\Users\doita\AppData\Local\Temp\cc44fZpJ.s 			page 22


1066:Generated_Source\PSoC4/Input_Capsense_Processing.c ****         /* Run auto-tuning activities */
1067:Generated_Source\PSoC4/Input_Capsense_Processing.c ****         #if (0u != (Input_Capsense_CSD_AUTOTUNE & Input_Capsense_CSD_SS_TH_EN))
1068:Generated_Source\PSoC4/Input_Capsense_Processing.c ****             SmartSense_RunNoiseEnvelope(ptrSnsTmp->raw[0u], ptrRamWdgt->sigPFC, ptrNoiseEnvelope);
1069:Generated_Source\PSoC4/Input_Capsense_Processing.c ****             Input_Capsense_DpUpdateThresholds(ptrRamWdgt, ptrNoiseEnvelope, snsId);
1070:Generated_Source\PSoC4/Input_Capsense_Processing.c **** 
1071:Generated_Source\PSoC4/Input_Capsense_Processing.c ****             /* Calculate Proximity Touch Threshold in SmartSense mode based on Finger Threshold and
1072:Generated_Source\PSoC4/Input_Capsense_Processing.c ****             #if (Input_Capsense_ENABLE == Input_Capsense_PROXIMITY_WIDGET_EN)
1073:Generated_Source\PSoC4/Input_Capsense_Processing.c ****                 if (Input_Capsense_WD_PROXIMITY_E == Input_Capsense_GET_WIDGET_TYPE(ptrFlashWdgt))
1074:Generated_Source\PSoC4/Input_Capsense_Processing.c ****                 {
1075:Generated_Source\PSoC4/Input_Capsense_Processing.c ****                     proximityThreshold = ((uint32)ptrRamWdgt->fingerTh * Input_Capsense_PROX_TOUCH_
1076:Generated_Source\PSoC4/Input_Capsense_Processing.c ****                     if ((((1Lu) << Input_Capsense_THRESHOLD_SIZE) - 1u) < proximityThreshold)
1077:Generated_Source\PSoC4/Input_Capsense_Processing.c ****                     {
1078:Generated_Source\PSoC4/Input_Capsense_Processing.c ****                         proximityThreshold = ((1Lu) << Input_Capsense_THRESHOLD_SIZE) - 1u;
1079:Generated_Source\PSoC4/Input_Capsense_Processing.c ****                     }
1080:Generated_Source\PSoC4/Input_Capsense_Processing.c ****                     ((Input_Capsense_RAM_WD_PROXIMITY_STRUCT *)ptrFlashWdgt->ptr2WdgtRam)->proxTouc
1081:Generated_Source\PSoC4/Input_Capsense_Processing.c ****                         (Input_Capsense_THRESHOLD_TYPE)proximityThreshold;
1082:Generated_Source\PSoC4/Input_Capsense_Processing.c ****                 }
1083:Generated_Source\PSoC4/Input_Capsense_Processing.c ****             #endif /* (0 != Input_Capsense_PROXIMITY_WIDGET_EN) */
1084:Generated_Source\PSoC4/Input_Capsense_Processing.c **** 
1085:Generated_Source\PSoC4/Input_Capsense_Processing.c ****             /* Move to next noise-envelope object */
1086:Generated_Source\PSoC4/Input_Capsense_Processing.c ****             ptrNoiseEnvelope++;
1087:Generated_Source\PSoC4/Input_Capsense_Processing.c ****         #endif /* (0u != (Input_Capsense_CSD_AUTOTUNE & Input_Capsense_CSD_SS_TH_EN)) */
1088:Generated_Source\PSoC4/Input_Capsense_Processing.c **** 
1089:Generated_Source\PSoC4/Input_Capsense_Processing.c ****         #if (Input_Capsense_ENABLE == Input_Capsense_TST_BSLN_DUPLICATION_EN)
1090:Generated_Source\PSoC4/Input_Capsense_Processing.c ****             bslnTstResult = Input_Capsense_FtUpdateBaseline(ptrRamWdgt, ptrSnsTmp, widgetType);
1091:Generated_Source\PSoC4/Input_Capsense_Processing.c ****             if ((CYRET_SUCCESS != bslnTstResult) && (CYRET_SUCCESS == result))
1092:Generated_Source\PSoC4/Input_Capsense_Processing.c ****             {
1093:Generated_Source\PSoC4/Input_Capsense_Processing.c ****                 result = snsId | Input_Capsense_PROCESS_BASELINE_FAILED;
1094:Generated_Source\PSoC4/Input_Capsense_Processing.c ****             }
1095:Generated_Source\PSoC4/Input_Capsense_Processing.c ****         #else /* (Input_Capsense_ENABLE == Input_Capsense_TST_BSLN_DUPLICATION_EN) */
1096:Generated_Source\PSoC4/Input_Capsense_Processing.c ****             result = Input_Capsense_FtUpdateBaseline(ptrRamWdgt, ptrSnsTmp, widgetType);
1097:Generated_Source\PSoC4/Input_Capsense_Processing.c ****         #endif /* (Input_Capsense_ENABLE == Input_Capsense_TST_BSLN_DUPLICATION_EN) */
1098:Generated_Source\PSoC4/Input_Capsense_Processing.c **** 
1099:Generated_Source\PSoC4/Input_Capsense_Processing.c ****         Input_Capsense_DpUpdateDifferences(ptrRamWdgt, ptrSnsTmp);
1100:Generated_Source\PSoC4/Input_Capsense_Processing.c **** 
1101:Generated_Source\PSoC4/Input_Capsense_Processing.c ****         /* Move to next sensor object */
1102:Generated_Source\PSoC4/Input_Capsense_Processing.c ****         ptrSnsTmp++;
1103:Generated_Source\PSoC4/Input_Capsense_Processing.c **** 
1104:Generated_Source\PSoC4/Input_Capsense_Processing.c ****         #if (Input_Capsense_ENABLE == Input_Capsense_RC_FILTER_EN)
1105:Generated_Source\PSoC4/Input_Capsense_Processing.c ****             /* Move to the next filter history object */
1106:Generated_Source\PSoC4/Input_Capsense_Processing.c ****             Input_Capsense_INC_FLTR_OBJ_VARIANT(isProxWdgt, fltrHistV);
1107:Generated_Source\PSoC4/Input_Capsense_Processing.c ****         #endif /* #if (Input_Capsense_ENABLE == Input_Capsense_RC_FILTER_EN) */
1108:Generated_Source\PSoC4/Input_Capsense_Processing.c ****     }
1109:Generated_Source\PSoC4/Input_Capsense_Processing.c ****     return result;
1110:Generated_Source\PSoC4/Input_Capsense_Processing.c **** }
1111:Generated_Source\PSoC4/Input_Capsense_Processing.c **** 
1112:Generated_Source\PSoC4/Input_Capsense_Processing.c **** 
1113:Generated_Source\PSoC4/Input_Capsense_Processing.c **** /*******************************************************************************
1114:Generated_Source\PSoC4/Input_Capsense_Processing.c **** * Function Name: Input_Capsense_DpProcessCsdSensorRawCountsExt
1115:Generated_Source\PSoC4/Input_Capsense_Processing.c **** ****************************************************************************//**
1116:Generated_Source\PSoC4/Input_Capsense_Processing.c **** *
1117:Generated_Source\PSoC4/Input_Capsense_Processing.c **** * \brief
1118:Generated_Source\PSoC4/Input_Capsense_Processing.c **** *   Performs customized processing of the CSD sensor raw counts.
1119:Generated_Source\PSoC4/Input_Capsense_Processing.c **** *
1120:Generated_Source\PSoC4/Input_Capsense_Processing.c **** * \details
1121:Generated_Source\PSoC4/Input_Capsense_Processing.c **** *   Performs customized processing of the CSD sensor raw counts.
1122:Generated_Source\PSoC4/Input_Capsense_Processing.c **** *
ARM GAS  C:\Users\doita\AppData\Local\Temp\cc44fZpJ.s 			page 23


1123:Generated_Source\PSoC4/Input_Capsense_Processing.c **** *   Note that this API updates data associated only with the sensor. It cannot be used to update
1124:Generated_Source\PSoC4/Input_Capsense_Processing.c **** *   widget status.
1125:Generated_Source\PSoC4/Input_Capsense_Processing.c **** *
1126:Generated_Source\PSoC4/Input_Capsense_Processing.c **** * \param ptrFlashWdgt The pointer to the Flash widget structure.
1127:Generated_Source\PSoC4/Input_Capsense_Processing.c **** * \param curSnsPtr    The pointer to the sensor object in RAM.
1128:Generated_Source\PSoC4/Input_Capsense_Processing.c **** * \param fltrHistV    The pointer to the Filter History Object in RAM.
1129:Generated_Source\PSoC4/Input_Capsense_Processing.c **** * \param mode         The bit-mask with the data processing tasks to be executed.
1130:Generated_Source\PSoC4/Input_Capsense_Processing.c **** *   The mode parameters can take the following values:
1131:Generated_Source\PSoC4/Input_Capsense_Processing.c **** *    - Input_Capsense_PROCESS_FILTER     (0x01) Run Firmware Filter
1132:Generated_Source\PSoC4/Input_Capsense_Processing.c **** *    - Input_Capsense_PROCESS_BASELINE   (0x02) Update Baselines
1133:Generated_Source\PSoC4/Input_Capsense_Processing.c **** *    - Input_Capsense_PROCESS_DIFFCOUNTS (0x04) Update Difference Counts
1134:Generated_Source\PSoC4/Input_Capsense_Processing.c **** *    - Input_Capsense_PROCESS_CALC_NOISE (0x08) Calculate Noise (only if FW Tuning is enabled)
1135:Generated_Source\PSoC4/Input_Capsense_Processing.c **** *    - Input_Capsense_PROCESS_THRESHOLDS (0x10) Update Thresholds (only if FW Tuning is enabled)
1136:Generated_Source\PSoC4/Input_Capsense_Processing.c **** *    - Input_Capsense_PROCESS_ALL               Execute all tasks
1137:Generated_Source\PSoC4/Input_Capsense_Processing.c **** *
1138:Generated_Source\PSoC4/Input_Capsense_Processing.c **** * \return
1139:Generated_Source\PSoC4/Input_Capsense_Processing.c **** *  Returns the status of the specified sensor processing operation:
1140:Generated_Source\PSoC4/Input_Capsense_Processing.c **** *  - CYRET_SUCCESS if operation was successfully completed.
1141:Generated_Source\PSoC4/Input_Capsense_Processing.c **** *  - Input_Capsense_PROCESS_BASELINE_FAILED if baseline processing of any
1142:Generated_Source\PSoC4/Input_Capsense_Processing.c **** *    sensor of the specified widget failed. The result is concatenated with the index
1143:Generated_Source\PSoC4/Input_Capsense_Processing.c **** *    of failed sensor.
1144:Generated_Source\PSoC4/Input_Capsense_Processing.c **** *
1145:Generated_Source\PSoC4/Input_Capsense_Processing.c **** *******************************************************************************/
1146:Generated_Source\PSoC4/Input_Capsense_Processing.c **** uint32 Input_Capsense_DpProcessCsdSensorRawCountsExt(
1147:Generated_Source\PSoC4/Input_Capsense_Processing.c ****                 Input_Capsense_FLASH_WD_STRUCT const *ptrFlashWdgt,
1148:Generated_Source\PSoC4/Input_Capsense_Processing.c ****                 Input_Capsense_RAM_SNS_STRUCT *curSnsPtr,
1149:Generated_Source\PSoC4/Input_Capsense_Processing.c ****                 Input_Capsense_PTR_FILTER_VARIANT fltrHistV,
1150:Generated_Source\PSoC4/Input_Capsense_Processing.c ****                  uint32 mode)
1151:Generated_Source\PSoC4/Input_Capsense_Processing.c **** {
1152:Generated_Source\PSoC4/Input_Capsense_Processing.c ****     uint32 result = CYRET_SUCCESS;
1153:Generated_Source\PSoC4/Input_Capsense_Processing.c ****     uint32  widgetType;
1154:Generated_Source\PSoC4/Input_Capsense_Processing.c ****     Input_Capsense_RAM_WD_BASE_STRUCT *ptrRamWdgt;
1155:Generated_Source\PSoC4/Input_Capsense_Processing.c **** 
1156:Generated_Source\PSoC4/Input_Capsense_Processing.c ****     #if (0u != (Input_Capsense_CSD_AUTOTUNE & Input_Capsense_CSD_SS_TH_EN))
1157:Generated_Source\PSoC4/Input_Capsense_Processing.c ****         SMARTSENSE_CSD_NOISE_ENVELOPE_STRUCT *ptrNoiseEnvelope;
1158:Generated_Source\PSoC4/Input_Capsense_Processing.c ****         #if (Input_Capsense_ENABLE == Input_Capsense_PROXIMITY_WIDGET_EN)
1159:Generated_Source\PSoC4/Input_Capsense_Processing.c ****             uint32  proximityThreshold;
1160:Generated_Source\PSoC4/Input_Capsense_Processing.c ****         #endif /* (0 != Input_Capsense_PROXIMITY_WIDGET_EN) */
1161:Generated_Source\PSoC4/Input_Capsense_Processing.c **** 
1162:Generated_Source\PSoC4/Input_Capsense_Processing.c ****         /* Need to specify pointer to corresponding sensor's noise-envelope object.*/
1163:Generated_Source\PSoC4/Input_Capsense_Processing.c ****         ptrNoiseEnvelope = ptrFlashWdgt->ptr2NoiseEnvlp;
1164:Generated_Source\PSoC4/Input_Capsense_Processing.c ****     #endif /* (0u != (Input_Capsense_CSD_AUTOTUNE & Input_Capsense_CSD_SS_TH_EN)) */
1165:Generated_Source\PSoC4/Input_Capsense_Processing.c **** 
1166:Generated_Source\PSoC4/Input_Capsense_Processing.c ****     widgetType = ptrFlashWdgt->wdgtType;
1167:Generated_Source\PSoC4/Input_Capsense_Processing.c ****     ptrRamWdgt = (Input_Capsense_RAM_WD_BASE_STRUCT *)ptrFlashWdgt->ptr2WdgtRam;
1168:Generated_Source\PSoC4/Input_Capsense_Processing.c **** 
1169:Generated_Source\PSoC4/Input_Capsense_Processing.c ****     #if (Input_Capsense_ENABLE == Input_Capsense_RC_FILTER_EN)
1170:Generated_Source\PSoC4/Input_Capsense_Processing.c ****         if (0u != (mode & Input_Capsense_PROCESS_FILTER))
1171:Generated_Source\PSoC4/Input_Capsense_Processing.c ****         {
1172:Generated_Source\PSoC4/Input_Capsense_Processing.c ****             Input_Capsense_FtRunEnabledFiltersInternal(fltrHistV, curSnsPtr, widgetType);
1173:Generated_Source\PSoC4/Input_Capsense_Processing.c ****             #if (Input_Capsense_ALP_FILTER_EN)
1174:Generated_Source\PSoC4/Input_Capsense_Processing.c ****                 Input_Capsense_ConfigRunALPInternal(fltrHistV, ptrRamWdgt, curSnsPtr, widgetType);
1175:Generated_Source\PSoC4/Input_Capsense_Processing.c ****             #endif
1176:Generated_Source\PSoC4/Input_Capsense_Processing.c ****         }
1177:Generated_Source\PSoC4/Input_Capsense_Processing.c ****     #else
1178:Generated_Source\PSoC4/Input_Capsense_Processing.c ****         (void)fltrHistV; /* This parameter is unused in such configurations */
1179:Generated_Source\PSoC4/Input_Capsense_Processing.c ****     #endif /* #if (Input_Capsense_ENABLE == Input_Capsense_RC_FILTER_EN) */
ARM GAS  C:\Users\doita\AppData\Local\Temp\cc44fZpJ.s 			page 24


1180:Generated_Source\PSoC4/Input_Capsense_Processing.c **** 
1181:Generated_Source\PSoC4/Input_Capsense_Processing.c ****     #if (0u != (Input_Capsense_CSD_AUTOTUNE & Input_Capsense_CSD_SS_TH_EN))
1182:Generated_Source\PSoC4/Input_Capsense_Processing.c ****         if (0u != (mode & Input_Capsense_PROCESS_CALC_NOISE))
1183:Generated_Source\PSoC4/Input_Capsense_Processing.c ****         {
1184:Generated_Source\PSoC4/Input_Capsense_Processing.c ****             SmartSense_RunNoiseEnvelope(curSnsPtr->raw[0u], ptrRamWdgt->sigPFC, ptrNoiseEnvelope);
1185:Generated_Source\PSoC4/Input_Capsense_Processing.c ****         }
1186:Generated_Source\PSoC4/Input_Capsense_Processing.c **** 
1187:Generated_Source\PSoC4/Input_Capsense_Processing.c ****         if (0u != (mode & Input_Capsense_PROCESS_THRESHOLDS))
1188:Generated_Source\PSoC4/Input_Capsense_Processing.c ****         {
1189:Generated_Source\PSoC4/Input_Capsense_Processing.c ****             Input_Capsense_DpUpdateThresholds(ptrRamWdgt, ptrNoiseEnvelope, 0u);
1190:Generated_Source\PSoC4/Input_Capsense_Processing.c **** 
1191:Generated_Source\PSoC4/Input_Capsense_Processing.c ****             /* Calculate Proximity Touch Threshold in SmartSense mode based on Finger Threshold and
1192:Generated_Source\PSoC4/Input_Capsense_Processing.c ****             #if (Input_Capsense_ENABLE == Input_Capsense_PROXIMITY_WIDGET_EN)
1193:Generated_Source\PSoC4/Input_Capsense_Processing.c ****                 if (Input_Capsense_WD_PROXIMITY_E == Input_Capsense_GET_WIDGET_TYPE(ptrFlashWdgt))
1194:Generated_Source\PSoC4/Input_Capsense_Processing.c ****                 {
1195:Generated_Source\PSoC4/Input_Capsense_Processing.c ****                     proximityThreshold = ((uint32)ptrRamWdgt->fingerTh * Input_Capsense_PROX_TOUCH_
1196:Generated_Source\PSoC4/Input_Capsense_Processing.c ****                     if ((((1Lu) << Input_Capsense_THRESHOLD_SIZE) - 1u) < proximityThreshold)
1197:Generated_Source\PSoC4/Input_Capsense_Processing.c ****                     {
1198:Generated_Source\PSoC4/Input_Capsense_Processing.c ****                         proximityThreshold = ((1Lu) << Input_Capsense_THRESHOLD_SIZE) - 1u;
1199:Generated_Source\PSoC4/Input_Capsense_Processing.c ****                     }
1200:Generated_Source\PSoC4/Input_Capsense_Processing.c ****                     ((Input_Capsense_RAM_WD_PROXIMITY_STRUCT *)ptrFlashWdgt->ptr2WdgtRam)->proxTouc
1201:Generated_Source\PSoC4/Input_Capsense_Processing.c ****                         (Input_Capsense_THRESHOLD_TYPE)proximityThreshold;
1202:Generated_Source\PSoC4/Input_Capsense_Processing.c ****                 }
1203:Generated_Source\PSoC4/Input_Capsense_Processing.c ****             #endif /* (0 != Input_Capsense_PROXIMITY_WIDGET_EN) */
1204:Generated_Source\PSoC4/Input_Capsense_Processing.c ****         }
1205:Generated_Source\PSoC4/Input_Capsense_Processing.c ****     #endif /* #if (0u != (Input_Capsense_CSD_AUTOTUNE & Input_Capsense_CSD_SS_TH_EN)) */
1206:Generated_Source\PSoC4/Input_Capsense_Processing.c **** 
1207:Generated_Source\PSoC4/Input_Capsense_Processing.c ****     if (0u != (mode & Input_Capsense_PROCESS_BASELINE))
1208:Generated_Source\PSoC4/Input_Capsense_Processing.c ****     {
1209:Generated_Source\PSoC4/Input_Capsense_Processing.c ****         result = Input_Capsense_FtUpdateBaseline(ptrRamWdgt, curSnsPtr, widgetType);
1210:Generated_Source\PSoC4/Input_Capsense_Processing.c ****     }
1211:Generated_Source\PSoC4/Input_Capsense_Processing.c **** 
1212:Generated_Source\PSoC4/Input_Capsense_Processing.c ****     if (0u != (mode & Input_Capsense_PROCESS_DIFFCOUNTS))
1213:Generated_Source\PSoC4/Input_Capsense_Processing.c ****     {
1214:Generated_Source\PSoC4/Input_Capsense_Processing.c ****         Input_Capsense_DpUpdateDifferences(ptrRamWdgt, curSnsPtr);
1215:Generated_Source\PSoC4/Input_Capsense_Processing.c ****     }
1216:Generated_Source\PSoC4/Input_Capsense_Processing.c ****     return result;
1217:Generated_Source\PSoC4/Input_Capsense_Processing.c **** }
1218:Generated_Source\PSoC4/Input_Capsense_Processing.c **** 
1219:Generated_Source\PSoC4/Input_Capsense_Processing.c **** /*******************************************************************************
1220:Generated_Source\PSoC4/Input_Capsense_Processing.c **** * Function Name: Input_Capsense_DpProcessCsdWidgetStatus
1221:Generated_Source\PSoC4/Input_Capsense_Processing.c **** ****************************************************************************//**
1222:Generated_Source\PSoC4/Input_Capsense_Processing.c **** *
1223:Generated_Source\PSoC4/Input_Capsense_Processing.c **** * \brief
1224:Generated_Source\PSoC4/Input_Capsense_Processing.c **** *  Runs the status processing of the CSD widget and updates it in the Data Structure.
1225:Generated_Source\PSoC4/Input_Capsense_Processing.c **** *
1226:Generated_Source\PSoC4/Input_Capsense_Processing.c **** * \details
1227:Generated_Source\PSoC4/Input_Capsense_Processing.c **** *  This API determines the widget type and calls the appropriate low-level processing
1228:Generated_Source\PSoC4/Input_Capsense_Processing.c **** *  function. Based on the returned results it updates the widget and sensor
1229:Generated_Source\PSoC4/Input_Capsense_Processing.c **** *  status in the data structure. Any widget specific registers like the centroid
1230:Generated_Source\PSoC4/Input_Capsense_Processing.c **** *  position are updated directly in the low-level processing function.
1231:Generated_Source\PSoC4/Input_Capsense_Processing.c **** *
1232:Generated_Source\PSoC4/Input_Capsense_Processing.c **** *  When the widget-specific processing completes this API updates the snsStatus
1233:Generated_Source\PSoC4/Input_Capsense_Processing.c **** *  and wdgtStatus registers in the data structure. The wdgtStatus register
1234:Generated_Source\PSoC4/Input_Capsense_Processing.c **** *  is a bitmask were each bit corresponds to the specific widget identified by
1235:Generated_Source\PSoC4/Input_Capsense_Processing.c **** *  the widget index. When the bit is set the widget is active (touched);
1236:Generated_Source\PSoC4/Input_Capsense_Processing.c **** *
ARM GAS  C:\Users\doita\AppData\Local\Temp\cc44fZpJ.s 			page 25


1237:Generated_Source\PSoC4/Input_Capsense_Processing.c **** *  The snsStatus register for CSD widgets contains status of each widget sensor
1238:Generated_Source\PSoC4/Input_Capsense_Processing.c **** *  (active/non-active). Each bit corresponds to one sensor. In case of the
1239:Generated_Source\PSoC4/Input_Capsense_Processing.c **** *  Proximity widget two bits are used per sensor: one for proximity status and
1240:Generated_Source\PSoC4/Input_Capsense_Processing.c **** *  second for the touch status.
1241:Generated_Source\PSoC4/Input_Capsense_Processing.c **** *
1242:Generated_Source\PSoC4/Input_Capsense_Processing.c **** * \param widgetId      The widget index number.
1243:Generated_Source\PSoC4/Input_Capsense_Processing.c **** * \param ptrFlashWdgt  The pointer to the Flash widget structure.
1244:Generated_Source\PSoC4/Input_Capsense_Processing.c **** *
1245:Generated_Source\PSoC4/Input_Capsense_Processing.c **** *******************************************************************************/
1246:Generated_Source\PSoC4/Input_Capsense_Processing.c **** void Input_Capsense_DpProcessCsdWidgetStatus(uint32 widgetId, Input_Capsense_FLASH_WD_STRUCT const 
1247:Generated_Source\PSoC4/Input_Capsense_Processing.c **** {
1248:Generated_Source\PSoC4/Input_Capsense_Processing.c ****     uint32 sensorStatus;
1249:Generated_Source\PSoC4/Input_Capsense_Processing.c ****     uint32 wdStatusIndex;
1250:Generated_Source\PSoC4/Input_Capsense_Processing.c ****     uint32 wdStatusMask;
1251:Generated_Source\PSoC4/Input_Capsense_Processing.c ****     Input_Capsense_WD_TYPE_ENUM widgetType;
1252:Generated_Source\PSoC4/Input_Capsense_Processing.c **** 
1253:Generated_Source\PSoC4/Input_Capsense_Processing.c ****     widgetType = (Input_Capsense_WD_TYPE_ENUM)ptrFlashWdgt->wdgtType;
1254:Generated_Source\PSoC4/Input_Capsense_Processing.c ****     sensorStatus = Input_Capsense_dsRam.snsStatus[widgetId];
1255:Generated_Source\PSoC4/Input_Capsense_Processing.c **** 
1256:Generated_Source\PSoC4/Input_Capsense_Processing.c ****     switch (widgetType)
1257:Generated_Source\PSoC4/Input_Capsense_Processing.c ****     {
1258:Generated_Source\PSoC4/Input_Capsense_Processing.c ****     #if (0u != Input_Capsense_BUTTON_WIDGET_EN)
1259:Generated_Source\PSoC4/Input_Capsense_Processing.c ****         case Input_Capsense_WD_BUTTON_E:
1260:Generated_Source\PSoC4/Input_Capsense_Processing.c ****             sensorStatus = Input_Capsense_DpProcessButton(sensorStatus, ptrFlashWdgt);
1261:Generated_Source\PSoC4/Input_Capsense_Processing.c ****             break;
1262:Generated_Source\PSoC4/Input_Capsense_Processing.c ****     #endif /* #if (0u != Input_Capsense_BUTTON_WIDGET_EN) */
1263:Generated_Source\PSoC4/Input_Capsense_Processing.c **** 
1264:Generated_Source\PSoC4/Input_Capsense_Processing.c ****     #if (0u != Input_Capsense_SLIDER_WIDGET_EN)
1265:Generated_Source\PSoC4/Input_Capsense_Processing.c ****         case Input_Capsense_WD_LINEAR_SLIDER_E:
1266:Generated_Source\PSoC4/Input_Capsense_Processing.c ****         case Input_Capsense_WD_RADIAL_SLIDER_E:
1267:Generated_Source\PSoC4/Input_Capsense_Processing.c ****             sensorStatus = Input_Capsense_DpProcessSlider(sensorStatus, ptrFlashWdgt);
1268:Generated_Source\PSoC4/Input_Capsense_Processing.c ****             break;
1269:Generated_Source\PSoC4/Input_Capsense_Processing.c ****     #endif /* #if (0u != Input_Capsense_SLIDER_WIDGET_EN) */
1270:Generated_Source\PSoC4/Input_Capsense_Processing.c **** 
1271:Generated_Source\PSoC4/Input_Capsense_Processing.c ****     #if (0u != Input_Capsense_CSD_MATRIX_WIDGET_EN)
1272:Generated_Source\PSoC4/Input_Capsense_Processing.c ****         case Input_Capsense_WD_MATRIX_BUTTON_E:
1273:Generated_Source\PSoC4/Input_Capsense_Processing.c ****             sensorStatus = Input_Capsense_DpProcessCsdMatrix(sensorStatus, ptrFlashWdgt);
1274:Generated_Source\PSoC4/Input_Capsense_Processing.c ****             break;
1275:Generated_Source\PSoC4/Input_Capsense_Processing.c ****     #endif /* #if (0u != Input_Capsense_CSD_MATRIX_WIDGET_EN) */
1276:Generated_Source\PSoC4/Input_Capsense_Processing.c **** 
1277:Generated_Source\PSoC4/Input_Capsense_Processing.c ****     #if (0u != Input_Capsense_CSD_TOUCHPAD_WIDGET_EN)
1278:Generated_Source\PSoC4/Input_Capsense_Processing.c ****         case Input_Capsense_WD_TOUCHPAD_E:
1279:Generated_Source\PSoC4/Input_Capsense_Processing.c ****             sensorStatus = Input_Capsense_DpProcessCsdTouchpad(sensorStatus, ptrFlashWdgt);
1280:Generated_Source\PSoC4/Input_Capsense_Processing.c ****             #if (0u != Input_Capsense_BALLISTIC_MULTIPLIER_EN)
1281:Generated_Source\PSoC4/Input_Capsense_Processing.c ****                 Input_Capsense_RunBallisticMultiplier(widgetId);
1282:Generated_Source\PSoC4/Input_Capsense_Processing.c ****             #endif /* (0u != Input_Capsense_BALLISTIC_MULTIPLIER_EN) */
1283:Generated_Source\PSoC4/Input_Capsense_Processing.c ****             break;
1284:Generated_Source\PSoC4/Input_Capsense_Processing.c ****     #endif /* #if (0u != Input_Capsense_CSD_TOUCHPAD_WIDGET_EN) */
1285:Generated_Source\PSoC4/Input_Capsense_Processing.c **** 
1286:Generated_Source\PSoC4/Input_Capsense_Processing.c ****     #if (0u != Input_Capsense_PROXIMITY_WIDGET_EN)
1287:Generated_Source\PSoC4/Input_Capsense_Processing.c ****         case Input_Capsense_WD_PROXIMITY_E:
1288:Generated_Source\PSoC4/Input_Capsense_Processing.c ****             sensorStatus = Input_Capsense_DpProcessProximity(sensorStatus, ptrFlashWdgt);
1289:Generated_Source\PSoC4/Input_Capsense_Processing.c ****             break;
1290:Generated_Source\PSoC4/Input_Capsense_Processing.c ****     #endif /* #if (0u != Input_Capsense_PROXIMITY_WIDGET_EN) */
1291:Generated_Source\PSoC4/Input_Capsense_Processing.c **** 
1292:Generated_Source\PSoC4/Input_Capsense_Processing.c ****     default:
1293:Generated_Source\PSoC4/Input_Capsense_Processing.c ****         CYASSERT(0u);
ARM GAS  C:\Users\doita\AppData\Local\Temp\cc44fZpJ.s 			page 26


1294:Generated_Source\PSoC4/Input_Capsense_Processing.c ****         break;
1295:Generated_Source\PSoC4/Input_Capsense_Processing.c ****     }
1296:Generated_Source\PSoC4/Input_Capsense_Processing.c **** 
1297:Generated_Source\PSoC4/Input_Capsense_Processing.c ****     Input_Capsense_dsRam.snsStatus[widgetId] = (Input_Capsense_SNS_STS_TYPE)sensorStatus;
1298:Generated_Source\PSoC4/Input_Capsense_Processing.c **** 
1299:Generated_Source\PSoC4/Input_Capsense_Processing.c ****     /* The next two lines calculate index and bitmask of the widget status bit in the wdgtStatus ar
1300:Generated_Source\PSoC4/Input_Capsense_Processing.c ****     wdStatusIndex = Input_Capsense_GET_WDGT_STATUS_INDEX(widgetId);
1301:Generated_Source\PSoC4/Input_Capsense_Processing.c ****     wdStatusMask = Input_Capsense_GET_WDGT_STATUS_MASK(widgetId);
1302:Generated_Source\PSoC4/Input_Capsense_Processing.c **** 
1303:Generated_Source\PSoC4/Input_Capsense_Processing.c ****     /* Check if there are active sensors and update widget status accordingly */
1304:Generated_Source\PSoC4/Input_Capsense_Processing.c ****     if (0u == sensorStatus)
1305:Generated_Source\PSoC4/Input_Capsense_Processing.c ****     {
1306:Generated_Source\PSoC4/Input_Capsense_Processing.c ****         Input_Capsense_dsRam.wdgtStatus[wdStatusIndex] &= ~wdStatusMask;
1307:Generated_Source\PSoC4/Input_Capsense_Processing.c ****     }
1308:Generated_Source\PSoC4/Input_Capsense_Processing.c ****     else
1309:Generated_Source\PSoC4/Input_Capsense_Processing.c ****     {
1310:Generated_Source\PSoC4/Input_Capsense_Processing.c ****         Input_Capsense_dsRam.wdgtStatus[wdStatusIndex] |= wdStatusMask;
1311:Generated_Source\PSoC4/Input_Capsense_Processing.c ****     }
1312:Generated_Source\PSoC4/Input_Capsense_Processing.c **** }
1313:Generated_Source\PSoC4/Input_Capsense_Processing.c **** #endif /* #if (0u != Input_Capsense_TOTAL_CSD_WIDGETS) */
1314:Generated_Source\PSoC4/Input_Capsense_Processing.c **** 
1315:Generated_Source\PSoC4/Input_Capsense_Processing.c **** 
1316:Generated_Source\PSoC4/Input_Capsense_Processing.c **** #if (0 != (Input_Capsense_CSD_AUTOTUNE & Input_Capsense_CSD_SS_TH_EN))
1317:Generated_Source\PSoC4/Input_Capsense_Processing.c **** /*******************************************************************************
1318:Generated_Source\PSoC4/Input_Capsense_Processing.c **** * Function Name: Input_Capsense_DpUpdateThresholds
1319:Generated_Source\PSoC4/Input_Capsense_Processing.c **** ****************************************************************************//**
1320:Generated_Source\PSoC4/Input_Capsense_Processing.c **** *
1321:Generated_Source\PSoC4/Input_Capsense_Processing.c **** * \brief
1322:Generated_Source\PSoC4/Input_Capsense_Processing.c **** *   Updates noise and finger thresholds for a specified widget.
1323:Generated_Source\PSoC4/Input_Capsense_Processing.c **** *
1324:Generated_Source\PSoC4/Input_Capsense_Processing.c **** * \details
1325:Generated_Source\PSoC4/Input_Capsense_Processing.c **** *   Updates noise and finger thresholds for a specified widget.
1326:Generated_Source\PSoC4/Input_Capsense_Processing.c **** *   This algorithm is a part of Auto-tuning feature.
1327:Generated_Source\PSoC4/Input_Capsense_Processing.c **** *
1328:Generated_Source\PSoC4/Input_Capsense_Processing.c **** * \param ptrRamWdgt       The pointer to the RAM widget object.
1329:Generated_Source\PSoC4/Input_Capsense_Processing.c **** * \param ptrNoiseEnvelope The pointer to the noise-envelope object in RAM.
1330:Generated_Source\PSoC4/Input_Capsense_Processing.c **** * \param startFlag        The flag indicates when new widget is processed.
1331:Generated_Source\PSoC4/Input_Capsense_Processing.c **** *
1332:Generated_Source\PSoC4/Input_Capsense_Processing.c **** *******************************************************************************/
1333:Generated_Source\PSoC4/Input_Capsense_Processing.c **** void Input_Capsense_DpUpdateThresholds(Input_Capsense_RAM_WD_BASE_STRUCT *ptrRamWdgt,
1334:Generated_Source\PSoC4/Input_Capsense_Processing.c ****                                          SMARTSENSE_CSD_NOISE_ENVELOPE_STRUCT *ptrNoiseEnvelope,
1335:Generated_Source\PSoC4/Input_Capsense_Processing.c ****                                          uint32 startFlag)
1336:Generated_Source\PSoC4/Input_Capsense_Processing.c **** {
 128              		.loc 1 1336 0
 129              		.cfi_startproc
 130              		@ args = 0, pretend = 0, frame = 8
 131              		@ frame_needed = 0, uses_anonymous_args = 0
 132              	.LVL14:
 133 0000 10B5     		push	{r4, lr}
 134              		.cfi_def_cfa_offset 8
 135              		.cfi_offset 4, -8
 136              		.cfi_offset 14, -4
 137 0002 82B0     		sub	sp, sp, #8
 138              		.cfi_def_cfa_offset 16
 139 0004 0400     		movs	r4, r0
 140 0006 0800     		movs	r0, r1
 141              	.LVL15:
ARM GAS  C:\Users\doita\AppData\Local\Temp\cc44fZpJ.s 			page 27


 142 0008 1300     		movs	r3, r2
 143              	.LVL16:
1337:Generated_Source\PSoC4/Input_Capsense_Processing.c ****     SMARTSENSE_UPDATE_THRESHOLDS_STRUCT thresholds;
1338:Generated_Source\PSoC4/Input_Capsense_Processing.c ****     SMARTSENSE_UPDATE_THRESHOLDS_STRUCT *ptrThresholds = &thresholds;
1339:Generated_Source\PSoC4/Input_Capsense_Processing.c ****     ptrThresholds->fingerTh = ptrRamWdgt->fingerTh;
 144              		.loc 1 1339 0
 145 000a 6288     		ldrh	r2, [r4, #2]
 146              	.LVL17:
 147 000c 6946     		mov	r1, sp
 148              	.LVL18:
 149 000e 0A80     		strh	r2, [r1]
1340:Generated_Source\PSoC4/Input_Capsense_Processing.c **** 
1341:Generated_Source\PSoC4/Input_Capsense_Processing.c ****     SmartSense_UpdateThresholds(ptrNoiseEnvelope, ptrThresholds, ptrRamWdgt->sigPFC, startFlag);
 150              		.loc 1 1341 0
 151 0010 628A     		ldrh	r2, [r4, #18]
 152 0012 FFF7FEFF 		bl	SmartSense_UpdateThresholds
 153              	.LVL19:
1342:Generated_Source\PSoC4/Input_Capsense_Processing.c **** 
1343:Generated_Source\PSoC4/Input_Capsense_Processing.c ****     ptrRamWdgt->fingerTh = ptrThresholds->fingerTh;
 154              		.loc 1 1343 0
 155 0016 6B46     		mov	r3, sp
 156 0018 1B88     		ldrh	r3, [r3]
 157 001a 6380     		strh	r3, [r4, #2]
1344:Generated_Source\PSoC4/Input_Capsense_Processing.c ****     ptrRamWdgt->noiseTh = ptrThresholds->noiseTh;
 158              		.loc 1 1344 0
 159 001c 6B46     		mov	r3, sp
 160 001e 9B78     		ldrb	r3, [r3, #2]
 161 0020 2371     		strb	r3, [r4, #4]
1345:Generated_Source\PSoC4/Input_Capsense_Processing.c ****     ptrRamWdgt->nNoiseTh = ptrThresholds->nNoiseTh;
 162              		.loc 1 1345 0
 163 0022 6B46     		mov	r3, sp
 164 0024 DB78     		ldrb	r3, [r3, #3]
 165 0026 6371     		strb	r3, [r4, #5]
1346:Generated_Source\PSoC4/Input_Capsense_Processing.c ****     ptrRamWdgt->hysteresis = ptrThresholds->hysteresis;
 166              		.loc 1 1346 0
 167 0028 6B46     		mov	r3, sp
 168 002a 1B79     		ldrb	r3, [r3, #4]
 169 002c A371     		strb	r3, [r4, #6]
1347:Generated_Source\PSoC4/Input_Capsense_Processing.c **** }
 170              		.loc 1 1347 0
 171 002e 02B0     		add	sp, sp, #8
 172              	.LVL20:
 173              		@ sp needed
 174              	.LVL21:
 175 0030 10BD     		pop	{r4, pc}
 176              		.cfi_endproc
 177              	.LFE5:
 178              		.size	Input_Capsense_DpUpdateThresholds, .-Input_Capsense_DpUpdateThresholds
 179 0032 C046     		.section	.text.Input_Capsense_DpUpdateDifferences,"ax",%progbits
 180              		.align	2
 181              		.global	Input_Capsense_DpUpdateDifferences
 182              		.code	16
 183              		.thumb_func
 184              		.type	Input_Capsense_DpUpdateDifferences, %function
 185              	Input_Capsense_DpUpdateDifferences:
 186              	.LFB6:
1348:Generated_Source\PSoC4/Input_Capsense_Processing.c **** #endif /* #if (0u != (Input_Capsense_CSD_AUTOTUNE & Input_Capsense_CSD_SS_TH_EN)) */
ARM GAS  C:\Users\doita\AppData\Local\Temp\cc44fZpJ.s 			page 28


1349:Generated_Source\PSoC4/Input_Capsense_Processing.c **** 
1350:Generated_Source\PSoC4/Input_Capsense_Processing.c **** 
1351:Generated_Source\PSoC4/Input_Capsense_Processing.c **** /*******************************************************************************
1352:Generated_Source\PSoC4/Input_Capsense_Processing.c **** * Function Name: Input_Capsense_DpUpdateDifferences
1353:Generated_Source\PSoC4/Input_Capsense_Processing.c **** ****************************************************************************//**
1354:Generated_Source\PSoC4/Input_Capsense_Processing.c **** *
1355:Generated_Source\PSoC4/Input_Capsense_Processing.c **** * \brief
1356:Generated_Source\PSoC4/Input_Capsense_Processing.c **** *   Calculates new difference values.
1357:Generated_Source\PSoC4/Input_Capsense_Processing.c **** *   Also, executes the multi-frequency scan algorithm if it is enabled.
1358:Generated_Source\PSoC4/Input_Capsense_Processing.c **** *
1359:Generated_Source\PSoC4/Input_Capsense_Processing.c **** * \details
1360:Generated_Source\PSoC4/Input_Capsense_Processing.c **** *   This API calculates the difference between the baseline and raw counts.
1361:Generated_Source\PSoC4/Input_Capsense_Processing.c **** *   If the difference is positive (raw > baseline), and higher than the widget
1362:Generated_Source\PSoC4/Input_Capsense_Processing.c **** *   noise threshold, it is saved into the data structure for further processing.
1363:Generated_Source\PSoC4/Input_Capsense_Processing.c **** *   Otherwise the difference is set to zero. The final difference value is saved
1364:Generated_Source\PSoC4/Input_Capsense_Processing.c **** *   with the subtracted noise threshold value.
1365:Generated_Source\PSoC4/Input_Capsense_Processing.c **** *
1366:Generated_Source\PSoC4/Input_Capsense_Processing.c **** *   If the multi-frequency scan algorithm is enabled, the difference is calculated
1367:Generated_Source\PSoC4/Input_Capsense_Processing.c **** *   for the three sets of data available for each sensor. Then
1368:Generated_Source\PSoC4/Input_Capsense_Processing.c **** *   the median filter selects the final difference value.
1369:Generated_Source\PSoC4/Input_Capsense_Processing.c **** *
1370:Generated_Source\PSoC4/Input_Capsense_Processing.c **** * \param ptrRamWdgt The pointer to the RAR Widget Object.
1371:Generated_Source\PSoC4/Input_Capsense_Processing.c **** * \param curSnsPtr  The pointer to the sensor object in RAM.
1372:Generated_Source\PSoC4/Input_Capsense_Processing.c **** *
1373:Generated_Source\PSoC4/Input_Capsense_Processing.c **** *******************************************************************************/
1374:Generated_Source\PSoC4/Input_Capsense_Processing.c **** void Input_Capsense_DpUpdateDifferences(
1375:Generated_Source\PSoC4/Input_Capsense_Processing.c ****                         Input_Capsense_RAM_WD_BASE_STRUCT *ptrRamWdgt,
1376:Generated_Source\PSoC4/Input_Capsense_Processing.c ****                         Input_Capsense_RAM_SNS_STRUCT *curSnsPtr)
1377:Generated_Source\PSoC4/Input_Capsense_Processing.c **** {
 187              		.loc 1 1377 0
 188              		.cfi_startproc
 189              		@ args = 0, pretend = 0, frame = 0
 190              		@ frame_needed = 0, uses_anonymous_args = 0
 191              	.LVL22:
 192 0000 30B5     		push	{r4, r5, lr}
 193              		.cfi_def_cfa_offset 12
 194              		.cfi_offset 4, -12
 195              		.cfi_offset 5, -8
 196              		.cfi_offset 14, -4
 197              	.LVL23:
1378:Generated_Source\PSoC4/Input_Capsense_Processing.c ****     register int32 diffValue = 0;
1379:Generated_Source\PSoC4/Input_Capsense_Processing.c **** 
1380:Generated_Source\PSoC4/Input_Capsense_Processing.c ****     #if (0u != Input_Capsense_MULTI_FREQ_SCAN_EN)
1381:Generated_Source\PSoC4/Input_Capsense_Processing.c ****         register int32 diffValue_0 = 0;
1382:Generated_Source\PSoC4/Input_Capsense_Processing.c ****         register int32 diffValue_2 = 0;
1383:Generated_Source\PSoC4/Input_Capsense_Processing.c ****     #endif /* #if (0u != Input_Capsense_MULTI_FREQ_SCAN_EN) */
1384:Generated_Source\PSoC4/Input_Capsense_Processing.c **** 
1385:Generated_Source\PSoC4/Input_Capsense_Processing.c ****     /* Calculate difference */
1386:Generated_Source\PSoC4/Input_Capsense_Processing.c ****     diffValue = (int32)curSnsPtr->raw[0u] - (int32)curSnsPtr->bsln[0u];
 198              		.loc 1 1386 0
 199 0002 0B88     		ldrh	r3, [r1]
 200 0004 4A88     		ldrh	r2, [r1, #2]
 201 0006 9C1A     		subs	r4, r3, r2
 202              	.LVL24:
1387:Generated_Source\PSoC4/Input_Capsense_Processing.c **** 
1388:Generated_Source\PSoC4/Input_Capsense_Processing.c ****     #if (0u != Input_Capsense_MULTI_FREQ_SCAN_EN)
1389:Generated_Source\PSoC4/Input_Capsense_Processing.c ****         diffValue_0 = (int32)curSnsPtr->raw[1u] - (int32)curSnsPtr->bsln[1u];
ARM GAS  C:\Users\doita\AppData\Local\Temp\cc44fZpJ.s 			page 29


1390:Generated_Source\PSoC4/Input_Capsense_Processing.c ****         diffValue_2 = (int32)curSnsPtr->raw[2u] - (int32)curSnsPtr->bsln[2u];
1391:Generated_Source\PSoC4/Input_Capsense_Processing.c **** 
1392:Generated_Source\PSoC4/Input_Capsense_Processing.c ****         /* Find median and put it into [0u] element */
1393:Generated_Source\PSoC4/Input_Capsense_Processing.c ****         if (diffValue_0 > diffValue)
1394:Generated_Source\PSoC4/Input_Capsense_Processing.c ****         {
1395:Generated_Source\PSoC4/Input_Capsense_Processing.c ****             register int32 swapv = diffValue_0;
1396:Generated_Source\PSoC4/Input_Capsense_Processing.c ****             diffValue_0 = diffValue;
1397:Generated_Source\PSoC4/Input_Capsense_Processing.c ****             diffValue = swapv;
1398:Generated_Source\PSoC4/Input_Capsense_Processing.c ****         }
1399:Generated_Source\PSoC4/Input_Capsense_Processing.c **** 
1400:Generated_Source\PSoC4/Input_Capsense_Processing.c ****         if (diffValue > diffValue_2)
1401:Generated_Source\PSoC4/Input_Capsense_Processing.c ****         {
1402:Generated_Source\PSoC4/Input_Capsense_Processing.c ****             register int32 swapv = diffValue;
1403:Generated_Source\PSoC4/Input_Capsense_Processing.c ****             diffValue = diffValue_2;
1404:Generated_Source\PSoC4/Input_Capsense_Processing.c ****             diffValue_2 = swapv;
1405:Generated_Source\PSoC4/Input_Capsense_Processing.c ****         }
1406:Generated_Source\PSoC4/Input_Capsense_Processing.c **** 
1407:Generated_Source\PSoC4/Input_Capsense_Processing.c ****         if (diffValue_0 > diffValue)
1408:Generated_Source\PSoC4/Input_Capsense_Processing.c ****         {
1409:Generated_Source\PSoC4/Input_Capsense_Processing.c ****             register int32 swapv = diffValue_0;
1410:Generated_Source\PSoC4/Input_Capsense_Processing.c ****             diffValue_0 = diffValue;
1411:Generated_Source\PSoC4/Input_Capsense_Processing.c ****             diffValue = swapv;
1412:Generated_Source\PSoC4/Input_Capsense_Processing.c ****         }
1413:Generated_Source\PSoC4/Input_Capsense_Processing.c ****     #endif /* #if (0u != Input_Capsense_MULTI_FREQ_SCAN_EN) */
1414:Generated_Source\PSoC4/Input_Capsense_Processing.c **** 
1415:Generated_Source\PSoC4/Input_Capsense_Processing.c ****     curSnsPtr->diff = 0u;
 203              		.loc 1 1415 0
 204 0008 0025     		movs	r5, #0
 205 000a CD80     		strh	r5, [r1, #6]
1416:Generated_Source\PSoC4/Input_Capsense_Processing.c **** 
1417:Generated_Source\PSoC4/Input_Capsense_Processing.c ****     if (diffValue > (int32)ptrRamWdgt->noiseTh)
 206              		.loc 1 1417 0
 207 000c 0079     		ldrb	r0, [r0, #4]
 208              	.LVL25:
 209 000e 8442     		cmp	r4, r0
 210 0010 00DD     		ble	.L11
1418:Generated_Source\PSoC4/Input_Capsense_Processing.c ****     {
1419:Generated_Source\PSoC4/Input_Capsense_Processing.c ****         curSnsPtr->diff = (Input_Capsense_THRESHOLD_TYPE) diffValue;
 211              		.loc 1 1419 0
 212 0012 CC80     		strh	r4, [r1, #6]
 213              	.L11:
1420:Generated_Source\PSoC4/Input_Capsense_Processing.c ****     }
1421:Generated_Source\PSoC4/Input_Capsense_Processing.c **** }
 214              		.loc 1 1421 0
 215              		@ sp needed
 216              	.LVL26:
 217 0014 30BD     		pop	{r4, r5, pc}
 218              		.cfi_endproc
 219              	.LFE6:
 220              		.size	Input_Capsense_DpUpdateDifferences, .-Input_Capsense_DpUpdateDifferences
 221 0016 C046     		.section	.text.Input_Capsense_DpProcessCsdWidgetRawCounts,"ax",%progbits
 222              		.align	2
 223              		.global	Input_Capsense_DpProcessCsdWidgetRawCounts
 224              		.code	16
 225              		.thumb_func
 226              		.type	Input_Capsense_DpProcessCsdWidgetRawCounts, %function
 227              	Input_Capsense_DpProcessCsdWidgetRawCounts:
ARM GAS  C:\Users\doita\AppData\Local\Temp\cc44fZpJ.s 			page 30


 228              	.LFB2:
1017:Generated_Source\PSoC4/Input_Capsense_Processing.c ****     uint32  result = CYRET_SUCCESS;
 229              		.loc 1 1017 0
 230              		.cfi_startproc
 231              		@ args = 0, pretend = 0, frame = 8
 232              		@ frame_needed = 0, uses_anonymous_args = 0
 233              	.LVL27:
 234 0000 F0B5     		push	{r4, r5, r6, r7, lr}
 235              		.cfi_def_cfa_offset 20
 236              		.cfi_offset 4, -20
 237              		.cfi_offset 5, -16
 238              		.cfi_offset 6, -12
 239              		.cfi_offset 7, -8
 240              		.cfi_offset 14, -4
 241 0002 5746     		mov	r7, r10
 242 0004 80B4     		push	{r7}
 243              		.cfi_def_cfa_offset 24
 244              		.cfi_offset 10, -24
 245 0006 82B0     		sub	sp, sp, #8
 246              		.cfi_def_cfa_offset 32
 247 0008 8246     		mov	r10, r0
 248              	.LVL28:
1047:Generated_Source\PSoC4/Input_Capsense_Processing.c ****     ptrRamWdgt = (Input_Capsense_RAM_WD_BASE_STRUCT *)ptrFlashWdgt->ptr2WdgtRam;
 249              		.loc 1 1047 0
 250 000a 8468     		ldr	r4, [r0, #8]
 251              	.LVL29:
1048:Generated_Source\PSoC4/Input_Capsense_Processing.c ****     widgetType = ptrFlashWdgt->wdgtType;
 252              		.loc 1 1048 0
 253 000c 4568     		ldr	r5, [r0, #4]
 254              	.LVL30:
1049:Generated_Source\PSoC4/Input_Capsense_Processing.c **** 
 255              		.loc 1 1049 0
 256 000e 837E     		ldrb	r3, [r0, #26]
 257 0010 0193     		str	r3, [sp, #4]
 258              	.LVL31:
1052:Generated_Source\PSoC4/Input_Capsense_Processing.c ****     #endif /* #if (0u != (Input_Capsense_CSD_AUTOTUNE & Input_Capsense_CSD_SS_TH_EN)) */
 259              		.loc 1 1052 0
 260 0012 C769     		ldr	r7, [r0, #28]
 261              	.LVL32:
1056:Generated_Source\PSoC4/Input_Capsense_Processing.c ****     {
 262              		.loc 1 1056 0
 263 0014 0026     		movs	r6, #0
1018:Generated_Source\PSoC4/Input_Capsense_Processing.c **** 
 264              		.loc 1 1018 0
 265 0016 0023     		movs	r3, #0
 266              	.LVL33:
 267 0018 0093     		str	r3, [sp]
1056:Generated_Source\PSoC4/Input_Capsense_Processing.c ****     {
 268              		.loc 1 1056 0
 269 001a 16E0     		b	.L14
 270              	.LVL34:
 271              	.L15:
1068:Generated_Source\PSoC4/Input_Capsense_Processing.c ****             Input_Capsense_DpUpdateThresholds(ptrRamWdgt, ptrNoiseEnvelope, snsId);
 272              		.loc 1 1068 0 discriminator 3
 273 001c 698A     		ldrh	r1, [r5, #18]
 274 001e 2088     		ldrh	r0, [r4]
 275 0020 3A00     		movs	r2, r7
ARM GAS  C:\Users\doita\AppData\Local\Temp\cc44fZpJ.s 			page 31


 276 0022 FFF7FEFF 		bl	SmartSense_RunNoiseEnvelope
 277              	.LVL35:
1069:Generated_Source\PSoC4/Input_Capsense_Processing.c **** 
 278              		.loc 1 1069 0 discriminator 3
 279 0026 3200     		movs	r2, r6
 280 0028 3900     		movs	r1, r7
 281 002a 2800     		movs	r0, r5
 282 002c FFF7FEFF 		bl	Input_Capsense_DpUpdateThresholds
 283              	.LVL36:
1086:Generated_Source\PSoC4/Input_Capsense_Processing.c ****         #endif /* (0u != (Input_Capsense_CSD_AUTOTUNE & Input_Capsense_CSD_SS_TH_EN)) */
 284              		.loc 1 1086 0 discriminator 3
 285 0030 0C37     		adds	r7, r7, #12
 286              	.LVL37:
1096:Generated_Source\PSoC4/Input_Capsense_Processing.c ****         #endif /* (Input_Capsense_ENABLE == Input_Capsense_TST_BSLN_DUPLICATION_EN) */
 287              		.loc 1 1096 0 discriminator 3
 288 0032 019A     		ldr	r2, [sp, #4]
 289 0034 2100     		movs	r1, r4
 290 0036 2800     		movs	r0, r5
 291 0038 FFF7FEFF 		bl	Input_Capsense_FtUpdateBaseline
 292              	.LVL38:
 293 003c 0090     		str	r0, [sp]
 294              	.LVL39:
1099:Generated_Source\PSoC4/Input_Capsense_Processing.c **** 
 295              		.loc 1 1099 0 discriminator 3
 296 003e 2100     		movs	r1, r4
 297 0040 2800     		movs	r0, r5
 298              	.LVL40:
 299 0042 FFF7FEFF 		bl	Input_Capsense_DpUpdateDifferences
 300              	.LVL41:
1102:Generated_Source\PSoC4/Input_Capsense_Processing.c **** 
 301              		.loc 1 1102 0 discriminator 3
 302 0046 0A34     		adds	r4, r4, #10
 303              	.LVL42:
1056:Generated_Source\PSoC4/Input_Capsense_Processing.c ****     {
 304              		.loc 1 1056 0 discriminator 3
 305 0048 0136     		adds	r6, r6, #1
 306              	.LVL43:
 307              	.L14:
1056:Generated_Source\PSoC4/Input_Capsense_Processing.c ****     {
 308              		.loc 1 1056 0 is_stmt 0 discriminator 1
 309 004a 5346     		mov	r3, r10
 310 004c 1B8B     		ldrh	r3, [r3, #24]
 311 004e 9E42     		cmp	r6, r3
 312 0050 E4D3     		bcc	.L15
1110:Generated_Source\PSoC4/Input_Capsense_Processing.c **** 
 313              		.loc 1 1110 0 is_stmt 1
 314 0052 0098     		ldr	r0, [sp]
 315 0054 02B0     		add	sp, sp, #8
 316              	.LVL44:
 317              		@ sp needed
 318              	.LVL45:
 319              	.LVL46:
 320              	.LVL47:
 321              	.LVL48:
 322              	.LVL49:
 323 0056 04BC     		pop	{r2}
 324 0058 9246     		mov	r10, r2
ARM GAS  C:\Users\doita\AppData\Local\Temp\cc44fZpJ.s 			page 32


 325 005a F0BD     		pop	{r4, r5, r6, r7, pc}
 326              		.cfi_endproc
 327              	.LFE2:
 328              		.size	Input_Capsense_DpProcessCsdWidgetRawCounts, .-Input_Capsense_DpProcessCsdWidgetRawCounts
 329              		.section	.text.Input_Capsense_DpProcessCsdSensorRawCountsExt,"ax",%progbits
 330              		.align	2
 331              		.global	Input_Capsense_DpProcessCsdSensorRawCountsExt
 332              		.code	16
 333              		.thumb_func
 334              		.type	Input_Capsense_DpProcessCsdSensorRawCountsExt, %function
 335              	Input_Capsense_DpProcessCsdSensorRawCountsExt:
 336              	.LFB3:
1151:Generated_Source\PSoC4/Input_Capsense_Processing.c ****     uint32 result = CYRET_SUCCESS;
 337              		.loc 1 1151 0
 338              		.cfi_startproc
 339              		@ args = 0, pretend = 0, frame = 8
 340              		@ frame_needed = 0, uses_anonymous_args = 0
 341              	.LVL50:
 342 0000 F0B5     		push	{r4, r5, r6, r7, lr}
 343              		.cfi_def_cfa_offset 20
 344              		.cfi_offset 4, -20
 345              		.cfi_offset 5, -16
 346              		.cfi_offset 6, -12
 347              		.cfi_offset 7, -8
 348              		.cfi_offset 14, -4
 349 0002 83B0     		sub	sp, sp, #12
 350              		.cfi_def_cfa_offset 32
 351 0004 0191     		str	r1, [sp, #4]
 352 0006 1C00     		movs	r4, r3
 353              	.LVL51:
1163:Generated_Source\PSoC4/Input_Capsense_Processing.c ****     #endif /* (0u != (Input_Capsense_CSD_AUTOTUNE & Input_Capsense_CSD_SS_TH_EN)) */
 354              		.loc 1 1163 0
 355 0008 C769     		ldr	r7, [r0, #28]
 356              	.LVL52:
1166:Generated_Source\PSoC4/Input_Capsense_Processing.c ****     ptrRamWdgt = (Input_Capsense_RAM_WD_BASE_STRUCT *)ptrFlashWdgt->ptr2WdgtRam;
 357              		.loc 1 1166 0
 358 000a 867E     		ldrb	r6, [r0, #26]
 359              	.LVL53:
1167:Generated_Source\PSoC4/Input_Capsense_Processing.c **** 
 360              		.loc 1 1167 0
 361 000c 4568     		ldr	r5, [r0, #4]
 362              	.LVL54:
1182:Generated_Source\PSoC4/Input_Capsense_Processing.c ****         {
 363              		.loc 1 1182 0
 364 000e 2307     		lsls	r3, r4, #28
 365 0010 05D5     		bpl	.L17
 366              	.LVL55:
1184:Generated_Source\PSoC4/Input_Capsense_Processing.c ****         }
 367              		.loc 1 1184 0
 368 0012 698A     		ldrh	r1, [r5, #18]
 369              	.LVL56:
 370 0014 019B     		ldr	r3, [sp, #4]
 371 0016 1888     		ldrh	r0, [r3]
 372              	.LVL57:
 373 0018 3A00     		movs	r2, r7
 374              	.LVL58:
 375 001a FFF7FEFF 		bl	SmartSense_RunNoiseEnvelope
ARM GAS  C:\Users\doita\AppData\Local\Temp\cc44fZpJ.s 			page 33


 376              	.LVL59:
 377              	.L17:
1187:Generated_Source\PSoC4/Input_Capsense_Processing.c ****         {
 378              		.loc 1 1187 0
 379 001e E306     		lsls	r3, r4, #27
 380 0020 04D5     		bpl	.L18
1189:Generated_Source\PSoC4/Input_Capsense_Processing.c **** 
 381              		.loc 1 1189 0
 382 0022 0022     		movs	r2, #0
 383              	.LVL60:
 384 0024 3900     		movs	r1, r7
 385 0026 2800     		movs	r0, r5
 386 0028 FFF7FEFF 		bl	Input_Capsense_DpUpdateThresholds
 387              	.LVL61:
 388              	.L18:
1207:Generated_Source\PSoC4/Input_Capsense_Processing.c ****     {
 389              		.loc 1 1207 0
 390 002c A307     		lsls	r3, r4, #30
 391 002e 06D5     		bpl	.L21
1209:Generated_Source\PSoC4/Input_Capsense_Processing.c ****     }
 392              		.loc 1 1209 0
 393 0030 3200     		movs	r2, r6
 394              	.LVL62:
 395 0032 0199     		ldr	r1, [sp, #4]
 396 0034 2800     		movs	r0, r5
 397 0036 FFF7FEFF 		bl	Input_Capsense_FtUpdateBaseline
 398              	.LVL63:
 399 003a 0700     		movs	r7, r0
 400              	.LVL64:
 401 003c 00E0     		b	.L19
 402              	.LVL65:
 403              	.L21:
1152:Generated_Source\PSoC4/Input_Capsense_Processing.c ****     uint32  widgetType;
 404              		.loc 1 1152 0
 405 003e 0027     		movs	r7, #0
 406              	.LVL66:
 407              	.L19:
1212:Generated_Source\PSoC4/Input_Capsense_Processing.c ****     {
 408              		.loc 1 1212 0
 409 0040 6307     		lsls	r3, r4, #29
 410 0042 03D5     		bpl	.L20
1214:Generated_Source\PSoC4/Input_Capsense_Processing.c ****     }
 411              		.loc 1 1214 0
 412 0044 0199     		ldr	r1, [sp, #4]
 413 0046 2800     		movs	r0, r5
 414 0048 FFF7FEFF 		bl	Input_Capsense_DpUpdateDifferences
 415              	.LVL67:
 416              	.L20:
1217:Generated_Source\PSoC4/Input_Capsense_Processing.c **** 
 417              		.loc 1 1217 0
 418 004c 3800     		movs	r0, r7
 419 004e 03B0     		add	sp, sp, #12
 420              		@ sp needed
 421              	.LVL68:
 422              	.LVL69:
 423              	.LVL70:
 424              	.LVL71:
ARM GAS  C:\Users\doita\AppData\Local\Temp\cc44fZpJ.s 			page 34


 425 0050 F0BD     		pop	{r4, r5, r6, r7, pc}
 426              		.cfi_endproc
 427              	.LFE3:
 428              		.size	Input_Capsense_DpProcessCsdSensorRawCountsExt, .-Input_Capsense_DpProcessCsdSensorRawCountsE
 429 0052 C046     		.section	.text.Input_Capsense_DpProcessButton,"ax",%progbits
 430              		.align	2
 431              		.global	Input_Capsense_DpProcessButton
 432              		.code	16
 433              		.thumb_func
 434              		.type	Input_Capsense_DpProcessButton, %function
 435              	Input_Capsense_DpProcessButton:
 436              	.LFB7:
1422:Generated_Source\PSoC4/Input_Capsense_Processing.c **** 
1423:Generated_Source\PSoC4/Input_Capsense_Processing.c **** 
1424:Generated_Source\PSoC4/Input_Capsense_Processing.c **** #if ((0u != Input_Capsense_BUTTON_WIDGET_EN) || (0u != Input_Capsense_CSX_MATRIX_WIDGET_EN))
1425:Generated_Source\PSoC4/Input_Capsense_Processing.c **** /*******************************************************************************
1426:Generated_Source\PSoC4/Input_Capsense_Processing.c **** * Function Name: Input_Capsense_DpProcessButton
1427:Generated_Source\PSoC4/Input_Capsense_Processing.c **** ****************************************************************************//**
1428:Generated_Source\PSoC4/Input_Capsense_Processing.c **** *
1429:Generated_Source\PSoC4/Input_Capsense_Processing.c **** * \brief
1430:Generated_Source\PSoC4/Input_Capsense_Processing.c **** *   Processes the status of the Button widget.
1431:Generated_Source\PSoC4/Input_Capsense_Processing.c **** *
1432:Generated_Source\PSoC4/Input_Capsense_Processing.c **** * \details
1433:Generated_Source\PSoC4/Input_Capsense_Processing.c **** *   This API processes the status of the CSD/CSX Button widget and
1434:Generated_Source\PSoC4/Input_Capsense_Processing.c **** *   CSX Matrix Button widget. It applies the hysteresis and de-bounce algorithm
1435:Generated_Source\PSoC4/Input_Capsense_Processing.c **** *   to each sensor difference value. This API is expected to be called
1436:Generated_Source\PSoC4/Input_Capsense_Processing.c **** *   after each new widget scan. If it is called multiple times for the same
1437:Generated_Source\PSoC4/Input_Capsense_Processing.c **** *   scan data, the de-bounce algorithm will not work properly.
1438:Generated_Source\PSoC4/Input_Capsense_Processing.c **** *
1439:Generated_Source\PSoC4/Input_Capsense_Processing.c **** *   This API does not update any Data Structure registers
1440:Generated_Source\PSoC4/Input_Capsense_Processing.c **** *   except the de-bounce counters.
1441:Generated_Source\PSoC4/Input_Capsense_Processing.c **** *
1442:Generated_Source\PSoC4/Input_Capsense_Processing.c **** * \param currStatus   The current status of the widget sensors.
1443:Generated_Source\PSoC4/Input_Capsense_Processing.c **** * \param ptrFlashWdgt The pointer to the Flash Widget Object.
1444:Generated_Source\PSoC4/Input_Capsense_Processing.c **** *
1445:Generated_Source\PSoC4/Input_Capsense_Processing.c **** * \return Returns the status of the widget's sensors. Bit #0 - corresponds to Sensor #0.
1446:Generated_Source\PSoC4/Input_Capsense_Processing.c **** *
1447:Generated_Source\PSoC4/Input_Capsense_Processing.c **** *******************************************************************************/
1448:Generated_Source\PSoC4/Input_Capsense_Processing.c **** uint32 Input_Capsense_DpProcessButton(uint32 currStatus, Input_Capsense_FLASH_WD_STRUCT const *ptrF
1449:Generated_Source\PSoC4/Input_Capsense_Processing.c **** {
 437              		.loc 1 1449 0
 438              		.cfi_startproc
 439              		@ args = 0, pretend = 0, frame = 0
 440              		@ frame_needed = 0, uses_anonymous_args = 0
 441              	.LVL72:
 442 0000 F0B5     		push	{r4, r5, r6, r7, lr}
 443              		.cfi_def_cfa_offset 20
 444              		.cfi_offset 4, -20
 445              		.cfi_offset 5, -16
 446              		.cfi_offset 6, -12
 447              		.cfi_offset 7, -8
 448              		.cfi_offset 14, -4
1450:Generated_Source\PSoC4/Input_Capsense_Processing.c ****     uint32 snsCnt;
1451:Generated_Source\PSoC4/Input_Capsense_Processing.c ****     uint32 snsMask;
1452:Generated_Source\PSoC4/Input_Capsense_Processing.c ****     uint32 newStatus;
1453:Generated_Source\PSoC4/Input_Capsense_Processing.c ****     uint32 touchTh;
1454:Generated_Source\PSoC4/Input_Capsense_Processing.c ****     Input_Capsense_RAM_SNS_STRUCT *ptrSnsTmp;
ARM GAS  C:\Users\doita\AppData\Local\Temp\cc44fZpJ.s 			page 35


1455:Generated_Source\PSoC4/Input_Capsense_Processing.c ****     Input_Capsense_RAM_WD_BASE_STRUCT *ptrRamWdgt;
1456:Generated_Source\PSoC4/Input_Capsense_Processing.c ****     uint8 * ptrDebounceCnt;
1457:Generated_Source\PSoC4/Input_Capsense_Processing.c **** 
1458:Generated_Source\PSoC4/Input_Capsense_Processing.c ****     snsCnt = ptrFlashWdgt->totalNumSns;
 449              		.loc 1 1458 0
 450 0002 0A8B     		ldrh	r2, [r1, #24]
 451              	.LVL73:
1459:Generated_Source\PSoC4/Input_Capsense_Processing.c ****     ptrSnsTmp = ptrFlashWdgt->ptr2SnsRam;
 452              		.loc 1 1459 0
 453 0004 8D68     		ldr	r5, [r1, #8]
 454              	.LVL74:
1460:Generated_Source\PSoC4/Input_Capsense_Processing.c ****     ptrRamWdgt = (Input_Capsense_RAM_WD_BASE_STRUCT *)ptrFlashWdgt->ptr2WdgtRam;
 455              		.loc 1 1460 0
 456 0006 4F68     		ldr	r7, [r1, #4]
 457              	.LVL75:
1461:Generated_Source\PSoC4/Input_Capsense_Processing.c ****     ptrDebounceCnt = ptrFlashWdgt->ptr2DebounceArr;
 458              		.loc 1 1461 0
 459 0008 0B69     		ldr	r3, [r1, #16]
 460              	.LVL76:
1462:Generated_Source\PSoC4/Input_Capsense_Processing.c **** 
1463:Generated_Source\PSoC4/Input_Capsense_Processing.c ****     /* Go through all widget's sensors */
1464:Generated_Source\PSoC4/Input_Capsense_Processing.c ****     snsMask = 1Lu;
 461              		.loc 1 1464 0
 462 000a 0121     		movs	r1, #1
 463              	.LVL77:
1465:Generated_Source\PSoC4/Input_Capsense_Processing.c ****     for (; snsCnt-- > 0u; )
 464              		.loc 1 1465 0
 465 000c 25E0     		b	.L23
 466              	.LVL78:
 467              	.L31:
1466:Generated_Source\PSoC4/Input_Capsense_Processing.c ****     {
1467:Generated_Source\PSoC4/Input_Capsense_Processing.c ****         /* Calculate touch threshold taking into account hysteresis
1468:Generated_Source\PSoC4/Input_Capsense_Processing.c ****            and current sensor state. */
1469:Generated_Source\PSoC4/Input_Capsense_Processing.c ****         touchTh = (0u == (currStatus & snsMask)) ?
 468              		.loc 1 1469 0
 469 000e 0C00     		movs	r4, r1
 470              	.LVL79:
 471 0010 0440     		ands	r4, r0
1470:Generated_Source\PSoC4/Input_Capsense_Processing.c ****                   ((uint32)ptrRamWdgt->fingerTh + ptrRamWdgt->hysteresis) :
 472              		.loc 1 1470 0
 473 0012 03D1     		bne	.L24
 474              		.loc 1 1470 0 is_stmt 0 discriminator 1
 475 0014 7E88     		ldrh	r6, [r7, #2]
 476 0016 BA79     		ldrb	r2, [r7, #6]
 477 0018 B218     		adds	r2, r6, r2
 478 001a 02E0     		b	.L25
 479              	.L24:
1471:Generated_Source\PSoC4/Input_Capsense_Processing.c ****                   ((uint32)ptrRamWdgt->fingerTh - ptrRamWdgt->hysteresis);
 480              		.loc 1 1471 0 is_stmt 1 discriminator 2
 481 001c 7A88     		ldrh	r2, [r7, #2]
 482 001e BE79     		ldrb	r6, [r7, #6]
1470:Generated_Source\PSoC4/Input_Capsense_Processing.c ****                   ((uint32)ptrRamWdgt->fingerTh + ptrRamWdgt->hysteresis) :
 483              		.loc 1 1470 0 discriminator 2
 484 0020 921B     		subs	r2, r2, r6
 485              	.L25:
 486              	.LVL80:
1472:Generated_Source\PSoC4/Input_Capsense_Processing.c **** 
ARM GAS  C:\Users\doita\AppData\Local\Temp\cc44fZpJ.s 			page 36


1473:Generated_Source\PSoC4/Input_Capsense_Processing.c ****         /* Determine new potential sensor state */
1474:Generated_Source\PSoC4/Input_Capsense_Processing.c ****         newStatus = (ptrSnsTmp->diff > touchTh) ? snsMask : 0u;
 487              		.loc 1 1474 0
 488 0022 EE88     		ldrh	r6, [r5, #6]
 489 0024 B242     		cmp	r2, r6
 490 0026 01D3     		bcc	.L32
 491 0028 0022     		movs	r2, #0
 492              	.LVL81:
 493 002a 00E0     		b	.L26
 494              	.LVL82:
 495              	.L32:
 496 002c 0A00     		movs	r2, r1
 497              	.LVL83:
 498              	.L26:
1475:Generated_Source\PSoC4/Input_Capsense_Processing.c **** 
1476:Generated_Source\PSoC4/Input_Capsense_Processing.c ****         /* Sensor state changed ? */
1477:Generated_Source\PSoC4/Input_Capsense_Processing.c ****         if (newStatus != (currStatus & snsMask))
 499              		.loc 1 1477 0 discriminator 4
 500 002e A242     		cmp	r2, r4
 501 0030 02D0     		beq	.L27
1478:Generated_Source\PSoC4/Input_Capsense_Processing.c ****         {
1479:Generated_Source\PSoC4/Input_Capsense_Processing.c ****             /* Decrement de-bounce counter */
1480:Generated_Source\PSoC4/Input_Capsense_Processing.c ****             (*ptrDebounceCnt)--;
 502              		.loc 1 1480 0
 503 0032 1E78     		ldrb	r6, [r3]
 504 0034 013E     		subs	r6, r6, #1
 505 0036 1E70     		strb	r6, [r3]
 506              	.L27:
1481:Generated_Source\PSoC4/Input_Capsense_Processing.c ****         }
1482:Generated_Source\PSoC4/Input_Capsense_Processing.c **** 
1483:Generated_Source\PSoC4/Input_Capsense_Processing.c ****         /*
1484:Generated_Source\PSoC4/Input_Capsense_Processing.c ****         *  This piece of code has two objectives:
1485:Generated_Source\PSoC4/Input_Capsense_Processing.c ****         *  1. Reset de-bounce counter if the sensor state did not change.
1486:Generated_Source\PSoC4/Input_Capsense_Processing.c ****         *     (It is possible that during previous processing cycles sensor
1487:Generated_Source\PSoC4/Input_Capsense_Processing.c ****         *     was active and de-bounce counter was decremented.)
1488:Generated_Source\PSoC4/Input_Capsense_Processing.c ****         *  2. Set new sensor state after successful de-bounce.
1489:Generated_Source\PSoC4/Input_Capsense_Processing.c ****         */
1490:Generated_Source\PSoC4/Input_Capsense_Processing.c ****         if ((newStatus == (currStatus & snsMask)) || (0u == (*ptrDebounceCnt)))
 507              		.loc 1 1490 0
 508 0038 A242     		cmp	r2, r4
 509 003a 02D0     		beq	.L28
 510              		.loc 1 1490 0 is_stmt 0 discriminator 1
 511 003c 1C78     		ldrb	r4, [r3]
 512 003e 002C     		cmp	r4, #0
 513 0040 07D1     		bne	.L29
 514              	.L28:
1491:Generated_Source\PSoC4/Input_Capsense_Processing.c ****         {
1492:Generated_Source\PSoC4/Input_Capsense_Processing.c ****             /* Set new sensor status */
1493:Generated_Source\PSoC4/Input_Capsense_Processing.c ****             currStatus &= ~snsMask;
 515              		.loc 1 1493 0 is_stmt 1
 516 0042 8843     		bics	r0, r1
 517              	.LVL84:
1494:Generated_Source\PSoC4/Input_Capsense_Processing.c ****             currStatus |= newStatus;
 518              		.loc 1 1494 0
 519 0044 1043     		orrs	r0, r2
 520              	.LVL85:
1495:Generated_Source\PSoC4/Input_Capsense_Processing.c **** 
ARM GAS  C:\Users\doita\AppData\Local\Temp\cc44fZpJ.s 			page 37


1496:Generated_Source\PSoC4/Input_Capsense_Processing.c ****             /* Reset de-bounce counter */
1497:Generated_Source\PSoC4/Input_Capsense_Processing.c ****             #if (0u != Input_Capsense_OFF_DEBOUNCE_EN)
1498:Generated_Source\PSoC4/Input_Capsense_Processing.c ****                 *ptrDebounceCnt = (0Lu == newStatus) ? ptrRamWdgt->onDebounce : ptrRamWdgt->offDebo
1499:Generated_Source\PSoC4/Input_Capsense_Processing.c ****             #else
1500:Generated_Source\PSoC4/Input_Capsense_Processing.c ****                 *ptrDebounceCnt = (0Lu == newStatus) ? ptrRamWdgt->onDebounce : DEFAULT_OFF_DEBOUNC
 521              		.loc 1 1500 0
 522 0046 002A     		cmp	r2, #0
 523 0048 01D1     		bne	.L33
 524              		.loc 1 1500 0 is_stmt 0 discriminator 1
 525 004a FA79     		ldrb	r2, [r7, #7]
 526              	.LVL86:
 527 004c 00E0     		b	.L30
 528              	.LVL87:
 529              	.L33:
 530              		.loc 1 1500 0
 531 004e 0122     		movs	r2, #1
 532              	.LVL88:
 533              	.L30:
 534              		.loc 1 1500 0 discriminator 4
 535 0050 1A70     		strb	r2, [r3]
 536              	.L29:
1501:Generated_Source\PSoC4/Input_Capsense_Processing.c ****             #endif /* #if (0u != Input_Capsense_OFF_DEBOUNCE_EN) */
1502:Generated_Source\PSoC4/Input_Capsense_Processing.c ****         }
1503:Generated_Source\PSoC4/Input_Capsense_Processing.c **** 
1504:Generated_Source\PSoC4/Input_Capsense_Processing.c ****         /* Move mask to the next sensor */
1505:Generated_Source\PSoC4/Input_Capsense_Processing.c ****         snsMask <<= 1u;
 537              		.loc 1 1505 0 is_stmt 1
 538 0052 4900     		lsls	r1, r1, #1
 539              	.LVL89:
1506:Generated_Source\PSoC4/Input_Capsense_Processing.c **** 
1507:Generated_Source\PSoC4/Input_Capsense_Processing.c ****         ptrSnsTmp++;
 540              		.loc 1 1507 0
 541 0054 0A35     		adds	r5, r5, #10
 542              	.LVL90:
1508:Generated_Source\PSoC4/Input_Capsense_Processing.c ****         ptrDebounceCnt++;
 543              		.loc 1 1508 0
 544 0056 0133     		adds	r3, r3, #1
 545              	.LVL91:
1465:Generated_Source\PSoC4/Input_Capsense_Processing.c ****     {
 546              		.loc 1 1465 0
 547 0058 6246     		mov	r2, ip
 548              	.LVL92:
 549              	.L23:
 550 005a 541E     		subs	r4, r2, #1
 551 005c A446     		mov	ip, r4
 552              	.LVL93:
 553 005e 002A     		cmp	r2, #0
 554 0060 D5D1     		bne	.L31
1509:Generated_Source\PSoC4/Input_Capsense_Processing.c ****     }
1510:Generated_Source\PSoC4/Input_Capsense_Processing.c **** 
1511:Generated_Source\PSoC4/Input_Capsense_Processing.c ****     return currStatus;
1512:Generated_Source\PSoC4/Input_Capsense_Processing.c **** }
 555              		.loc 1 1512 0
 556              		@ sp needed
 557              	.LVL94:
 558              	.LVL95:
 559              	.LVL96:
ARM GAS  C:\Users\doita\AppData\Local\Temp\cc44fZpJ.s 			page 38


 560 0062 F0BD     		pop	{r4, r5, r6, r7, pc}
 561              		.cfi_endproc
 562              	.LFE7:
 563              		.size	Input_Capsense_DpProcessButton, .-Input_Capsense_DpProcessButton
 564              		.section	.text.Input_Capsense_DpProcessCsdWidgetStatus,"ax",%progbits
 565              		.align	2
 566              		.global	Input_Capsense_DpProcessCsdWidgetStatus
 567              		.code	16
 568              		.thumb_func
 569              		.type	Input_Capsense_DpProcessCsdWidgetStatus, %function
 570              	Input_Capsense_DpProcessCsdWidgetStatus:
 571              	.LFB4:
1247:Generated_Source\PSoC4/Input_Capsense_Processing.c ****     uint32 sensorStatus;
 572              		.loc 1 1247 0
 573              		.cfi_startproc
 574              		@ args = 0, pretend = 0, frame = 0
 575              		@ frame_needed = 0, uses_anonymous_args = 0
 576              	.LVL97:
 577 0000 70B5     		push	{r4, r5, r6, lr}
 578              		.cfi_def_cfa_offset 16
 579              		.cfi_offset 4, -16
 580              		.cfi_offset 5, -12
 581              		.cfi_offset 6, -8
 582              		.cfi_offset 14, -4
 583 0002 0400     		movs	r4, r0
1253:Generated_Source\PSoC4/Input_Capsense_Processing.c ****     sensorStatus = Input_Capsense_dsRam.snsStatus[widgetId];
 584              		.loc 1 1253 0
 585 0004 8A7E     		ldrb	r2, [r1, #26]
 586              	.LVL98:
1254:Generated_Source\PSoC4/Input_Capsense_Processing.c **** 
 587              		.loc 1 1254 0
 588 0006 134B     		ldr	r3, .L41
 589 0008 1B18     		adds	r3, r3, r0
 590 000a 1D7E     		ldrb	r5, [r3, #24]
 591              	.LVL99:
1256:Generated_Source\PSoC4/Input_Capsense_Processing.c ****     {
 592              		.loc 1 1256 0
 593 000c 012A     		cmp	r2, #1
 594 000e 04D1     		bne	.L40
1260:Generated_Source\PSoC4/Input_Capsense_Processing.c ****             break;
 595              		.loc 1 1260 0
 596 0010 2800     		movs	r0, r5
 597              	.LVL100:
 598 0012 FFF7FEFF 		bl	Input_Capsense_DpProcessButton
 599              	.LVL101:
 600 0016 0500     		movs	r5, r0
 601              	.LVL102:
1261:Generated_Source\PSoC4/Input_Capsense_Processing.c ****     #endif /* #if (0u != Input_Capsense_BUTTON_WIDGET_EN) */
 602              		.loc 1 1261 0
 603 0018 02E0     		b	.L37
 604              	.LVL103:
 605              	.L40:
1293:Generated_Source\PSoC4/Input_Capsense_Processing.c ****         break;
 606              		.loc 1 1293 0 discriminator 1
 607 001a 0020     		movs	r0, #0
 608              	.LVL104:
 609 001c FFF7FEFF 		bl	CyHalt
ARM GAS  C:\Users\doita\AppData\Local\Temp\cc44fZpJ.s 			page 39


 610              	.LVL105:
 611              	.L37:
1297:Generated_Source\PSoC4/Input_Capsense_Processing.c **** 
 612              		.loc 1 1297 0
 613 0020 0C4B     		ldr	r3, .L41
 614 0022 1B19     		adds	r3, r3, r4
 615 0024 1D76     		strb	r5, [r3, #24]
1300:Generated_Source\PSoC4/Input_Capsense_Processing.c ****     wdStatusMask = Input_Capsense_GET_WDGT_STATUS_MASK(widgetId);
 616              		.loc 1 1300 0
 617 0026 6309     		lsrs	r3, r4, #5
 618              	.LVL106:
1301:Generated_Source\PSoC4/Input_Capsense_Processing.c **** 
 619              		.loc 1 1301 0
 620 0028 1F22     		movs	r2, #31
 621 002a 1440     		ands	r4, r2
 622              	.LVL107:
 623 002c 1E3A     		subs	r2, r2, #30
 624 002e A240     		lsls	r2, r2, r4
 625              	.LVL108:
1304:Generated_Source\PSoC4/Input_Capsense_Processing.c ****     {
 626              		.loc 1 1304 0
 627 0030 002D     		cmp	r5, #0
 628 0032 07D1     		bne	.L38
1306:Generated_Source\PSoC4/Input_Capsense_Processing.c ****     }
 629              		.loc 1 1306 0
 630 0034 0433     		adds	r3, r3, #4
 631              	.LVL109:
 632 0036 9B00     		lsls	r3, r3, #2
 633              	.LVL110:
 634 0038 0649     		ldr	r1, .L41
 635 003a CB18     		adds	r3, r1, r3
 636 003c 5968     		ldr	r1, [r3, #4]
 637 003e 9143     		bics	r1, r2
 638 0040 5960     		str	r1, [r3, #4]
 639 0042 06E0     		b	.L34
 640              	.LVL111:
 641              	.L38:
1310:Generated_Source\PSoC4/Input_Capsense_Processing.c ****     }
 642              		.loc 1 1310 0
 643 0044 0433     		adds	r3, r3, #4
 644              	.LVL112:
 645 0046 9B00     		lsls	r3, r3, #2
 646              	.LVL113:
 647 0048 0249     		ldr	r1, .L41
 648 004a CB18     		adds	r3, r1, r3
 649 004c 5968     		ldr	r1, [r3, #4]
 650 004e 0A43     		orrs	r2, r1
 651              	.LVL114:
 652 0050 5A60     		str	r2, [r3, #4]
 653              	.L34:
1312:Generated_Source\PSoC4/Input_Capsense_Processing.c **** #endif /* #if (0u != Input_Capsense_TOTAL_CSD_WIDGETS) */
 654              		.loc 1 1312 0
 655              		@ sp needed
 656              	.LVL115:
 657              	.LVL116:
 658 0052 70BD     		pop	{r4, r5, r6, pc}
 659              	.L42:
ARM GAS  C:\Users\doita\AppData\Local\Temp\cc44fZpJ.s 			page 40


 660              		.align	2
 661              	.L41:
 662 0054 00000000 		.word	Input_Capsense_dsRam
 663              		.cfi_endproc
 664              	.LFE4:
 665              		.size	Input_Capsense_DpProcessCsdWidgetStatus, .-Input_Capsense_DpProcessCsdWidgetStatus
 666              		.text
 667              	.Letext0:
 668              		.file 2 "Generated_Source\\PSoC4\\cytypes.h"
 669              		.file 3 "c:\\program files (x86)\\cypress\\psoc creator\\4.4\\psoc creator\\import\\gnu\\arm\\5.4.
 670              		.file 4 "Generated_Source\\PSoC4\\Input_Capsense_Configuration.h"
 671              		.file 5 "Generated_Source\\PSoC4\\Input_Capsense_SmartSense_LL.h"
 672              		.file 6 "Generated_Source\\PSoC4\\Input_Capsense_Structure.h"
 673              		.file 7 "c:\\program files (x86)\\cypress\\psoc creator\\4.4\\psoc creator\\import\\gnu\\arm\\5.4.
 674              		.file 8 "Generated_Source\\PSoC4\\Input_Capsense_Filter.h"
 675              		.file 9 "Generated_Source\\PSoC4\\CyLib.h"
 676              		.section	.debug_info,"",%progbits
 677              	.Ldebug_info0:
 678 0000 E20C0000 		.4byte	0xce2
 679 0004 0400     		.2byte	0x4
 680 0006 00000000 		.4byte	.Ldebug_abbrev0
 681 000a 04       		.byte	0x4
 682 000b 01       		.uleb128 0x1
 683 000c 2D020000 		.4byte	.LASF152
 684 0010 0C       		.byte	0xc
 685 0011 11080000 		.4byte	.LASF153
 686 0015 97050000 		.4byte	.LASF154
 687 0019 00000000 		.4byte	.Ldebug_ranges0+0
 688 001d 00000000 		.4byte	0
 689 0021 00000000 		.4byte	.Ldebug_line0
 690 0025 02       		.uleb128 0x2
 691 0026 01       		.byte	0x1
 692 0027 06       		.byte	0x6
 693 0028 27090000 		.4byte	.LASF0
 694 002c 02       		.uleb128 0x2
 695 002d 01       		.byte	0x1
 696 002e 08       		.byte	0x8
 697 002f 55080000 		.4byte	.LASF1
 698 0033 02       		.uleb128 0x2
 699 0034 02       		.byte	0x2
 700 0035 05       		.byte	0x5
 701 0036 BB060000 		.4byte	.LASF2
 702 003a 02       		.uleb128 0x2
 703 003b 02       		.byte	0x2
 704 003c 07       		.byte	0x7
 705 003d 38090000 		.4byte	.LASF3
 706 0041 02       		.uleb128 0x2
 707 0042 04       		.byte	0x4
 708 0043 05       		.byte	0x5
 709 0044 F3060000 		.4byte	.LASF4
 710 0048 02       		.uleb128 0x2
 711 0049 04       		.byte	0x4
 712 004a 07       		.byte	0x7
 713 004b E7070000 		.4byte	.LASF5
 714 004f 02       		.uleb128 0x2
 715 0050 08       		.byte	0x8
 716 0051 05       		.byte	0x5
ARM GAS  C:\Users\doita\AppData\Local\Temp\cc44fZpJ.s 			page 41


 717 0052 94040000 		.4byte	.LASF6
 718 0056 02       		.uleb128 0x2
 719 0057 08       		.byte	0x8
 720 0058 07       		.byte	0x7
 721 0059 D4020000 		.4byte	.LASF7
 722 005d 03       		.uleb128 0x3
 723 005e 04       		.byte	0x4
 724 005f 05       		.byte	0x5
 725 0060 696E7400 		.ascii	"int\000"
 726 0064 02       		.uleb128 0x2
 727 0065 04       		.byte	0x4
 728 0066 07       		.byte	0x7
 729 0067 05010000 		.4byte	.LASF8
 730 006b 04       		.uleb128 0x4
 731 006c 83090000 		.4byte	.LASF9
 732 0070 02       		.byte	0x2
 733 0071 FC01     		.2byte	0x1fc
 734 0073 2C000000 		.4byte	0x2c
 735 0077 04       		.uleb128 0x4
 736 0078 72040000 		.4byte	.LASF10
 737 007c 02       		.byte	0x2
 738 007d FD01     		.2byte	0x1fd
 739 007f 3A000000 		.4byte	0x3a
 740 0083 04       		.uleb128 0x4
 741 0084 1C050000 		.4byte	.LASF11
 742 0088 02       		.byte	0x2
 743 0089 FE01     		.2byte	0x1fe
 744 008b 48000000 		.4byte	0x48
 745 008f 04       		.uleb128 0x4
 746 0090 BF020000 		.4byte	.LASF12
 747 0094 02       		.byte	0x2
 748 0095 0102     		.2byte	0x201
 749 0097 41000000 		.4byte	0x41
 750 009b 02       		.uleb128 0x2
 751 009c 04       		.byte	0x4
 752 009d 04       		.byte	0x4
 753 009e 27020000 		.4byte	.LASF13
 754 00a2 02       		.uleb128 0x2
 755 00a3 08       		.byte	0x8
 756 00a4 04       		.byte	0x4
 757 00a5 89090000 		.4byte	.LASF14
 758 00a9 02       		.uleb128 0x2
 759 00aa 01       		.byte	0x1
 760 00ab 08       		.byte	0x8
 761 00ac 0D040000 		.4byte	.LASF15
 762 00b0 05       		.uleb128 0x5
 763 00b1 83000000 		.4byte	0x83
 764 00b5 06       		.uleb128 0x6
 765 00b6 B0030000 		.4byte	.LASF16
 766 00ba 03       		.byte	0x3
 767 00bb D8       		.byte	0xd8
 768 00bc 64000000 		.4byte	0x64
 769 00c0 02       		.uleb128 0x2
 770 00c1 08       		.byte	0x8
 771 00c2 04       		.byte	0x4
 772 00c3 19060000 		.4byte	.LASF17
 773 00c7 02       		.uleb128 0x2
ARM GAS  C:\Users\doita\AppData\Local\Temp\cc44fZpJ.s 			page 42


 774 00c8 04       		.byte	0x4
 775 00c9 07       		.byte	0x7
 776 00ca DE070000 		.4byte	.LASF18
 777 00ce 07       		.uleb128 0x7
 778 00cf 04       		.byte	0x4
 779 00d0 04       		.uleb128 0x4
 780 00d1 25060000 		.4byte	.LASF19
 781 00d5 04       		.byte	0x4
 782 00d6 4E01     		.2byte	0x14e
 783 00d8 77000000 		.4byte	0x77
 784 00dc 04       		.uleb128 0x4
 785 00dd 72000000 		.4byte	.LASF20
 786 00e1 04       		.byte	0x4
 787 00e2 5201     		.2byte	0x152
 788 00e4 6B000000 		.4byte	0x6b
 789 00e8 08       		.uleb128 0x8
 790 00e9 0C       		.byte	0xc
 791 00ea 05       		.byte	0x5
 792 00eb 75       		.byte	0x75
 793 00ec 45010000 		.4byte	0x145
 794 00f0 09       		.uleb128 0x9
 795 00f1 A9090000 		.4byte	.LASF21
 796 00f5 05       		.byte	0x5
 797 00f6 7A       		.byte	0x7a
 798 00f7 77000000 		.4byte	0x77
 799 00fb 00       		.byte	0
 800 00fc 09       		.uleb128 0x9
 801 00fd B0090000 		.4byte	.LASF22
 802 0101 05       		.byte	0x5
 803 0102 7E       		.byte	0x7e
 804 0103 77000000 		.4byte	0x77
 805 0107 02       		.byte	0x2
 806 0108 09       		.uleb128 0x9
 807 0109 B7090000 		.4byte	.LASF23
 808 010d 05       		.byte	0x5
 809 010e 82       		.byte	0x82
 810 010f 77000000 		.4byte	0x77
 811 0113 04       		.byte	0x4
 812 0114 09       		.uleb128 0x9
 813 0115 BE090000 		.4byte	.LASF24
 814 0119 05       		.byte	0x5
 815 011a 86       		.byte	0x86
 816 011b 77000000 		.4byte	0x77
 817 011f 06       		.byte	0x6
 818 0120 09       		.uleb128 0x9
 819 0121 C5090000 		.4byte	.LASF25
 820 0125 05       		.byte	0x5
 821 0126 8A       		.byte	0x8a
 822 0127 77000000 		.4byte	0x77
 823 012b 08       		.byte	0x8
 824 012c 09       		.uleb128 0x9
 825 012d CC090000 		.4byte	.LASF26
 826 0131 05       		.byte	0x5
 827 0132 8E       		.byte	0x8e
 828 0133 6B000000 		.4byte	0x6b
 829 0137 0A       		.byte	0xa
 830 0138 09       		.uleb128 0x9
ARM GAS  C:\Users\doita\AppData\Local\Temp\cc44fZpJ.s 			page 43


 831 0139 D3090000 		.4byte	.LASF27
 832 013d 05       		.byte	0x5
 833 013e 92       		.byte	0x92
 834 013f 6B000000 		.4byte	0x6b
 835 0143 0B       		.byte	0xb
 836 0144 00       		.byte	0
 837 0145 06       		.uleb128 0x6
 838 0146 E0030000 		.4byte	.LASF28
 839 014a 05       		.byte	0x5
 840 014b 93       		.byte	0x93
 841 014c E8000000 		.4byte	0xe8
 842 0150 08       		.uleb128 0x8
 843 0151 06       		.byte	0x6
 844 0152 05       		.byte	0x5
 845 0153 9B       		.byte	0x9b
 846 0154 89010000 		.4byte	0x189
 847 0158 09       		.uleb128 0x9
 848 0159 44080000 		.4byte	.LASF29
 849 015d 05       		.byte	0x5
 850 015e A0       		.byte	0xa0
 851 015f 77000000 		.4byte	0x77
 852 0163 00       		.byte	0
 853 0164 09       		.uleb128 0x9
 854 0165 05040000 		.4byte	.LASF30
 855 0169 05       		.byte	0x5
 856 016a A5       		.byte	0xa5
 857 016b 6B000000 		.4byte	0x6b
 858 016f 02       		.byte	0x2
 859 0170 09       		.uleb128 0x9
 860 0171 DF040000 		.4byte	.LASF31
 861 0175 05       		.byte	0x5
 862 0176 AA       		.byte	0xaa
 863 0177 6B000000 		.4byte	0x6b
 864 017b 03       		.byte	0x3
 865 017c 09       		.uleb128 0x9
 866 017d BE030000 		.4byte	.LASF32
 867 0181 05       		.byte	0x5
 868 0182 AF       		.byte	0xaf
 869 0183 6B000000 		.4byte	0x6b
 870 0187 04       		.byte	0x4
 871 0188 00       		.byte	0
 872 0189 06       		.uleb128 0x6
 873 018a 0C070000 		.4byte	.LASF33
 874 018e 05       		.byte	0x5
 875 018f B0       		.byte	0xb0
 876 0190 50010000 		.4byte	0x150
 877 0194 0A       		.uleb128 0xa
 878 0195 01       		.byte	0x1
 879 0196 2C000000 		.4byte	0x2c
 880 019a 06       		.byte	0x6
 881 019b 61       		.byte	0x61
 882 019c CB010000 		.4byte	0x1cb
 883 01a0 0B       		.uleb128 0xb
 884 01a1 C7080000 		.4byte	.LASF34
 885 01a5 01       		.byte	0x1
 886 01a6 0B       		.uleb128 0xb
 887 01a7 8E030000 		.4byte	.LASF35
ARM GAS  C:\Users\doita\AppData\Local\Temp\cc44fZpJ.s 			page 44


 888 01ab 02       		.byte	0x2
 889 01ac 0B       		.uleb128 0xb
 890 01ad 4F010000 		.4byte	.LASF36
 891 01b1 03       		.byte	0x3
 892 01b2 0B       		.uleb128 0xb
 893 01b3 EC090000 		.4byte	.LASF37
 894 01b7 04       		.byte	0x4
 895 01b8 0B       		.uleb128 0xb
 896 01b9 9E060000 		.4byte	.LASF38
 897 01bd 05       		.byte	0x5
 898 01be 0B       		.uleb128 0xb
 899 01bf A0070000 		.4byte	.LASF39
 900 01c3 06       		.byte	0x6
 901 01c4 0B       		.uleb128 0xb
 902 01c5 EB020000 		.4byte	.LASF40
 903 01c9 07       		.byte	0x7
 904 01ca 00       		.byte	0
 905 01cb 06       		.uleb128 0x6
 906 01cc E8040000 		.4byte	.LASF41
 907 01d0 06       		.byte	0x6
 908 01d1 69       		.byte	0x69
 909 01d2 94010000 		.4byte	0x194
 910 01d6 08       		.uleb128 0x8
 911 01d7 14       		.byte	0x14
 912 01d8 06       		.byte	0x6
 913 01d9 AD       		.byte	0xad
 914 01da 7B020000 		.4byte	0x27b
 915 01de 09       		.uleb128 0x9
 916 01df 79040000 		.4byte	.LASF42
 917 01e3 06       		.byte	0x6
 918 01e4 B2       		.byte	0xb2
 919 01e5 77000000 		.4byte	0x77
 920 01e9 00       		.byte	0
 921 01ea 09       		.uleb128 0x9
 922 01eb 44080000 		.4byte	.LASF29
 923 01ef 06       		.byte	0x6
 924 01f0 B7       		.byte	0xb7
 925 01f1 D0000000 		.4byte	0xd0
 926 01f5 02       		.byte	0x2
 927 01f6 09       		.uleb128 0x9
 928 01f7 05040000 		.4byte	.LASF30
 929 01fb 06       		.byte	0x6
 930 01fc BC       		.byte	0xbc
 931 01fd 6B000000 		.4byte	0x6b
 932 0201 04       		.byte	0x4
 933 0202 09       		.uleb128 0x9
 934 0203 DF040000 		.4byte	.LASF31
 935 0207 06       		.byte	0x6
 936 0208 C1       		.byte	0xc1
 937 0209 6B000000 		.4byte	0x6b
 938 020d 05       		.byte	0x5
 939 020e 09       		.uleb128 0x9
 940 020f BE030000 		.4byte	.LASF32
 941 0213 06       		.byte	0x6
 942 0214 C7       		.byte	0xc7
 943 0215 6B000000 		.4byte	0x6b
 944 0219 06       		.byte	0x6
ARM GAS  C:\Users\doita\AppData\Local\Temp\cc44fZpJ.s 			page 45


 945 021a 09       		.uleb128 0x9
 946 021b AA040000 		.4byte	.LASF43
 947 021f 06       		.byte	0x6
 948 0220 CD       		.byte	0xcd
 949 0221 6B000000 		.4byte	0x6b
 950 0225 07       		.byte	0x7
 951 0226 09       		.uleb128 0x9
 952 0227 C9030000 		.4byte	.LASF44
 953 022b 06       		.byte	0x6
 954 022c D4       		.byte	0xd4
 955 022d DC000000 		.4byte	0xdc
 956 0231 08       		.byte	0x8
 957 0232 09       		.uleb128 0x9
 958 0233 F9070000 		.4byte	.LASF45
 959 0237 06       		.byte	0x6
 960 0238 DB       		.byte	0xdb
 961 0239 7B020000 		.4byte	0x27b
 962 023d 09       		.byte	0x9
 963 023e 09       		.uleb128 0x9
 964 023f 0F020000 		.4byte	.LASF46
 965 0243 06       		.byte	0x6
 966 0244 E0       		.byte	0xe0
 967 0245 6B000000 		.4byte	0x6b
 968 0249 0A       		.byte	0xa
 969 024a 09       		.uleb128 0x9
 970 024b E2080000 		.4byte	.LASF47
 971 024f 06       		.byte	0x6
 972 0250 E8       		.byte	0xe8
 973 0251 77000000 		.4byte	0x77
 974 0255 0C       		.byte	0xc
 975 0256 09       		.uleb128 0x9
 976 0257 91060000 		.4byte	.LASF48
 977 025b 06       		.byte	0x6
 978 025c ED       		.byte	0xed
 979 025d 6B000000 		.4byte	0x6b
 980 0261 0E       		.byte	0xe
 981 0262 09       		.uleb128 0x9
 982 0263 69070000 		.4byte	.LASF49
 983 0267 06       		.byte	0x6
 984 0268 F3       		.byte	0xf3
 985 0269 77000000 		.4byte	0x77
 986 026d 10       		.byte	0x10
 987 026e 09       		.uleb128 0x9
 988 026f B7030000 		.4byte	.LASF50
 989 0273 06       		.byte	0x6
 990 0274 F8       		.byte	0xf8
 991 0275 77000000 		.4byte	0x77
 992 0279 12       		.byte	0x12
 993 027a 00       		.byte	0
 994 027b 0C       		.uleb128 0xc
 995 027c 6B000000 		.4byte	0x6b
 996 0280 8B020000 		.4byte	0x28b
 997 0284 0D       		.uleb128 0xd
 998 0285 C7000000 		.4byte	0xc7
 999 0289 00       		.byte	0
 1000 028a 00       		.byte	0
 1001 028b 06       		.uleb128 0x6
ARM GAS  C:\Users\doita\AppData\Local\Temp\cc44fZpJ.s 			page 46


 1002 028c 53030000 		.4byte	.LASF51
 1003 0290 06       		.byte	0x6
 1004 0291 F9       		.byte	0xf9
 1005 0292 D6010000 		.4byte	0x1d6
 1006 0296 08       		.uleb128 0x8
 1007 0297 14       		.byte	0x14
 1008 0298 06       		.byte	0x6
 1009 0299 FE       		.byte	0xfe
 1010 029a 48030000 		.4byte	0x348
 1011 029e 0E       		.uleb128 0xe
 1012 029f 79040000 		.4byte	.LASF42
 1013 02a3 06       		.byte	0x6
 1014 02a4 0301     		.2byte	0x103
 1015 02a6 77000000 		.4byte	0x77
 1016 02aa 00       		.byte	0
 1017 02ab 0E       		.uleb128 0xe
 1018 02ac 44080000 		.4byte	.LASF29
 1019 02b0 06       		.byte	0x6
 1020 02b1 0801     		.2byte	0x108
 1021 02b3 D0000000 		.4byte	0xd0
 1022 02b7 02       		.byte	0x2
 1023 02b8 0E       		.uleb128 0xe
 1024 02b9 05040000 		.4byte	.LASF30
 1025 02bd 06       		.byte	0x6
 1026 02be 0D01     		.2byte	0x10d
 1027 02c0 6B000000 		.4byte	0x6b
 1028 02c4 04       		.byte	0x4
 1029 02c5 0E       		.uleb128 0xe
 1030 02c6 DF040000 		.4byte	.LASF31
 1031 02ca 06       		.byte	0x6
 1032 02cb 1201     		.2byte	0x112
 1033 02cd 6B000000 		.4byte	0x6b
 1034 02d1 05       		.byte	0x5
 1035 02d2 0E       		.uleb128 0xe
 1036 02d3 BE030000 		.4byte	.LASF32
 1037 02d7 06       		.byte	0x6
 1038 02d8 1801     		.2byte	0x118
 1039 02da 6B000000 		.4byte	0x6b
 1040 02de 06       		.byte	0x6
 1041 02df 0E       		.uleb128 0xe
 1042 02e0 AA040000 		.4byte	.LASF43
 1043 02e4 06       		.byte	0x6
 1044 02e5 1E01     		.2byte	0x11e
 1045 02e7 6B000000 		.4byte	0x6b
 1046 02eb 07       		.byte	0x7
 1047 02ec 0E       		.uleb128 0xe
 1048 02ed C9030000 		.4byte	.LASF44
 1049 02f1 06       		.byte	0x6
 1050 02f2 2501     		.2byte	0x125
 1051 02f4 DC000000 		.4byte	0xdc
 1052 02f8 08       		.byte	0x8
 1053 02f9 0E       		.uleb128 0xe
 1054 02fa F9070000 		.4byte	.LASF45
 1055 02fe 06       		.byte	0x6
 1056 02ff 2C01     		.2byte	0x12c
 1057 0301 7B020000 		.4byte	0x27b
 1058 0305 09       		.byte	0x9
ARM GAS  C:\Users\doita\AppData\Local\Temp\cc44fZpJ.s 			page 47


 1059 0306 0E       		.uleb128 0xe
 1060 0307 0F020000 		.4byte	.LASF46
 1061 030b 06       		.byte	0x6
 1062 030c 3101     		.2byte	0x131
 1063 030e 6B000000 		.4byte	0x6b
 1064 0312 0A       		.byte	0xa
 1065 0313 0E       		.uleb128 0xe
 1066 0314 E2080000 		.4byte	.LASF47
 1067 0318 06       		.byte	0x6
 1068 0319 3901     		.2byte	0x139
 1069 031b 77000000 		.4byte	0x77
 1070 031f 0C       		.byte	0xc
 1071 0320 0E       		.uleb128 0xe
 1072 0321 91060000 		.4byte	.LASF48
 1073 0325 06       		.byte	0x6
 1074 0326 3E01     		.2byte	0x13e
 1075 0328 6B000000 		.4byte	0x6b
 1076 032c 0E       		.byte	0xe
 1077 032d 0E       		.uleb128 0xe
 1078 032e 69070000 		.4byte	.LASF49
 1079 0332 06       		.byte	0x6
 1080 0333 4401     		.2byte	0x144
 1081 0335 77000000 		.4byte	0x77
 1082 0339 10       		.byte	0x10
 1083 033a 0E       		.uleb128 0xe
 1084 033b B7030000 		.4byte	.LASF50
 1085 033f 06       		.byte	0x6
 1086 0340 4901     		.2byte	0x149
 1087 0342 77000000 		.4byte	0x77
 1088 0346 12       		.byte	0x12
 1089 0347 00       		.byte	0
 1090 0348 04       		.uleb128 0x4
 1091 0349 9A010000 		.4byte	.LASF52
 1092 034d 06       		.byte	0x6
 1093 034e 4A01     		.2byte	0x14a
 1094 0350 96020000 		.4byte	0x296
 1095 0354 0F       		.uleb128 0xf
 1096 0355 0401     		.2byte	0x104
 1097 0357 06       		.byte	0x6
 1098 0358 5001     		.2byte	0x150
 1099 035a 08040000 		.4byte	0x408
 1100 035e 0E       		.uleb128 0xe
 1101 035f BB000000 		.4byte	.LASF53
 1102 0363 06       		.byte	0x6
 1103 0364 5501     		.2byte	0x155
 1104 0366 48030000 		.4byte	0x348
 1105 036a 00       		.byte	0
 1106 036b 0E       		.uleb128 0xe
 1107 036c C1000000 		.4byte	.LASF54
 1108 0370 06       		.byte	0x6
 1109 0371 5A01     		.2byte	0x15a
 1110 0373 48030000 		.4byte	0x348
 1111 0377 14       		.byte	0x14
 1112 0378 0E       		.uleb128 0xe
 1113 0379 C7000000 		.4byte	.LASF55
 1114 037d 06       		.byte	0x6
 1115 037e 5F01     		.2byte	0x15f
ARM GAS  C:\Users\doita\AppData\Local\Temp\cc44fZpJ.s 			page 48


 1116 0380 48030000 		.4byte	0x348
 1117 0384 28       		.byte	0x28
 1118 0385 0E       		.uleb128 0xe
 1119 0386 CD000000 		.4byte	.LASF56
 1120 038a 06       		.byte	0x6
 1121 038b 6401     		.2byte	0x164
 1122 038d 48030000 		.4byte	0x348
 1123 0391 3C       		.byte	0x3c
 1124 0392 0E       		.uleb128 0xe
 1125 0393 D3000000 		.4byte	.LASF57
 1126 0397 06       		.byte	0x6
 1127 0398 6901     		.2byte	0x169
 1128 039a 48030000 		.4byte	0x348
 1129 039e 50       		.byte	0x50
 1130 039f 0E       		.uleb128 0xe
 1131 03a0 D9000000 		.4byte	.LASF58
 1132 03a4 06       		.byte	0x6
 1133 03a5 6E01     		.2byte	0x16e
 1134 03a7 48030000 		.4byte	0x348
 1135 03ab 64       		.byte	0x64
 1136 03ac 0E       		.uleb128 0xe
 1137 03ad DF000000 		.4byte	.LASF59
 1138 03b1 06       		.byte	0x6
 1139 03b2 7301     		.2byte	0x173
 1140 03b4 48030000 		.4byte	0x348
 1141 03b8 78       		.byte	0x78
 1142 03b9 0E       		.uleb128 0xe
 1143 03ba E5000000 		.4byte	.LASF60
 1144 03be 06       		.byte	0x6
 1145 03bf 7801     		.2byte	0x178
 1146 03c1 48030000 		.4byte	0x348
 1147 03c5 8C       		.byte	0x8c
 1148 03c6 0E       		.uleb128 0xe
 1149 03c7 EB000000 		.4byte	.LASF61
 1150 03cb 06       		.byte	0x6
 1151 03cc 7D01     		.2byte	0x17d
 1152 03ce 48030000 		.4byte	0x348
 1153 03d2 A0       		.byte	0xa0
 1154 03d3 0E       		.uleb128 0xe
 1155 03d4 F1000000 		.4byte	.LASF62
 1156 03d8 06       		.byte	0x6
 1157 03d9 8201     		.2byte	0x182
 1158 03db 48030000 		.4byte	0x348
 1159 03df B4       		.byte	0xb4
 1160 03e0 0E       		.uleb128 0xe
 1161 03e1 BE010000 		.4byte	.LASF63
 1162 03e5 06       		.byte	0x6
 1163 03e6 8701     		.2byte	0x187
 1164 03e8 48030000 		.4byte	0x348
 1165 03ec C8       		.byte	0xc8
 1166 03ed 0E       		.uleb128 0xe
 1167 03ee C4010000 		.4byte	.LASF64
 1168 03f2 06       		.byte	0x6
 1169 03f3 8C01     		.2byte	0x18c
 1170 03f5 48030000 		.4byte	0x348
 1171 03f9 DC       		.byte	0xdc
 1172 03fa 0E       		.uleb128 0xe
ARM GAS  C:\Users\doita\AppData\Local\Temp\cc44fZpJ.s 			page 49


 1173 03fb CA010000 		.4byte	.LASF65
 1174 03ff 06       		.byte	0x6
 1175 0400 9101     		.2byte	0x191
 1176 0402 48030000 		.4byte	0x348
 1177 0406 F0       		.byte	0xf0
 1178 0407 00       		.byte	0
 1179 0408 04       		.uleb128 0x4
 1180 0409 05090000 		.4byte	.LASF66
 1181 040d 06       		.byte	0x6
 1182 040e 9201     		.2byte	0x192
 1183 0410 54030000 		.4byte	0x354
 1184 0414 10       		.uleb128 0x10
 1185 0415 0A       		.byte	0xa
 1186 0416 06       		.byte	0x6
 1187 0417 9801     		.2byte	0x198
 1188 0419 6C040000 		.4byte	0x46c
 1189 041d 11       		.uleb128 0x11
 1190 041e 72617700 		.ascii	"raw\000"
 1191 0422 06       		.byte	0x6
 1192 0423 9D01     		.2byte	0x19d
 1193 0425 6C040000 		.4byte	0x46c
 1194 0429 00       		.byte	0
 1195 042a 0E       		.uleb128 0xe
 1196 042b 33090000 		.4byte	.LASF67
 1197 042f 06       		.byte	0x6
 1198 0430 A201     		.2byte	0x1a2
 1199 0432 6C040000 		.4byte	0x46c
 1200 0436 02       		.byte	0x2
 1201 0437 0E       		.uleb128 0xe
 1202 0438 4D080000 		.4byte	.LASF68
 1203 043c 06       		.byte	0x6
 1204 043d A801     		.2byte	0x1a8
 1205 043f 7B020000 		.4byte	0x27b
 1206 0443 04       		.byte	0x4
 1207 0444 0E       		.uleb128 0xe
 1208 0445 3B070000 		.4byte	.LASF69
 1209 0449 06       		.byte	0x6
 1210 044a AD01     		.2byte	0x1ad
 1211 044c D0000000 		.4byte	0xd0
 1212 0450 06       		.byte	0x6
 1213 0451 0E       		.uleb128 0xe
 1214 0452 90090000 		.4byte	.LASF70
 1215 0456 06       		.byte	0x6
 1216 0457 B201     		.2byte	0x1b2
 1217 0459 7C040000 		.4byte	0x47c
 1218 045d 08       		.byte	0x8
 1219 045e 0E       		.uleb128 0xe
 1220 045f 8B040000 		.4byte	.LASF71
 1221 0463 06       		.byte	0x6
 1222 0464 B701     		.2byte	0x1b7
 1223 0466 7B020000 		.4byte	0x27b
 1224 046a 09       		.byte	0x9
 1225 046b 00       		.byte	0
 1226 046c 0C       		.uleb128 0xc
 1227 046d 77000000 		.4byte	0x77
 1228 0471 7C040000 		.4byte	0x47c
 1229 0475 0D       		.uleb128 0xd
ARM GAS  C:\Users\doita\AppData\Local\Temp\cc44fZpJ.s 			page 50


 1230 0476 C7000000 		.4byte	0xc7
 1231 047a 00       		.byte	0
 1232 047b 00       		.byte	0
 1233 047c 0C       		.uleb128 0xc
 1234 047d DC000000 		.4byte	0xdc
 1235 0481 8C040000 		.4byte	0x48c
 1236 0485 0D       		.uleb128 0xd
 1237 0486 C7000000 		.4byte	0xc7
 1238 048a 00       		.byte	0
 1239 048b 00       		.byte	0
 1240 048c 04       		.uleb128 0x4
 1241 048d 1E010000 		.4byte	.LASF72
 1242 0491 06       		.byte	0x6
 1243 0492 B801     		.2byte	0x1b8
 1244 0494 14040000 		.4byte	0x414
 1245 0498 10       		.uleb128 0x10
 1246 0499 82       		.byte	0x82
 1247 049a 06       		.byte	0x6
 1248 049b BE01     		.2byte	0x1be
 1249 049d 4B050000 		.4byte	0x54b
 1250 04a1 0E       		.uleb128 0xe
 1251 04a2 BB000000 		.4byte	.LASF53
 1252 04a6 06       		.byte	0x6
 1253 04a7 C301     		.2byte	0x1c3
 1254 04a9 4B050000 		.4byte	0x54b
 1255 04ad 00       		.byte	0
 1256 04ae 0E       		.uleb128 0xe
 1257 04af C1000000 		.4byte	.LASF54
 1258 04b3 06       		.byte	0x6
 1259 04b4 C801     		.2byte	0x1c8
 1260 04b6 4B050000 		.4byte	0x54b
 1261 04ba 0A       		.byte	0xa
 1262 04bb 0E       		.uleb128 0xe
 1263 04bc C7000000 		.4byte	.LASF55
 1264 04c0 06       		.byte	0x6
 1265 04c1 CD01     		.2byte	0x1cd
 1266 04c3 4B050000 		.4byte	0x54b
 1267 04c7 14       		.byte	0x14
 1268 04c8 0E       		.uleb128 0xe
 1269 04c9 CD000000 		.4byte	.LASF56
 1270 04cd 06       		.byte	0x6
 1271 04ce D201     		.2byte	0x1d2
 1272 04d0 4B050000 		.4byte	0x54b
 1273 04d4 1E       		.byte	0x1e
 1274 04d5 0E       		.uleb128 0xe
 1275 04d6 D3000000 		.4byte	.LASF57
 1276 04da 06       		.byte	0x6
 1277 04db D701     		.2byte	0x1d7
 1278 04dd 4B050000 		.4byte	0x54b
 1279 04e1 28       		.byte	0x28
 1280 04e2 0E       		.uleb128 0xe
 1281 04e3 D9000000 		.4byte	.LASF58
 1282 04e7 06       		.byte	0x6
 1283 04e8 DC01     		.2byte	0x1dc
 1284 04ea 4B050000 		.4byte	0x54b
 1285 04ee 32       		.byte	0x32
 1286 04ef 0E       		.uleb128 0xe
ARM GAS  C:\Users\doita\AppData\Local\Temp\cc44fZpJ.s 			page 51


 1287 04f0 DF000000 		.4byte	.LASF59
 1288 04f4 06       		.byte	0x6
 1289 04f5 E101     		.2byte	0x1e1
 1290 04f7 4B050000 		.4byte	0x54b
 1291 04fb 3C       		.byte	0x3c
 1292 04fc 0E       		.uleb128 0xe
 1293 04fd E5000000 		.4byte	.LASF60
 1294 0501 06       		.byte	0x6
 1295 0502 E601     		.2byte	0x1e6
 1296 0504 4B050000 		.4byte	0x54b
 1297 0508 46       		.byte	0x46
 1298 0509 0E       		.uleb128 0xe
 1299 050a EB000000 		.4byte	.LASF61
 1300 050e 06       		.byte	0x6
 1301 050f EB01     		.2byte	0x1eb
 1302 0511 4B050000 		.4byte	0x54b
 1303 0515 50       		.byte	0x50
 1304 0516 0E       		.uleb128 0xe
 1305 0517 F1000000 		.4byte	.LASF62
 1306 051b 06       		.byte	0x6
 1307 051c F001     		.2byte	0x1f0
 1308 051e 4B050000 		.4byte	0x54b
 1309 0522 5A       		.byte	0x5a
 1310 0523 0E       		.uleb128 0xe
 1311 0524 BE010000 		.4byte	.LASF63
 1312 0528 06       		.byte	0x6
 1313 0529 F501     		.2byte	0x1f5
 1314 052b 4B050000 		.4byte	0x54b
 1315 052f 64       		.byte	0x64
 1316 0530 0E       		.uleb128 0xe
 1317 0531 C4010000 		.4byte	.LASF64
 1318 0535 06       		.byte	0x6
 1319 0536 FA01     		.2byte	0x1fa
 1320 0538 4B050000 		.4byte	0x54b
 1321 053c 6E       		.byte	0x6e
 1322 053d 0E       		.uleb128 0xe
 1323 053e CA010000 		.4byte	.LASF65
 1324 0542 06       		.byte	0x6
 1325 0543 FF01     		.2byte	0x1ff
 1326 0545 4B050000 		.4byte	0x54b
 1327 0549 78       		.byte	0x78
 1328 054a 00       		.byte	0
 1329 054b 0C       		.uleb128 0xc
 1330 054c 8C040000 		.4byte	0x48c
 1331 0550 5B050000 		.4byte	0x55b
 1332 0554 0D       		.uleb128 0xd
 1333 0555 C7000000 		.4byte	0xc7
 1334 0559 00       		.byte	0
 1335 055a 00       		.byte	0
 1336 055b 04       		.uleb128 0x4
 1337 055c 4B090000 		.4byte	.LASF73
 1338 0560 06       		.byte	0x6
 1339 0561 0002     		.2byte	0x200
 1340 0563 98040000 		.4byte	0x498
 1341 0567 0F       		.uleb128 0xf
 1342 0568 B801     		.2byte	0x1b8
 1343 056a 06       		.byte	0x6
ARM GAS  C:\Users\doita\AppData\Local\Temp\cc44fZpJ.s 			page 52


 1344 056b 0602     		.2byte	0x206
 1345 056d 70060000 		.4byte	0x670
 1346 0571 0E       		.uleb128 0xe
 1347 0572 69060000 		.4byte	.LASF74
 1348 0576 06       		.byte	0x6
 1349 0577 0D02     		.2byte	0x20d
 1350 0579 77000000 		.4byte	0x77
 1351 057d 00       		.byte	0
 1352 057e 0E       		.uleb128 0xe
 1353 057f DA090000 		.4byte	.LASF75
 1354 0583 06       		.byte	0x6
 1355 0584 1202     		.2byte	0x212
 1356 0586 77000000 		.4byte	0x77
 1357 058a 02       		.byte	0x2
 1358 058b 0E       		.uleb128 0xe
 1359 058c 3C010000 		.4byte	.LASF76
 1360 0590 06       		.byte	0x6
 1361 0591 1702     		.2byte	0x217
 1362 0593 77000000 		.4byte	0x77
 1363 0597 04       		.byte	0x4
 1364 0598 0E       		.uleb128 0xe
 1365 0599 40070000 		.4byte	.LASF77
 1366 059d 06       		.byte	0x6
 1367 059e 1D02     		.2byte	0x21d
 1368 05a0 77000000 		.4byte	0x77
 1369 05a4 06       		.byte	0x6
 1370 05a5 0E       		.uleb128 0xe
 1371 05a6 12010000 		.4byte	.LASF78
 1372 05aa 06       		.byte	0x6
 1373 05ab 2202     		.2byte	0x222
 1374 05ad 77000000 		.4byte	0x77
 1375 05b1 08       		.byte	0x8
 1376 05b2 0E       		.uleb128 0xe
 1377 05b3 84040000 		.4byte	.LASF79
 1378 05b7 06       		.byte	0x6
 1379 05b8 2702     		.2byte	0x227
 1380 05ba B0000000 		.4byte	0xb0
 1381 05be 0C       		.byte	0xc
 1382 05bf 0E       		.uleb128 0xe
 1383 05c0 30070000 		.4byte	.LASF80
 1384 05c4 06       		.byte	0x6
 1385 05c5 2D02     		.2byte	0x22d
 1386 05c7 70060000 		.4byte	0x670
 1387 05cb 10       		.byte	0x10
 1388 05cc 0E       		.uleb128 0xe
 1389 05cd 73070000 		.4byte	.LASF81
 1390 05d1 06       		.byte	0x6
 1391 05d2 3402     		.2byte	0x234
 1392 05d4 70060000 		.4byte	0x670
 1393 05d8 14       		.byte	0x14
 1394 05d9 0E       		.uleb128 0xe
 1395 05da 87060000 		.4byte	.LASF82
 1396 05de 06       		.byte	0x6
 1397 05df 4402     		.2byte	0x244
 1398 05e1 80060000 		.4byte	0x680
 1399 05e5 18       		.byte	0x18
 1400 05e6 0E       		.uleb128 0xe
ARM GAS  C:\Users\doita\AppData\Local\Temp\cc44fZpJ.s 			page 53


 1401 05e7 04050000 		.4byte	.LASF83
 1402 05eb 06       		.byte	0x6
 1403 05ec 4A02     		.2byte	0x24a
 1404 05ee 77000000 		.4byte	0x77
 1405 05f2 26       		.byte	0x26
 1406 05f3 0E       		.uleb128 0xe
 1407 05f4 84030000 		.4byte	.LASF84
 1408 05f8 06       		.byte	0x6
 1409 05f9 4F02     		.2byte	0x24f
 1410 05fb 6B000000 		.4byte	0x6b
 1411 05ff 28       		.byte	0x28
 1412 0600 0E       		.uleb128 0xe
 1413 0601 BF040000 		.4byte	.LASF85
 1414 0605 06       		.byte	0x6
 1415 0606 5402     		.2byte	0x254
 1416 0608 08040000 		.4byte	0x408
 1417 060c 2A       		.byte	0x2a
 1418 060d 12       		.uleb128 0x12
 1419 060e C5020000 		.4byte	.LASF86
 1420 0612 06       		.byte	0x6
 1421 0613 5902     		.2byte	0x259
 1422 0615 5B050000 		.4byte	0x55b
 1423 0619 2E01     		.2byte	0x12e
 1424 061b 12       		.uleb128 0x12
 1425 061c FC060000 		.4byte	.LASF87
 1426 0620 06       		.byte	0x6
 1427 0621 5E02     		.2byte	0x25e
 1428 0623 6B000000 		.4byte	0x6b
 1429 0627 B001     		.2byte	0x1b0
 1430 0629 12       		.uleb128 0x12
 1431 062a 16030000 		.4byte	.LASF88
 1432 062e 06       		.byte	0x6
 1433 062f 6302     		.2byte	0x263
 1434 0631 6B000000 		.4byte	0x6b
 1435 0635 B101     		.2byte	0x1b1
 1436 0637 12       		.uleb128 0x12
 1437 0638 56060000 		.4byte	.LASF89
 1438 063c 06       		.byte	0x6
 1439 063d 6802     		.2byte	0x268
 1440 063f 77000000 		.4byte	0x77
 1441 0643 B201     		.2byte	0x1b2
 1442 0645 12       		.uleb128 0x12
 1443 0646 C8040000 		.4byte	.LASF90
 1444 064a 06       		.byte	0x6
 1445 064b 6D02     		.2byte	0x26d
 1446 064d 6C040000 		.4byte	0x46c
 1447 0651 B401     		.2byte	0x1b4
 1448 0653 12       		.uleb128 0x12
 1449 0654 44010000 		.4byte	.LASF91
 1450 0658 06       		.byte	0x6
 1451 0659 7202     		.2byte	0x272
 1452 065b 6B000000 		.4byte	0x6b
 1453 065f B601     		.2byte	0x1b6
 1454 0661 12       		.uleb128 0x12
 1455 0662 8A080000 		.4byte	.LASF92
 1456 0666 06       		.byte	0x6
 1457 0667 7702     		.2byte	0x277
ARM GAS  C:\Users\doita\AppData\Local\Temp\cc44fZpJ.s 			page 54


 1458 0669 6B000000 		.4byte	0x6b
 1459 066d B701     		.2byte	0x1b7
 1460 066f 00       		.byte	0
 1461 0670 0C       		.uleb128 0xc
 1462 0671 83000000 		.4byte	0x83
 1463 0675 80060000 		.4byte	0x680
 1464 0679 0D       		.uleb128 0xd
 1465 067a C7000000 		.4byte	0xc7
 1466 067e 00       		.byte	0
 1467 067f 00       		.byte	0
 1468 0680 0C       		.uleb128 0xc
 1469 0681 6B000000 		.4byte	0x6b
 1470 0685 90060000 		.4byte	0x690
 1471 0689 0D       		.uleb128 0xd
 1472 068a C7000000 		.4byte	0xc7
 1473 068e 0C       		.byte	0xc
 1474 068f 00       		.byte	0
 1475 0690 04       		.uleb128 0x4
 1476 0691 9A000000 		.4byte	.LASF93
 1477 0695 06       		.byte	0x6
 1478 0696 7802     		.2byte	0x278
 1479 0698 67050000 		.4byte	0x567
 1480 069c 10       		.uleb128 0x10
 1481 069d 20       		.byte	0x20
 1482 069e 06       		.byte	0x6
 1483 069f DF02     		.2byte	0x2df
 1484 06a1 28070000 		.4byte	0x728
 1485 06a5 0E       		.uleb128 0xe
 1486 06a6 6E090000 		.4byte	.LASF94
 1487 06aa 06       		.byte	0x6
 1488 06ab E802     		.2byte	0x2e8
 1489 06ad 28070000 		.4byte	0x728
 1490 06b1 00       		.byte	0
 1491 06b2 0E       		.uleb128 0xe
 1492 06b3 99080000 		.4byte	.LASF95
 1493 06b7 06       		.byte	0x6
 1494 06b8 EF02     		.2byte	0x2ef
 1495 06ba CE000000 		.4byte	0xce
 1496 06be 04       		.byte	0x4
 1497 06bf 0E       		.uleb128 0xe
 1498 06c0 72060000 		.4byte	.LASF96
 1499 06c4 06       		.byte	0x6
 1500 06c5 F502     		.2byte	0x2f5
 1501 06c7 2F070000 		.4byte	0x72f
 1502 06cb 08       		.byte	0x8
 1503 06cc 0E       		.uleb128 0xe
 1504 06cd 2B050000 		.4byte	.LASF97
 1505 06d1 06       		.byte	0x6
 1506 06d2 FB02     		.2byte	0x2fb
 1507 06d4 CE000000 		.4byte	0xce
 1508 06d8 0C       		.byte	0xc
 1509 06d9 0E       		.uleb128 0xe
 1510 06da 01080000 		.4byte	.LASF98
 1511 06de 06       		.byte	0x6
 1512 06df 0203     		.2byte	0x302
 1513 06e1 35070000 		.4byte	0x735
 1514 06e5 10       		.byte	0x10
ARM GAS  C:\Users\doita\AppData\Local\Temp\cc44fZpJ.s 			page 55


 1515 06e6 0E       		.uleb128 0xe
 1516 06e7 7D080000 		.4byte	.LASF99
 1517 06eb 06       		.byte	0x6
 1518 06ec 0703     		.2byte	0x307
 1519 06ee 83000000 		.4byte	0x83
 1520 06f2 14       		.byte	0x14
 1521 06f3 0E       		.uleb128 0xe
 1522 06f4 D4030000 		.4byte	.LASF100
 1523 06f8 06       		.byte	0x6
 1524 06f9 0E03     		.2byte	0x30e
 1525 06fb 77000000 		.4byte	0x77
 1526 06ff 18       		.byte	0x18
 1527 0700 0E       		.uleb128 0xe
 1528 0701 4A030000 		.4byte	.LASF101
 1529 0705 06       		.byte	0x6
 1530 0706 1503     		.2byte	0x315
 1531 0708 6B000000 		.4byte	0x6b
 1532 070c 1A       		.byte	0x1a
 1533 070d 0E       		.uleb128 0xe
 1534 070e A2040000 		.4byte	.LASF102
 1535 0712 06       		.byte	0x6
 1536 0713 1F03     		.2byte	0x31f
 1537 0715 6B000000 		.4byte	0x6b
 1538 0719 1B       		.byte	0x1b
 1539 071a 0E       		.uleb128 0xe
 1540 071b 3B030000 		.4byte	.LASF103
 1541 071f 06       		.byte	0x6
 1542 0720 2703     		.2byte	0x327
 1543 0722 3B070000 		.4byte	0x73b
 1544 0726 1C       		.byte	0x1c
 1545 0727 00       		.byte	0
 1546 0728 13       		.uleb128 0x13
 1547 0729 04       		.byte	0x4
 1548 072a 2E070000 		.4byte	0x72e
 1549 072e 14       		.uleb128 0x14
 1550 072f 13       		.uleb128 0x13
 1551 0730 04       		.byte	0x4
 1552 0731 8C040000 		.4byte	0x48c
 1553 0735 13       		.uleb128 0x13
 1554 0736 04       		.byte	0x4
 1555 0737 6B000000 		.4byte	0x6b
 1556 073b 13       		.uleb128 0x13
 1557 073c 04       		.byte	0x4
 1558 073d 45010000 		.4byte	0x145
 1559 0741 04       		.uleb128 0x4
 1560 0742 34000000 		.4byte	.LASF104
 1561 0746 06       		.byte	0x6
 1562 0747 2803     		.2byte	0x328
 1563 0749 9C060000 		.4byte	0x69c
 1564 074d 0F       		.uleb128 0xf
 1565 074e A001     		.2byte	0x1a0
 1566 0750 06       		.byte	0x6
 1567 0751 2E03     		.2byte	0x32e
 1568 0753 65070000 		.4byte	0x765
 1569 0757 0E       		.uleb128 0xe
 1570 0758 0E0A0000 		.4byte	.LASF105
 1571 075c 06       		.byte	0x6
ARM GAS  C:\Users\doita\AppData\Local\Temp\cc44fZpJ.s 			page 56


 1572 075d 3303     		.2byte	0x333
 1573 075f 65070000 		.4byte	0x765
 1574 0763 00       		.byte	0
 1575 0764 00       		.byte	0
 1576 0765 0C       		.uleb128 0xc
 1577 0766 41070000 		.4byte	0x741
 1578 076a 75070000 		.4byte	0x775
 1579 076e 0D       		.uleb128 0xd
 1580 076f C7000000 		.4byte	0xc7
 1581 0773 0C       		.byte	0xc
 1582 0774 00       		.byte	0
 1583 0775 04       		.uleb128 0x4
 1584 0776 3A040000 		.4byte	.LASF106
 1585 077a 06       		.byte	0x6
 1586 077b 3403     		.2byte	0x334
 1587 077d 4D070000 		.4byte	0x74d
 1588 0781 10       		.uleb128 0x10
 1589 0782 02       		.byte	0x2
 1590 0783 06       		.byte	0x6
 1591 0784 6903     		.2byte	0x369
 1592 0786 98070000 		.4byte	0x798
 1593 078a 0E       		.uleb128 0xe
 1594 078b 7B090000 		.4byte	.LASF107
 1595 078f 06       		.byte	0x6
 1596 0790 6B03     		.2byte	0x36b
 1597 0792 77000000 		.4byte	0x77
 1598 0796 00       		.byte	0
 1599 0797 00       		.byte	0
 1600 0798 04       		.uleb128 0x4
 1601 0799 EE050000 		.4byte	.LASF108
 1602 079d 06       		.byte	0x6
 1603 079e 6C03     		.2byte	0x36c
 1604 07a0 81070000 		.4byte	0x781
 1605 07a4 10       		.uleb128 0x10
 1606 07a5 02       		.byte	0x2
 1607 07a6 06       		.byte	0x6
 1608 07a7 7103     		.2byte	0x371
 1609 07a9 BB070000 		.4byte	0x7bb
 1610 07ad 0E       		.uleb128 0xe
 1611 07ae 75030000 		.4byte	.LASF109
 1612 07b2 06       		.byte	0x6
 1613 07b3 7603     		.2byte	0x376
 1614 07b5 BB070000 		.4byte	0x7bb
 1615 07b9 00       		.byte	0
 1616 07ba 00       		.byte	0
 1617 07bb 0C       		.uleb128 0xc
 1618 07bc 98070000 		.4byte	0x798
 1619 07c0 CB070000 		.4byte	0x7cb
 1620 07c4 0D       		.uleb128 0xd
 1621 07c5 C7000000 		.4byte	0xc7
 1622 07c9 00       		.byte	0
 1623 07ca 00       		.byte	0
 1624 07cb 04       		.uleb128 0x4
 1625 07cc 74050000 		.4byte	.LASF110
 1626 07d0 06       		.byte	0x6
 1627 07d1 7703     		.2byte	0x377
 1628 07d3 A4070000 		.4byte	0x7a4
ARM GAS  C:\Users\doita\AppData\Local\Temp\cc44fZpJ.s 			page 57


 1629 07d7 15       		.uleb128 0x15
 1630 07d8 04       		.byte	0x4
 1631 07d9 06       		.byte	0x6
 1632 07da 7C03     		.2byte	0x37c
 1633 07dc F9070000 		.4byte	0x7f9
 1634 07e0 16       		.uleb128 0x16
 1635 07e1 70747200 		.ascii	"ptr\000"
 1636 07e5 06       		.byte	0x6
 1637 07e6 8103     		.2byte	0x381
 1638 07e8 CE000000 		.4byte	0xce
 1639 07ec 17       		.uleb128 0x17
 1640 07ed 0B030000 		.4byte	.LASF111
 1641 07f1 06       		.byte	0x6
 1642 07f2 8603     		.2byte	0x386
 1643 07f4 F9070000 		.4byte	0x7f9
 1644 07f8 00       		.byte	0
 1645 07f9 13       		.uleb128 0x13
 1646 07fa 04       		.byte	0x4
 1647 07fb CB070000 		.4byte	0x7cb
 1648 07ff 04       		.uleb128 0x4
 1649 0800 71010000 		.4byte	.LASF112
 1650 0804 06       		.byte	0x6
 1651 0805 8703     		.2byte	0x387
 1652 0807 D7070000 		.4byte	0x7d7
 1653 080b 18       		.uleb128 0x18
 1654 080c E9080000 		.4byte	.LASF117
 1655 0810 01       		.byte	0x1
 1656 0811 9001     		.2byte	0x190
 1657 0813 00000000 		.4byte	.LFB1
 1658 0817 58000000 		.4byte	.LFE1-.LFB1
 1659 081b 01       		.uleb128 0x1
 1660 081c 9C       		.byte	0x9c
 1661 081d 6B080000 		.4byte	0x86b
 1662 0821 19       		.uleb128 0x19
 1663 0822 B4000000 		.4byte	.LASF113
 1664 0826 01       		.byte	0x1
 1665 0827 9201     		.2byte	0x192
 1666 0829 83000000 		.4byte	0x83
 1667 082d 00000000 		.4byte	.LLST0
 1668 0831 19       		.uleb128 0x19
 1669 0832 9E090000 		.4byte	.LASF114
 1670 0836 01       		.byte	0x1
 1671 0837 9301     		.2byte	0x193
 1672 0839 CB010000 		.4byte	0x1cb
 1673 083d 4D000000 		.4byte	.LLST1
 1674 0841 19       		.uleb128 0x19
 1675 0842 43060000 		.4byte	.LASF115
 1676 0846 01       		.byte	0x1
 1677 0847 9401     		.2byte	0x194
 1678 0849 6B080000 		.4byte	0x86b
 1679 084d 60000000 		.4byte	.LLST2
 1680 0851 19       		.uleb128 0x19
 1681 0852 70080000 		.4byte	.LASF116
 1682 0856 01       		.byte	0x1
 1683 0857 9501     		.2byte	0x195
 1684 0859 71080000 		.4byte	0x871
 1685 085d 73000000 		.4byte	.LLST3
ARM GAS  C:\Users\doita\AppData\Local\Temp\cc44fZpJ.s 			page 58


 1686 0861 1A       		.uleb128 0x1a
 1687 0862 42000000 		.4byte	.LVL8
 1688 0866 AE0C0000 		.4byte	0xcae
 1689 086a 00       		.byte	0
 1690 086b 13       		.uleb128 0x13
 1691 086c 04       		.byte	0x4
 1692 086d 8B020000 		.4byte	0x28b
 1693 0871 13       		.uleb128 0x13
 1694 0872 04       		.byte	0x4
 1695 0873 77080000 		.4byte	0x877
 1696 0877 1B       		.uleb128 0x1b
 1697 0878 41070000 		.4byte	0x741
 1698 087c 18       		.uleb128 0x18
 1699 087d 7E070000 		.4byte	.LASF118
 1700 0881 01       		.byte	0x1
 1701 0882 3505     		.2byte	0x535
 1702 0884 00000000 		.4byte	.LFB5
 1703 0888 32000000 		.4byte	.LFE5-.LFB5
 1704 088c 01       		.uleb128 0x1
 1705 088d 9C       		.byte	0x9c
 1706 088e 00090000 		.4byte	0x900
 1707 0892 1C       		.uleb128 0x1c
 1708 0893 43060000 		.4byte	.LASF115
 1709 0897 01       		.byte	0x1
 1710 0898 3505     		.2byte	0x535
 1711 089a 6B080000 		.4byte	0x86b
 1712 089e 86000000 		.4byte	.LLST4
 1713 08a2 1C       		.uleb128 0x1c
 1714 08a3 00000000 		.4byte	.LASF119
 1715 08a7 01       		.byte	0x1
 1716 08a8 3605     		.2byte	0x536
 1717 08aa 3B070000 		.4byte	0x73b
 1718 08ae B2000000 		.4byte	.LLST5
 1719 08b2 1C       		.uleb128 0x1c
 1720 08b3 B5040000 		.4byte	.LASF120
 1721 08b7 01       		.byte	0x1
 1722 08b8 3705     		.2byte	0x537
 1723 08ba 83000000 		.4byte	0x83
 1724 08be DE000000 		.4byte	.LLST6
 1725 08c2 1D       		.uleb128 0x1d
 1726 08c3 4F070000 		.4byte	.LASF121
 1727 08c7 01       		.byte	0x1
 1728 08c8 3905     		.2byte	0x539
 1729 08ca 89010000 		.4byte	0x189
 1730 08ce 02       		.uleb128 0x2
 1731 08cf 91       		.byte	0x91
 1732 08d0 70       		.sleb128 -16
 1733 08d1 19       		.uleb128 0x19
 1734 08d2 F7000000 		.4byte	.LASF122
 1735 08d6 01       		.byte	0x1
 1736 08d7 3A05     		.2byte	0x53a
 1737 08d9 00090000 		.4byte	0x900
 1738 08dd 0A010000 		.4byte	.LLST7
 1739 08e1 1E       		.uleb128 0x1e
 1740 08e2 16000000 		.4byte	.LVL19
 1741 08e6 B90C0000 		.4byte	0xcb9
 1742 08ea 1F       		.uleb128 0x1f
ARM GAS  C:\Users\doita\AppData\Local\Temp\cc44fZpJ.s 			page 59


 1743 08eb 01       		.uleb128 0x1
 1744 08ec 50       		.byte	0x50
 1745 08ed 03       		.uleb128 0x3
 1746 08ee F3       		.byte	0xf3
 1747 08ef 01       		.uleb128 0x1
 1748 08f0 51       		.byte	0x51
 1749 08f1 1F       		.uleb128 0x1f
 1750 08f2 01       		.uleb128 0x1
 1751 08f3 51       		.byte	0x51
 1752 08f4 02       		.uleb128 0x2
 1753 08f5 7D       		.byte	0x7d
 1754 08f6 00       		.sleb128 0
 1755 08f7 1F       		.uleb128 0x1f
 1756 08f8 01       		.uleb128 0x1
 1757 08f9 53       		.byte	0x53
 1758 08fa 03       		.uleb128 0x3
 1759 08fb F3       		.byte	0xf3
 1760 08fc 01       		.uleb128 0x1
 1761 08fd 52       		.byte	0x52
 1762 08fe 00       		.byte	0
 1763 08ff 00       		.byte	0
 1764 0900 13       		.uleb128 0x13
 1765 0901 04       		.byte	0x4
 1766 0902 89010000 		.4byte	0x189
 1767 0906 18       		.uleb128 0x18
 1768 0907 11000000 		.4byte	.LASF123
 1769 090b 01       		.byte	0x1
 1770 090c 5E05     		.2byte	0x55e
 1771 090e 00000000 		.4byte	.LFB6
 1772 0912 16000000 		.4byte	.LFE6-.LFB6
 1773 0916 01       		.uleb128 0x1
 1774 0917 9C       		.byte	0x9c
 1775 0918 4B090000 		.4byte	0x94b
 1776 091c 1C       		.uleb128 0x1c
 1777 091d 43060000 		.4byte	.LASF115
 1778 0921 01       		.byte	0x1
 1779 0922 5F05     		.2byte	0x55f
 1780 0924 6B080000 		.4byte	0x86b
 1781 0928 2A010000 		.4byte	.LLST8
 1782 092c 20       		.uleb128 0x20
 1783 092d DF010000 		.4byte	.LASF124
 1784 0931 01       		.byte	0x1
 1785 0932 6005     		.2byte	0x560
 1786 0934 2F070000 		.4byte	0x72f
 1787 0938 01       		.uleb128 0x1
 1788 0939 51       		.byte	0x51
 1789 093a 19       		.uleb128 0x19
 1790 093b D0010000 		.4byte	.LASF125
 1791 093f 01       		.byte	0x1
 1792 0940 6205     		.2byte	0x562
 1793 0942 8F000000 		.4byte	0x8f
 1794 0946 4B010000 		.4byte	.LLST9
 1795 094a 00       		.byte	0
 1796 094b 21       		.uleb128 0x21
 1797 094c 49050000 		.4byte	.LASF129
 1798 0950 01       		.byte	0x1
 1799 0951 F803     		.2byte	0x3f8
ARM GAS  C:\Users\doita\AppData\Local\Temp\cc44fZpJ.s 			page 60


 1800 0953 83000000 		.4byte	0x83
 1801 0957 00000000 		.4byte	.LFB2
 1802 095b 5C000000 		.4byte	.LFE2-.LFB2
 1803 095f 01       		.uleb128 0x1
 1804 0960 9C       		.byte	0x9c
 1805 0961 410A0000 		.4byte	0xa41
 1806 0965 1C       		.uleb128 0x1c
 1807 0966 70080000 		.4byte	.LASF116
 1808 096a 01       		.byte	0x1
 1809 096b F803     		.2byte	0x3f8
 1810 096d 71080000 		.4byte	0x871
 1811 0971 7A010000 		.4byte	.LLST10
 1812 0975 19       		.uleb128 0x19
 1813 0976 CD020000 		.4byte	.LASF126
 1814 097a 01       		.byte	0x1
 1815 097b FA03     		.2byte	0x3fa
 1816 097d 83000000 		.4byte	0x83
 1817 0981 A6010000 		.4byte	.LLST11
 1818 0985 19       		.uleb128 0x19
 1819 0986 9E090000 		.4byte	.LASF114
 1820 098a 01       		.byte	0x1
 1821 098b 0004     		.2byte	0x400
 1822 098d 83000000 		.4byte	0x83
 1823 0991 E8010000 		.4byte	.LLST12
 1824 0995 19       		.uleb128 0x19
 1825 0996 49070000 		.4byte	.LASF127
 1826 099a 01       		.byte	0x1
 1827 099b 0104     		.2byte	0x401
 1828 099d 83000000 		.4byte	0x83
 1829 09a1 07020000 		.4byte	.LLST13
 1830 09a5 19       		.uleb128 0x19
 1831 09a6 05020000 		.4byte	.LASF128
 1832 09aa 01       		.byte	0x1
 1833 09ab 0204     		.2byte	0x402
 1834 09ad 2F070000 		.4byte	0x72f
 1835 09b1 26020000 		.4byte	.LLST14
 1836 09b5 19       		.uleb128 0x19
 1837 09b6 43060000 		.4byte	.LASF115
 1838 09ba 01       		.byte	0x1
 1839 09bb 0304     		.2byte	0x403
 1840 09bd 6B080000 		.4byte	0x86b
 1841 09c1 39020000 		.4byte	.LLST15
 1842 09c5 19       		.uleb128 0x19
 1843 09c6 00000000 		.4byte	.LASF119
 1844 09ca 01       		.byte	0x1
 1845 09cb 0704     		.2byte	0x407
 1846 09cd 3B070000 		.4byte	0x73b
 1847 09d1 4C020000 		.4byte	.LLST16
 1848 09d5 22       		.uleb128 0x22
 1849 09d6 26000000 		.4byte	.LVL35
 1850 09da C40C0000 		.4byte	0xcc4
 1851 09de E9090000 		.4byte	0x9e9
 1852 09e2 1F       		.uleb128 0x1f
 1853 09e3 01       		.uleb128 0x1
 1854 09e4 52       		.byte	0x52
 1855 09e5 02       		.uleb128 0x2
 1856 09e6 77       		.byte	0x77
ARM GAS  C:\Users\doita\AppData\Local\Temp\cc44fZpJ.s 			page 61


 1857 09e7 00       		.sleb128 0
 1858 09e8 00       		.byte	0
 1859 09e9 22       		.uleb128 0x22
 1860 09ea 30000000 		.4byte	.LVL36
 1861 09ee 7C080000 		.4byte	0x87c
 1862 09f2 090A0000 		.4byte	0xa09
 1863 09f6 1F       		.uleb128 0x1f
 1864 09f7 01       		.uleb128 0x1
 1865 09f8 50       		.byte	0x50
 1866 09f9 02       		.uleb128 0x2
 1867 09fa 75       		.byte	0x75
 1868 09fb 00       		.sleb128 0
 1869 09fc 1F       		.uleb128 0x1f
 1870 09fd 01       		.uleb128 0x1
 1871 09fe 51       		.byte	0x51
 1872 09ff 02       		.uleb128 0x2
 1873 0a00 77       		.byte	0x77
 1874 0a01 00       		.sleb128 0
 1875 0a02 1F       		.uleb128 0x1f
 1876 0a03 01       		.uleb128 0x1
 1877 0a04 52       		.byte	0x52
 1878 0a05 02       		.uleb128 0x2
 1879 0a06 76       		.byte	0x76
 1880 0a07 00       		.sleb128 0
 1881 0a08 00       		.byte	0
 1882 0a09 22       		.uleb128 0x22
 1883 0a0a 3C000000 		.4byte	.LVL38
 1884 0a0e CF0C0000 		.4byte	0xccf
 1885 0a12 2A0A0000 		.4byte	0xa2a
 1886 0a16 1F       		.uleb128 0x1f
 1887 0a17 01       		.uleb128 0x1
 1888 0a18 50       		.byte	0x50
 1889 0a19 02       		.uleb128 0x2
 1890 0a1a 75       		.byte	0x75
 1891 0a1b 00       		.sleb128 0
 1892 0a1c 1F       		.uleb128 0x1f
 1893 0a1d 01       		.uleb128 0x1
 1894 0a1e 51       		.byte	0x51
 1895 0a1f 02       		.uleb128 0x2
 1896 0a20 74       		.byte	0x74
 1897 0a21 00       		.sleb128 0
 1898 0a22 1F       		.uleb128 0x1f
 1899 0a23 01       		.uleb128 0x1
 1900 0a24 52       		.byte	0x52
 1901 0a25 03       		.uleb128 0x3
 1902 0a26 91       		.byte	0x91
 1903 0a27 64       		.sleb128 -28
 1904 0a28 06       		.byte	0x6
 1905 0a29 00       		.byte	0
 1906 0a2a 1E       		.uleb128 0x1e
 1907 0a2b 46000000 		.4byte	.LVL41
 1908 0a2f 06090000 		.4byte	0x906
 1909 0a33 1F       		.uleb128 0x1f
 1910 0a34 01       		.uleb128 0x1
 1911 0a35 50       		.byte	0x50
 1912 0a36 02       		.uleb128 0x2
 1913 0a37 75       		.byte	0x75
ARM GAS  C:\Users\doita\AppData\Local\Temp\cc44fZpJ.s 			page 62


 1914 0a38 00       		.sleb128 0
 1915 0a39 1F       		.uleb128 0x1f
 1916 0a3a 01       		.uleb128 0x1
 1917 0a3b 51       		.byte	0x51
 1918 0a3c 02       		.uleb128 0x2
 1919 0a3d 74       		.byte	0x74
 1920 0a3e 00       		.sleb128 0
 1921 0a3f 00       		.byte	0
 1922 0a40 00       		.byte	0
 1923 0a41 21       		.uleb128 0x21
 1924 0a42 C5060000 		.4byte	.LASF130
 1925 0a46 01       		.byte	0x1
 1926 0a47 7A04     		.2byte	0x47a
 1927 0a49 83000000 		.4byte	0x83
 1928 0a4d 00000000 		.4byte	.LFB3
 1929 0a51 52000000 		.4byte	.LFE3-.LFB3
 1930 0a55 01       		.uleb128 0x1
 1931 0a56 9C       		.byte	0x9c
 1932 0a57 470B0000 		.4byte	0xb47
 1933 0a5b 1C       		.uleb128 0x1c
 1934 0a5c 70080000 		.4byte	.LASF116
 1935 0a60 01       		.byte	0x1
 1936 0a61 7B04     		.2byte	0x47b
 1937 0a63 71080000 		.4byte	0x871
 1938 0a67 5F020000 		.4byte	.LLST17
 1939 0a6b 1C       		.uleb128 0x1c
 1940 0a6c DF010000 		.4byte	.LASF124
 1941 0a70 01       		.byte	0x1
 1942 0a71 7C04     		.2byte	0x47c
 1943 0a73 2F070000 		.4byte	0x72f
 1944 0a77 80020000 		.4byte	.LLST18
 1945 0a7b 1C       		.uleb128 0x1c
 1946 0a7c 7D060000 		.4byte	.LASF131
 1947 0a80 01       		.byte	0x1
 1948 0a81 7D04     		.2byte	0x47d
 1949 0a83 FF070000 		.4byte	0x7ff
 1950 0a87 9F020000 		.4byte	.LLST19
 1951 0a8b 1C       		.uleb128 0x1c
 1952 0a8c DA010000 		.4byte	.LASF132
 1953 0a90 01       		.byte	0x1
 1954 0a91 7E04     		.2byte	0x47e
 1955 0a93 83000000 		.4byte	0x83
 1956 0a97 DE020000 		.4byte	.LLST20
 1957 0a9b 19       		.uleb128 0x19
 1958 0a9c CD020000 		.4byte	.LASF126
 1959 0aa0 01       		.byte	0x1
 1960 0aa1 8004     		.2byte	0x480
 1961 0aa3 83000000 		.4byte	0x83
 1962 0aa7 0A030000 		.4byte	.LLST21
 1963 0aab 19       		.uleb128 0x19
 1964 0aac 9E090000 		.4byte	.LASF114
 1965 0ab0 01       		.byte	0x1
 1966 0ab1 8104     		.2byte	0x481
 1967 0ab3 83000000 		.4byte	0x83
 1968 0ab7 4B030000 		.4byte	.LLST22
 1969 0abb 19       		.uleb128 0x19
 1970 0abc 43060000 		.4byte	.LASF115
ARM GAS  C:\Users\doita\AppData\Local\Temp\cc44fZpJ.s 			page 63


 1971 0ac0 01       		.byte	0x1
 1972 0ac1 8204     		.2byte	0x482
 1973 0ac3 6B080000 		.4byte	0x86b
 1974 0ac7 5E030000 		.4byte	.LLST23
 1975 0acb 19       		.uleb128 0x19
 1976 0acc 00000000 		.4byte	.LASF119
 1977 0ad0 01       		.byte	0x1
 1978 0ad1 8504     		.2byte	0x485
 1979 0ad3 3B070000 		.4byte	0x73b
 1980 0ad7 71030000 		.4byte	.LLST24
 1981 0adb 22       		.uleb128 0x22
 1982 0adc 1E000000 		.4byte	.LVL59
 1983 0ae0 C40C0000 		.4byte	0xcc4
 1984 0ae4 EF0A0000 		.4byte	0xaef
 1985 0ae8 1F       		.uleb128 0x1f
 1986 0ae9 01       		.uleb128 0x1
 1987 0aea 52       		.byte	0x52
 1988 0aeb 02       		.uleb128 0x2
 1989 0aec 77       		.byte	0x77
 1990 0aed 00       		.sleb128 0
 1991 0aee 00       		.byte	0
 1992 0aef 22       		.uleb128 0x22
 1993 0af0 2C000000 		.4byte	.LVL61
 1994 0af4 7C080000 		.4byte	0x87c
 1995 0af8 0E0B0000 		.4byte	0xb0e
 1996 0afc 1F       		.uleb128 0x1f
 1997 0afd 01       		.uleb128 0x1
 1998 0afe 50       		.byte	0x50
 1999 0aff 02       		.uleb128 0x2
 2000 0b00 75       		.byte	0x75
 2001 0b01 00       		.sleb128 0
 2002 0b02 1F       		.uleb128 0x1f
 2003 0b03 01       		.uleb128 0x1
 2004 0b04 51       		.byte	0x51
 2005 0b05 02       		.uleb128 0x2
 2006 0b06 77       		.byte	0x77
 2007 0b07 00       		.sleb128 0
 2008 0b08 1F       		.uleb128 0x1f
 2009 0b09 01       		.uleb128 0x1
 2010 0b0a 52       		.byte	0x52
 2011 0b0b 01       		.uleb128 0x1
 2012 0b0c 30       		.byte	0x30
 2013 0b0d 00       		.byte	0
 2014 0b0e 22       		.uleb128 0x22
 2015 0b0f 3A000000 		.4byte	.LVL63
 2016 0b13 CF0C0000 		.4byte	0xccf
 2017 0b17 2F0B0000 		.4byte	0xb2f
 2018 0b1b 1F       		.uleb128 0x1f
 2019 0b1c 01       		.uleb128 0x1
 2020 0b1d 50       		.byte	0x50
 2021 0b1e 02       		.uleb128 0x2
 2022 0b1f 75       		.byte	0x75
 2023 0b20 00       		.sleb128 0
 2024 0b21 1F       		.uleb128 0x1f
 2025 0b22 01       		.uleb128 0x1
 2026 0b23 51       		.byte	0x51
 2027 0b24 03       		.uleb128 0x3
ARM GAS  C:\Users\doita\AppData\Local\Temp\cc44fZpJ.s 			page 64


 2028 0b25 91       		.byte	0x91
 2029 0b26 64       		.sleb128 -28
 2030 0b27 06       		.byte	0x6
 2031 0b28 1F       		.uleb128 0x1f
 2032 0b29 01       		.uleb128 0x1
 2033 0b2a 52       		.byte	0x52
 2034 0b2b 02       		.uleb128 0x2
 2035 0b2c 76       		.byte	0x76
 2036 0b2d 00       		.sleb128 0
 2037 0b2e 00       		.byte	0
 2038 0b2f 1E       		.uleb128 0x1e
 2039 0b30 4C000000 		.4byte	.LVL67
 2040 0b34 06090000 		.4byte	0x906
 2041 0b38 1F       		.uleb128 0x1f
 2042 0b39 01       		.uleb128 0x1
 2043 0b3a 50       		.byte	0x50
 2044 0b3b 02       		.uleb128 0x2
 2045 0b3c 75       		.byte	0x75
 2046 0b3d 00       		.sleb128 0
 2047 0b3e 1F       		.uleb128 0x1f
 2048 0b3f 01       		.uleb128 0x1
 2049 0b40 51       		.byte	0x51
 2050 0b41 03       		.uleb128 0x3
 2051 0b42 91       		.byte	0x91
 2052 0b43 64       		.sleb128 -28
 2053 0b44 06       		.byte	0x6
 2054 0b45 00       		.byte	0
 2055 0b46 00       		.byte	0
 2056 0b47 21       		.uleb128 0x21
 2057 0b48 53000000 		.4byte	.LASF133
 2058 0b4c 01       		.byte	0x1
 2059 0b4d A805     		.2byte	0x5a8
 2060 0b4f 83000000 		.4byte	0x83
 2061 0b53 00000000 		.4byte	.LFB7
 2062 0b57 64000000 		.4byte	.LFE7-.LFB7
 2063 0b5b 01       		.uleb128 0x1
 2064 0b5c 9C       		.byte	0x9c
 2065 0b5d F00B0000 		.4byte	0xbf0
 2066 0b61 1C       		.uleb128 0x1c
 2067 0b62 BC080000 		.4byte	.LASF134
 2068 0b66 01       		.byte	0x1
 2069 0b67 A805     		.2byte	0x5a8
 2070 0b69 83000000 		.4byte	0x83
 2071 0b6d 8F030000 		.4byte	.LLST25
 2072 0b71 1C       		.uleb128 0x1c
 2073 0b72 70080000 		.4byte	.LASF116
 2074 0b76 01       		.byte	0x1
 2075 0b77 A805     		.2byte	0x5a8
 2076 0b79 71080000 		.4byte	0x871
 2077 0b7d AD030000 		.4byte	.LLST26
 2078 0b81 19       		.uleb128 0x19
 2079 0b82 93000000 		.4byte	.LASF135
 2080 0b86 01       		.byte	0x1
 2081 0b87 AA05     		.2byte	0x5aa
 2082 0b89 83000000 		.4byte	0x83
 2083 0b8d CE030000 		.4byte	.LLST27
 2084 0b91 19       		.uleb128 0x19
ARM GAS  C:\Users\doita\AppData\Local\Temp\cc44fZpJ.s 			page 65


 2085 0b92 4E060000 		.4byte	.LASF136
 2086 0b96 01       		.byte	0x1
 2087 0b97 AB05     		.2byte	0x5ab
 2088 0b99 83000000 		.4byte	0x83
 2089 0b9d 18040000 		.4byte	.LLST28
 2090 0ba1 19       		.uleb128 0x19
 2091 0ba2 1D020000 		.4byte	.LASF137
 2092 0ba6 01       		.byte	0x1
 2093 0ba7 AC05     		.2byte	0x5ac
 2094 0ba9 83000000 		.4byte	0x83
 2095 0bad 37040000 		.4byte	.LLST29
 2096 0bb1 19       		.uleb128 0x19
 2097 0bb2 23050000 		.4byte	.LASF138
 2098 0bb6 01       		.byte	0x1
 2099 0bb7 AD05     		.2byte	0x5ad
 2100 0bb9 83000000 		.4byte	0x83
 2101 0bbd 55040000 		.4byte	.LLST30
 2102 0bc1 19       		.uleb128 0x19
 2103 0bc2 05020000 		.4byte	.LASF128
 2104 0bc6 01       		.byte	0x1
 2105 0bc7 AE05     		.2byte	0x5ae
 2106 0bc9 2F070000 		.4byte	0x72f
 2107 0bcd 73040000 		.4byte	.LLST31
 2108 0bd1 19       		.uleb128 0x19
 2109 0bd2 43060000 		.4byte	.LASF115
 2110 0bd6 01       		.byte	0x1
 2111 0bd7 AF05     		.2byte	0x5af
 2112 0bd9 6B080000 		.4byte	0x86b
 2113 0bdd 86040000 		.4byte	.LLST32
 2114 0be1 1D       		.uleb128 0x1d
 2115 0be2 5A070000 		.4byte	.LASF139
 2116 0be6 01       		.byte	0x1
 2117 0be7 B005     		.2byte	0x5b0
 2118 0be9 35070000 		.4byte	0x735
 2119 0bed 01       		.uleb128 0x1
 2120 0bee 53       		.byte	0x53
 2121 0bef 00       		.byte	0
 2122 0bf0 18       		.uleb128 0x18
 2123 0bf1 12040000 		.4byte	.LASF140
 2124 0bf5 01       		.byte	0x1
 2125 0bf6 DE04     		.2byte	0x4de
 2126 0bf8 00000000 		.4byte	.LFB4
 2127 0bfc 58000000 		.4byte	.LFE4-.LFB4
 2128 0c00 01       		.uleb128 0x1
 2129 0c01 9C       		.byte	0x9c
 2130 0c02 910C0000 		.4byte	0xc91
 2131 0c06 1C       		.uleb128 0x1c
 2132 0c07 E3090000 		.4byte	.LASF141
 2133 0c0b 01       		.byte	0x1
 2134 0c0c DE04     		.2byte	0x4de
 2135 0c0e 83000000 		.4byte	0x83
 2136 0c12 99040000 		.4byte	.LLST33
 2137 0c16 1C       		.uleb128 0x1c
 2138 0c17 70080000 		.4byte	.LASF116
 2139 0c1b 01       		.byte	0x1
 2140 0c1c DE04     		.2byte	0x4de
 2141 0c1e 71080000 		.4byte	0x871
ARM GAS  C:\Users\doita\AppData\Local\Temp\cc44fZpJ.s 			page 66


 2142 0c22 DB040000 		.4byte	.LLST34
 2143 0c26 19       		.uleb128 0x19
 2144 0c27 0F050000 		.4byte	.LASF142
 2145 0c2b 01       		.byte	0x1
 2146 0c2c E004     		.2byte	0x4e0
 2147 0c2e 83000000 		.4byte	0x83
 2148 0c32 15050000 		.4byte	.LLST35
 2149 0c36 19       		.uleb128 0x19
 2150 0c37 3B050000 		.4byte	.LASF143
 2151 0c3b 01       		.byte	0x1
 2152 0c3c E104     		.2byte	0x4e1
 2153 0c3e 83000000 		.4byte	0x83
 2154 0c42 3E050000 		.4byte	.LLST36
 2155 0c46 19       		.uleb128 0x19
 2156 0c47 63080000 		.4byte	.LASF144
 2157 0c4b 01       		.byte	0x1
 2158 0c4c E204     		.2byte	0x4e2
 2159 0c4e 83000000 		.4byte	0x83
 2160 0c52 96050000 		.4byte	.LLST37
 2161 0c56 19       		.uleb128 0x19
 2162 0c57 9E090000 		.4byte	.LASF114
 2163 0c5b 01       		.byte	0x1
 2164 0c5c E304     		.2byte	0x4e3
 2165 0c5e CB010000 		.4byte	0x1cb
 2166 0c62 CA050000 		.4byte	.LLST38
 2167 0c66 22       		.uleb128 0x22
 2168 0c67 16000000 		.4byte	.LVL101
 2169 0c6b 470B0000 		.4byte	0xb47
 2170 0c6f 810C0000 		.4byte	0xc81
 2171 0c73 1F       		.uleb128 0x1f
 2172 0c74 01       		.uleb128 0x1
 2173 0c75 50       		.byte	0x50
 2174 0c76 02       		.uleb128 0x2
 2175 0c77 75       		.byte	0x75
 2176 0c78 00       		.sleb128 0
 2177 0c79 1F       		.uleb128 0x1f
 2178 0c7a 01       		.uleb128 0x1
 2179 0c7b 51       		.byte	0x51
 2180 0c7c 03       		.uleb128 0x3
 2181 0c7d F3       		.byte	0xf3
 2182 0c7e 01       		.uleb128 0x1
 2183 0c7f 51       		.byte	0x51
 2184 0c80 00       		.byte	0
 2185 0c81 1E       		.uleb128 0x1e
 2186 0c82 20000000 		.4byte	.LVL105
 2187 0c86 DA0C0000 		.4byte	0xcda
 2188 0c8a 1F       		.uleb128 0x1f
 2189 0c8b 01       		.uleb128 0x1
 2190 0c8c 50       		.byte	0x50
 2191 0c8d 01       		.uleb128 0x1
 2192 0c8e 30       		.byte	0x30
 2193 0c8f 00       		.byte	0
 2194 0c90 00       		.byte	0
 2195 0c91 23       		.uleb128 0x23
 2196 0c92 26030000 		.4byte	.LASF145
 2197 0c96 06       		.byte	0x6
 2198 0c97 C804     		.2byte	0x4c8
ARM GAS  C:\Users\doita\AppData\Local\Temp\cc44fZpJ.s 			page 67


 2199 0c99 90060000 		.4byte	0x690
 2200 0c9d 23       		.uleb128 0x23
 2201 0c9e A5080000 		.4byte	.LASF146
 2202 0ca2 06       		.byte	0x6
 2203 0ca3 C904     		.2byte	0x4c9
 2204 0ca5 A90C0000 		.4byte	0xca9
 2205 0ca9 1B       		.uleb128 0x1b
 2206 0caa 75070000 		.4byte	0x775
 2207 0cae 24       		.uleb128 0x24
 2208 0caf D8040000 		.4byte	.LASF147
 2209 0cb3 D8040000 		.4byte	.LASF147
 2210 0cb7 07       		.byte	0x7
 2211 0cb8 19       		.byte	0x19
 2212 0cb9 24       		.uleb128 0x24
 2213 0cba E9010000 		.4byte	.LASF148
 2214 0cbe E9010000 		.4byte	.LASF148
 2215 0cc2 05       		.byte	0x5
 2216 0cc3 BA       		.byte	0xba
 2217 0cc4 24       		.uleb128 0x24
 2218 0cc5 56040000 		.4byte	.LASF149
 2219 0cc9 56040000 		.4byte	.LASF149
 2220 0ccd 05       		.byte	0x5
 2221 0cce C3       		.byte	0xc3
 2222 0ccf 24       		.uleb128 0x24
 2223 0cd0 BE070000 		.4byte	.LASF150
 2224 0cd4 BE070000 		.4byte	.LASF150
 2225 0cd8 08       		.byte	0x8
 2226 0cd9 72       		.byte	0x72
 2227 0cda 24       		.uleb128 0x24
 2228 0cdb 93010000 		.4byte	.LASF151
 2229 0cdf 93010000 		.4byte	.LASF151
 2230 0ce3 09       		.byte	0x9
 2231 0ce4 FA       		.byte	0xfa
 2232 0ce5 00       		.byte	0
 2233              		.section	.debug_abbrev,"",%progbits
 2234              	.Ldebug_abbrev0:
 2235 0000 01       		.uleb128 0x1
 2236 0001 11       		.uleb128 0x11
 2237 0002 01       		.byte	0x1
 2238 0003 25       		.uleb128 0x25
 2239 0004 0E       		.uleb128 0xe
 2240 0005 13       		.uleb128 0x13
 2241 0006 0B       		.uleb128 0xb
 2242 0007 03       		.uleb128 0x3
 2243 0008 0E       		.uleb128 0xe
 2244 0009 1B       		.uleb128 0x1b
 2245 000a 0E       		.uleb128 0xe
 2246 000b 55       		.uleb128 0x55
 2247 000c 17       		.uleb128 0x17
 2248 000d 11       		.uleb128 0x11
 2249 000e 01       		.uleb128 0x1
 2250 000f 10       		.uleb128 0x10
 2251 0010 17       		.uleb128 0x17
 2252 0011 00       		.byte	0
 2253 0012 00       		.byte	0
 2254 0013 02       		.uleb128 0x2
 2255 0014 24       		.uleb128 0x24
ARM GAS  C:\Users\doita\AppData\Local\Temp\cc44fZpJ.s 			page 68


 2256 0015 00       		.byte	0
 2257 0016 0B       		.uleb128 0xb
 2258 0017 0B       		.uleb128 0xb
 2259 0018 3E       		.uleb128 0x3e
 2260 0019 0B       		.uleb128 0xb
 2261 001a 03       		.uleb128 0x3
 2262 001b 0E       		.uleb128 0xe
 2263 001c 00       		.byte	0
 2264 001d 00       		.byte	0
 2265 001e 03       		.uleb128 0x3
 2266 001f 24       		.uleb128 0x24
 2267 0020 00       		.byte	0
 2268 0021 0B       		.uleb128 0xb
 2269 0022 0B       		.uleb128 0xb
 2270 0023 3E       		.uleb128 0x3e
 2271 0024 0B       		.uleb128 0xb
 2272 0025 03       		.uleb128 0x3
 2273 0026 08       		.uleb128 0x8
 2274 0027 00       		.byte	0
 2275 0028 00       		.byte	0
 2276 0029 04       		.uleb128 0x4
 2277 002a 16       		.uleb128 0x16
 2278 002b 00       		.byte	0
 2279 002c 03       		.uleb128 0x3
 2280 002d 0E       		.uleb128 0xe
 2281 002e 3A       		.uleb128 0x3a
 2282 002f 0B       		.uleb128 0xb
 2283 0030 3B       		.uleb128 0x3b
 2284 0031 05       		.uleb128 0x5
 2285 0032 49       		.uleb128 0x49
 2286 0033 13       		.uleb128 0x13
 2287 0034 00       		.byte	0
 2288 0035 00       		.byte	0
 2289 0036 05       		.uleb128 0x5
 2290 0037 35       		.uleb128 0x35
 2291 0038 00       		.byte	0
 2292 0039 49       		.uleb128 0x49
 2293 003a 13       		.uleb128 0x13
 2294 003b 00       		.byte	0
 2295 003c 00       		.byte	0
 2296 003d 06       		.uleb128 0x6
 2297 003e 16       		.uleb128 0x16
 2298 003f 00       		.byte	0
 2299 0040 03       		.uleb128 0x3
 2300 0041 0E       		.uleb128 0xe
 2301 0042 3A       		.uleb128 0x3a
 2302 0043 0B       		.uleb128 0xb
 2303 0044 3B       		.uleb128 0x3b
 2304 0045 0B       		.uleb128 0xb
 2305 0046 49       		.uleb128 0x49
 2306 0047 13       		.uleb128 0x13
 2307 0048 00       		.byte	0
 2308 0049 00       		.byte	0
 2309 004a 07       		.uleb128 0x7
 2310 004b 0F       		.uleb128 0xf
 2311 004c 00       		.byte	0
 2312 004d 0B       		.uleb128 0xb
ARM GAS  C:\Users\doita\AppData\Local\Temp\cc44fZpJ.s 			page 69


 2313 004e 0B       		.uleb128 0xb
 2314 004f 00       		.byte	0
 2315 0050 00       		.byte	0
 2316 0051 08       		.uleb128 0x8
 2317 0052 13       		.uleb128 0x13
 2318 0053 01       		.byte	0x1
 2319 0054 0B       		.uleb128 0xb
 2320 0055 0B       		.uleb128 0xb
 2321 0056 3A       		.uleb128 0x3a
 2322 0057 0B       		.uleb128 0xb
 2323 0058 3B       		.uleb128 0x3b
 2324 0059 0B       		.uleb128 0xb
 2325 005a 01       		.uleb128 0x1
 2326 005b 13       		.uleb128 0x13
 2327 005c 00       		.byte	0
 2328 005d 00       		.byte	0
 2329 005e 09       		.uleb128 0x9
 2330 005f 0D       		.uleb128 0xd
 2331 0060 00       		.byte	0
 2332 0061 03       		.uleb128 0x3
 2333 0062 0E       		.uleb128 0xe
 2334 0063 3A       		.uleb128 0x3a
 2335 0064 0B       		.uleb128 0xb
 2336 0065 3B       		.uleb128 0x3b
 2337 0066 0B       		.uleb128 0xb
 2338 0067 49       		.uleb128 0x49
 2339 0068 13       		.uleb128 0x13
 2340 0069 38       		.uleb128 0x38
 2341 006a 0B       		.uleb128 0xb
 2342 006b 00       		.byte	0
 2343 006c 00       		.byte	0
 2344 006d 0A       		.uleb128 0xa
 2345 006e 04       		.uleb128 0x4
 2346 006f 01       		.byte	0x1
 2347 0070 0B       		.uleb128 0xb
 2348 0071 0B       		.uleb128 0xb
 2349 0072 49       		.uleb128 0x49
 2350 0073 13       		.uleb128 0x13
 2351 0074 3A       		.uleb128 0x3a
 2352 0075 0B       		.uleb128 0xb
 2353 0076 3B       		.uleb128 0x3b
 2354 0077 0B       		.uleb128 0xb
 2355 0078 01       		.uleb128 0x1
 2356 0079 13       		.uleb128 0x13
 2357 007a 00       		.byte	0
 2358 007b 00       		.byte	0
 2359 007c 0B       		.uleb128 0xb
 2360 007d 28       		.uleb128 0x28
 2361 007e 00       		.byte	0
 2362 007f 03       		.uleb128 0x3
 2363 0080 0E       		.uleb128 0xe
 2364 0081 1C       		.uleb128 0x1c
 2365 0082 0B       		.uleb128 0xb
 2366 0083 00       		.byte	0
 2367 0084 00       		.byte	0
 2368 0085 0C       		.uleb128 0xc
 2369 0086 01       		.uleb128 0x1
ARM GAS  C:\Users\doita\AppData\Local\Temp\cc44fZpJ.s 			page 70


 2370 0087 01       		.byte	0x1
 2371 0088 49       		.uleb128 0x49
 2372 0089 13       		.uleb128 0x13
 2373 008a 01       		.uleb128 0x1
 2374 008b 13       		.uleb128 0x13
 2375 008c 00       		.byte	0
 2376 008d 00       		.byte	0
 2377 008e 0D       		.uleb128 0xd
 2378 008f 21       		.uleb128 0x21
 2379 0090 00       		.byte	0
 2380 0091 49       		.uleb128 0x49
 2381 0092 13       		.uleb128 0x13
 2382 0093 2F       		.uleb128 0x2f
 2383 0094 0B       		.uleb128 0xb
 2384 0095 00       		.byte	0
 2385 0096 00       		.byte	0
 2386 0097 0E       		.uleb128 0xe
 2387 0098 0D       		.uleb128 0xd
 2388 0099 00       		.byte	0
 2389 009a 03       		.uleb128 0x3
 2390 009b 0E       		.uleb128 0xe
 2391 009c 3A       		.uleb128 0x3a
 2392 009d 0B       		.uleb128 0xb
 2393 009e 3B       		.uleb128 0x3b
 2394 009f 05       		.uleb128 0x5
 2395 00a0 49       		.uleb128 0x49
 2396 00a1 13       		.uleb128 0x13
 2397 00a2 38       		.uleb128 0x38
 2398 00a3 0B       		.uleb128 0xb
 2399 00a4 00       		.byte	0
 2400 00a5 00       		.byte	0
 2401 00a6 0F       		.uleb128 0xf
 2402 00a7 13       		.uleb128 0x13
 2403 00a8 01       		.byte	0x1
 2404 00a9 0B       		.uleb128 0xb
 2405 00aa 05       		.uleb128 0x5
 2406 00ab 3A       		.uleb128 0x3a
 2407 00ac 0B       		.uleb128 0xb
 2408 00ad 3B       		.uleb128 0x3b
 2409 00ae 05       		.uleb128 0x5
 2410 00af 01       		.uleb128 0x1
 2411 00b0 13       		.uleb128 0x13
 2412 00b1 00       		.byte	0
 2413 00b2 00       		.byte	0
 2414 00b3 10       		.uleb128 0x10
 2415 00b4 13       		.uleb128 0x13
 2416 00b5 01       		.byte	0x1
 2417 00b6 0B       		.uleb128 0xb
 2418 00b7 0B       		.uleb128 0xb
 2419 00b8 3A       		.uleb128 0x3a
 2420 00b9 0B       		.uleb128 0xb
 2421 00ba 3B       		.uleb128 0x3b
 2422 00bb 05       		.uleb128 0x5
 2423 00bc 01       		.uleb128 0x1
 2424 00bd 13       		.uleb128 0x13
 2425 00be 00       		.byte	0
 2426 00bf 00       		.byte	0
ARM GAS  C:\Users\doita\AppData\Local\Temp\cc44fZpJ.s 			page 71


 2427 00c0 11       		.uleb128 0x11
 2428 00c1 0D       		.uleb128 0xd
 2429 00c2 00       		.byte	0
 2430 00c3 03       		.uleb128 0x3
 2431 00c4 08       		.uleb128 0x8
 2432 00c5 3A       		.uleb128 0x3a
 2433 00c6 0B       		.uleb128 0xb
 2434 00c7 3B       		.uleb128 0x3b
 2435 00c8 05       		.uleb128 0x5
 2436 00c9 49       		.uleb128 0x49
 2437 00ca 13       		.uleb128 0x13
 2438 00cb 38       		.uleb128 0x38
 2439 00cc 0B       		.uleb128 0xb
 2440 00cd 00       		.byte	0
 2441 00ce 00       		.byte	0
 2442 00cf 12       		.uleb128 0x12
 2443 00d0 0D       		.uleb128 0xd
 2444 00d1 00       		.byte	0
 2445 00d2 03       		.uleb128 0x3
 2446 00d3 0E       		.uleb128 0xe
 2447 00d4 3A       		.uleb128 0x3a
 2448 00d5 0B       		.uleb128 0xb
 2449 00d6 3B       		.uleb128 0x3b
 2450 00d7 05       		.uleb128 0x5
 2451 00d8 49       		.uleb128 0x49
 2452 00d9 13       		.uleb128 0x13
 2453 00da 38       		.uleb128 0x38
 2454 00db 05       		.uleb128 0x5
 2455 00dc 00       		.byte	0
 2456 00dd 00       		.byte	0
 2457 00de 13       		.uleb128 0x13
 2458 00df 0F       		.uleb128 0xf
 2459 00e0 00       		.byte	0
 2460 00e1 0B       		.uleb128 0xb
 2461 00e2 0B       		.uleb128 0xb
 2462 00e3 49       		.uleb128 0x49
 2463 00e4 13       		.uleb128 0x13
 2464 00e5 00       		.byte	0
 2465 00e6 00       		.byte	0
 2466 00e7 14       		.uleb128 0x14
 2467 00e8 26       		.uleb128 0x26
 2468 00e9 00       		.byte	0
 2469 00ea 00       		.byte	0
 2470 00eb 00       		.byte	0
 2471 00ec 15       		.uleb128 0x15
 2472 00ed 17       		.uleb128 0x17
 2473 00ee 01       		.byte	0x1
 2474 00ef 0B       		.uleb128 0xb
 2475 00f0 0B       		.uleb128 0xb
 2476 00f1 3A       		.uleb128 0x3a
 2477 00f2 0B       		.uleb128 0xb
 2478 00f3 3B       		.uleb128 0x3b
 2479 00f4 05       		.uleb128 0x5
 2480 00f5 01       		.uleb128 0x1
 2481 00f6 13       		.uleb128 0x13
 2482 00f7 00       		.byte	0
 2483 00f8 00       		.byte	0
ARM GAS  C:\Users\doita\AppData\Local\Temp\cc44fZpJ.s 			page 72


 2484 00f9 16       		.uleb128 0x16
 2485 00fa 0D       		.uleb128 0xd
 2486 00fb 00       		.byte	0
 2487 00fc 03       		.uleb128 0x3
 2488 00fd 08       		.uleb128 0x8
 2489 00fe 3A       		.uleb128 0x3a
 2490 00ff 0B       		.uleb128 0xb
 2491 0100 3B       		.uleb128 0x3b
 2492 0101 05       		.uleb128 0x5
 2493 0102 49       		.uleb128 0x49
 2494 0103 13       		.uleb128 0x13
 2495 0104 00       		.byte	0
 2496 0105 00       		.byte	0
 2497 0106 17       		.uleb128 0x17
 2498 0107 0D       		.uleb128 0xd
 2499 0108 00       		.byte	0
 2500 0109 03       		.uleb128 0x3
 2501 010a 0E       		.uleb128 0xe
 2502 010b 3A       		.uleb128 0x3a
 2503 010c 0B       		.uleb128 0xb
 2504 010d 3B       		.uleb128 0x3b
 2505 010e 05       		.uleb128 0x5
 2506 010f 49       		.uleb128 0x49
 2507 0110 13       		.uleb128 0x13
 2508 0111 00       		.byte	0
 2509 0112 00       		.byte	0
 2510 0113 18       		.uleb128 0x18
 2511 0114 2E       		.uleb128 0x2e
 2512 0115 01       		.byte	0x1
 2513 0116 3F       		.uleb128 0x3f
 2514 0117 19       		.uleb128 0x19
 2515 0118 03       		.uleb128 0x3
 2516 0119 0E       		.uleb128 0xe
 2517 011a 3A       		.uleb128 0x3a
 2518 011b 0B       		.uleb128 0xb
 2519 011c 3B       		.uleb128 0x3b
 2520 011d 05       		.uleb128 0x5
 2521 011e 27       		.uleb128 0x27
 2522 011f 19       		.uleb128 0x19
 2523 0120 11       		.uleb128 0x11
 2524 0121 01       		.uleb128 0x1
 2525 0122 12       		.uleb128 0x12
 2526 0123 06       		.uleb128 0x6
 2527 0124 40       		.uleb128 0x40
 2528 0125 18       		.uleb128 0x18
 2529 0126 9742     		.uleb128 0x2117
 2530 0128 19       		.uleb128 0x19
 2531 0129 01       		.uleb128 0x1
 2532 012a 13       		.uleb128 0x13
 2533 012b 00       		.byte	0
 2534 012c 00       		.byte	0
 2535 012d 19       		.uleb128 0x19
 2536 012e 34       		.uleb128 0x34
 2537 012f 00       		.byte	0
 2538 0130 03       		.uleb128 0x3
 2539 0131 0E       		.uleb128 0xe
 2540 0132 3A       		.uleb128 0x3a
ARM GAS  C:\Users\doita\AppData\Local\Temp\cc44fZpJ.s 			page 73


 2541 0133 0B       		.uleb128 0xb
 2542 0134 3B       		.uleb128 0x3b
 2543 0135 05       		.uleb128 0x5
 2544 0136 49       		.uleb128 0x49
 2545 0137 13       		.uleb128 0x13
 2546 0138 02       		.uleb128 0x2
 2547 0139 17       		.uleb128 0x17
 2548 013a 00       		.byte	0
 2549 013b 00       		.byte	0
 2550 013c 1A       		.uleb128 0x1a
 2551 013d 898201   		.uleb128 0x4109
 2552 0140 00       		.byte	0
 2553 0141 11       		.uleb128 0x11
 2554 0142 01       		.uleb128 0x1
 2555 0143 31       		.uleb128 0x31
 2556 0144 13       		.uleb128 0x13
 2557 0145 00       		.byte	0
 2558 0146 00       		.byte	0
 2559 0147 1B       		.uleb128 0x1b
 2560 0148 26       		.uleb128 0x26
 2561 0149 00       		.byte	0
 2562 014a 49       		.uleb128 0x49
 2563 014b 13       		.uleb128 0x13
 2564 014c 00       		.byte	0
 2565 014d 00       		.byte	0
 2566 014e 1C       		.uleb128 0x1c
 2567 014f 05       		.uleb128 0x5
 2568 0150 00       		.byte	0
 2569 0151 03       		.uleb128 0x3
 2570 0152 0E       		.uleb128 0xe
 2571 0153 3A       		.uleb128 0x3a
 2572 0154 0B       		.uleb128 0xb
 2573 0155 3B       		.uleb128 0x3b
 2574 0156 05       		.uleb128 0x5
 2575 0157 49       		.uleb128 0x49
 2576 0158 13       		.uleb128 0x13
 2577 0159 02       		.uleb128 0x2
 2578 015a 17       		.uleb128 0x17
 2579 015b 00       		.byte	0
 2580 015c 00       		.byte	0
 2581 015d 1D       		.uleb128 0x1d
 2582 015e 34       		.uleb128 0x34
 2583 015f 00       		.byte	0
 2584 0160 03       		.uleb128 0x3
 2585 0161 0E       		.uleb128 0xe
 2586 0162 3A       		.uleb128 0x3a
 2587 0163 0B       		.uleb128 0xb
 2588 0164 3B       		.uleb128 0x3b
 2589 0165 05       		.uleb128 0x5
 2590 0166 49       		.uleb128 0x49
 2591 0167 13       		.uleb128 0x13
 2592 0168 02       		.uleb128 0x2
 2593 0169 18       		.uleb128 0x18
 2594 016a 00       		.byte	0
 2595 016b 00       		.byte	0
 2596 016c 1E       		.uleb128 0x1e
 2597 016d 898201   		.uleb128 0x4109
ARM GAS  C:\Users\doita\AppData\Local\Temp\cc44fZpJ.s 			page 74


 2598 0170 01       		.byte	0x1
 2599 0171 11       		.uleb128 0x11
 2600 0172 01       		.uleb128 0x1
 2601 0173 31       		.uleb128 0x31
 2602 0174 13       		.uleb128 0x13
 2603 0175 00       		.byte	0
 2604 0176 00       		.byte	0
 2605 0177 1F       		.uleb128 0x1f
 2606 0178 8A8201   		.uleb128 0x410a
 2607 017b 00       		.byte	0
 2608 017c 02       		.uleb128 0x2
 2609 017d 18       		.uleb128 0x18
 2610 017e 9142     		.uleb128 0x2111
 2611 0180 18       		.uleb128 0x18
 2612 0181 00       		.byte	0
 2613 0182 00       		.byte	0
 2614 0183 20       		.uleb128 0x20
 2615 0184 05       		.uleb128 0x5
 2616 0185 00       		.byte	0
 2617 0186 03       		.uleb128 0x3
 2618 0187 0E       		.uleb128 0xe
 2619 0188 3A       		.uleb128 0x3a
 2620 0189 0B       		.uleb128 0xb
 2621 018a 3B       		.uleb128 0x3b
 2622 018b 05       		.uleb128 0x5
 2623 018c 49       		.uleb128 0x49
 2624 018d 13       		.uleb128 0x13
 2625 018e 02       		.uleb128 0x2
 2626 018f 18       		.uleb128 0x18
 2627 0190 00       		.byte	0
 2628 0191 00       		.byte	0
 2629 0192 21       		.uleb128 0x21
 2630 0193 2E       		.uleb128 0x2e
 2631 0194 01       		.byte	0x1
 2632 0195 3F       		.uleb128 0x3f
 2633 0196 19       		.uleb128 0x19
 2634 0197 03       		.uleb128 0x3
 2635 0198 0E       		.uleb128 0xe
 2636 0199 3A       		.uleb128 0x3a
 2637 019a 0B       		.uleb128 0xb
 2638 019b 3B       		.uleb128 0x3b
 2639 019c 05       		.uleb128 0x5
 2640 019d 27       		.uleb128 0x27
 2641 019e 19       		.uleb128 0x19
 2642 019f 49       		.uleb128 0x49
 2643 01a0 13       		.uleb128 0x13
 2644 01a1 11       		.uleb128 0x11
 2645 01a2 01       		.uleb128 0x1
 2646 01a3 12       		.uleb128 0x12
 2647 01a4 06       		.uleb128 0x6
 2648 01a5 40       		.uleb128 0x40
 2649 01a6 18       		.uleb128 0x18
 2650 01a7 9742     		.uleb128 0x2117
 2651 01a9 19       		.uleb128 0x19
 2652 01aa 01       		.uleb128 0x1
 2653 01ab 13       		.uleb128 0x13
 2654 01ac 00       		.byte	0
ARM GAS  C:\Users\doita\AppData\Local\Temp\cc44fZpJ.s 			page 75


 2655 01ad 00       		.byte	0
 2656 01ae 22       		.uleb128 0x22
 2657 01af 898201   		.uleb128 0x4109
 2658 01b2 01       		.byte	0x1
 2659 01b3 11       		.uleb128 0x11
 2660 01b4 01       		.uleb128 0x1
 2661 01b5 31       		.uleb128 0x31
 2662 01b6 13       		.uleb128 0x13
 2663 01b7 01       		.uleb128 0x1
 2664 01b8 13       		.uleb128 0x13
 2665 01b9 00       		.byte	0
 2666 01ba 00       		.byte	0
 2667 01bb 23       		.uleb128 0x23
 2668 01bc 34       		.uleb128 0x34
 2669 01bd 00       		.byte	0
 2670 01be 03       		.uleb128 0x3
 2671 01bf 0E       		.uleb128 0xe
 2672 01c0 3A       		.uleb128 0x3a
 2673 01c1 0B       		.uleb128 0xb
 2674 01c2 3B       		.uleb128 0x3b
 2675 01c3 05       		.uleb128 0x5
 2676 01c4 49       		.uleb128 0x49
 2677 01c5 13       		.uleb128 0x13
 2678 01c6 3F       		.uleb128 0x3f
 2679 01c7 19       		.uleb128 0x19
 2680 01c8 3C       		.uleb128 0x3c
 2681 01c9 19       		.uleb128 0x19
 2682 01ca 00       		.byte	0
 2683 01cb 00       		.byte	0
 2684 01cc 24       		.uleb128 0x24
 2685 01cd 2E       		.uleb128 0x2e
 2686 01ce 00       		.byte	0
 2687 01cf 3F       		.uleb128 0x3f
 2688 01d0 19       		.uleb128 0x19
 2689 01d1 3C       		.uleb128 0x3c
 2690 01d2 19       		.uleb128 0x19
 2691 01d3 6E       		.uleb128 0x6e
 2692 01d4 0E       		.uleb128 0xe
 2693 01d5 03       		.uleb128 0x3
 2694 01d6 0E       		.uleb128 0xe
 2695 01d7 3A       		.uleb128 0x3a
 2696 01d8 0B       		.uleb128 0xb
 2697 01d9 3B       		.uleb128 0x3b
 2698 01da 0B       		.uleb128 0xb
 2699 01db 00       		.byte	0
 2700 01dc 00       		.byte	0
 2701 01dd 00       		.byte	0
 2702              		.section	.debug_loc,"",%progbits
 2703              	.Ldebug_loc0:
 2704              	.LLST0:
 2705 0000 02000000 		.4byte	.LVL0
 2706 0004 06000000 		.4byte	.LVL1
 2707 0008 0200     		.2byte	0x2
 2708 000a 30       		.byte	0x30
 2709 000b 9F       		.byte	0x9f
 2710 000c 06000000 		.4byte	.LVL1
 2711 0010 22000000 		.4byte	.LVL3
ARM GAS  C:\Users\doita\AppData\Local\Temp\cc44fZpJ.s 			page 76


 2712 0014 0100     		.2byte	0x1
 2713 0016 53       		.byte	0x53
 2714 0017 24000000 		.4byte	.LVL4
 2715 001b 46000000 		.4byte	.LVL10
 2716 001f 0100     		.2byte	0x1
 2717 0021 55       		.byte	0x55
 2718 0022 46000000 		.4byte	.LVL10
 2719 0026 48000000 		.4byte	.LVL11
 2720 002a 0100     		.2byte	0x1
 2721 002c 53       		.byte	0x53
 2722 002d 48000000 		.4byte	.LVL11
 2723 0031 4C000000 		.4byte	.LVL13
 2724 0035 0100     		.2byte	0x1
 2725 0037 55       		.byte	0x55
 2726 0038 4C000000 		.4byte	.LVL13
 2727 003c 58000000 		.4byte	.LFE1
 2728 0040 0300     		.2byte	0x3
 2729 0042 73       		.byte	0x73
 2730 0043 7F       		.sleb128 -1
 2731 0044 9F       		.byte	0x9f
 2732 0045 00000000 		.4byte	0
 2733 0049 00000000 		.4byte	0
 2734              	.LLST1:
 2735 004d 28000000 		.4byte	.LVL6
 2736 0051 3E000000 		.4byte	.LVL7
 2737 0055 0100     		.2byte	0x1
 2738 0057 52       		.byte	0x52
 2739 0058 00000000 		.4byte	0
 2740 005c 00000000 		.4byte	0
 2741              	.LLST2:
 2742 0060 26000000 		.4byte	.LVL5
 2743 0064 46000000 		.4byte	.LVL10
 2744 0068 0100     		.2byte	0x1
 2745 006a 56       		.byte	0x56
 2746 006b 00000000 		.4byte	0
 2747 006f 00000000 		.4byte	0
 2748              	.LLST3:
 2749 0073 24000000 		.4byte	.LVL4
 2750 0077 4C000000 		.4byte	.LVL12
 2751 007b 0100     		.2byte	0x1
 2752 007d 54       		.byte	0x54
 2753 007e 00000000 		.4byte	0
 2754 0082 00000000 		.4byte	0
 2755              	.LLST4:
 2756 0086 00000000 		.4byte	.LVL14
 2757 008a 08000000 		.4byte	.LVL15
 2758 008e 0100     		.2byte	0x1
 2759 0090 50       		.byte	0x50
 2760 0091 08000000 		.4byte	.LVL15
 2761 0095 30000000 		.4byte	.LVL21
 2762 0099 0100     		.2byte	0x1
 2763 009b 54       		.byte	0x54
 2764 009c 30000000 		.4byte	.LVL21
 2765 00a0 32000000 		.4byte	.LFE5
 2766 00a4 0400     		.2byte	0x4
 2767 00a6 F3       		.byte	0xf3
 2768 00a7 01       		.uleb128 0x1
ARM GAS  C:\Users\doita\AppData\Local\Temp\cc44fZpJ.s 			page 77


 2769 00a8 50       		.byte	0x50
 2770 00a9 9F       		.byte	0x9f
 2771 00aa 00000000 		.4byte	0
 2772 00ae 00000000 		.4byte	0
 2773              	.LLST5:
 2774 00b2 00000000 		.4byte	.LVL14
 2775 00b6 0E000000 		.4byte	.LVL18
 2776 00ba 0100     		.2byte	0x1
 2777 00bc 51       		.byte	0x51
 2778 00bd 0E000000 		.4byte	.LVL18
 2779 00c1 15000000 		.4byte	.LVL19-1
 2780 00c5 0100     		.2byte	0x1
 2781 00c7 50       		.byte	0x50
 2782 00c8 15000000 		.4byte	.LVL19-1
 2783 00cc 32000000 		.4byte	.LFE5
 2784 00d0 0400     		.2byte	0x4
 2785 00d2 F3       		.byte	0xf3
 2786 00d3 01       		.uleb128 0x1
 2787 00d4 51       		.byte	0x51
 2788 00d5 9F       		.byte	0x9f
 2789 00d6 00000000 		.4byte	0
 2790 00da 00000000 		.4byte	0
 2791              	.LLST6:
 2792 00de 00000000 		.4byte	.LVL14
 2793 00e2 0C000000 		.4byte	.LVL17
 2794 00e6 0100     		.2byte	0x1
 2795 00e8 52       		.byte	0x52
 2796 00e9 0C000000 		.4byte	.LVL17
 2797 00ed 15000000 		.4byte	.LVL19-1
 2798 00f1 0100     		.2byte	0x1
 2799 00f3 53       		.byte	0x53
 2800 00f4 15000000 		.4byte	.LVL19-1
 2801 00f8 32000000 		.4byte	.LFE5
 2802 00fc 0400     		.2byte	0x4
 2803 00fe F3       		.byte	0xf3
 2804 00ff 01       		.uleb128 0x1
 2805 0100 52       		.byte	0x52
 2806 0101 9F       		.byte	0x9f
 2807 0102 00000000 		.4byte	0
 2808 0106 00000000 		.4byte	0
 2809              	.LLST7:
 2810 010a 0A000000 		.4byte	.LVL16
 2811 010e 30000000 		.4byte	.LVL20
 2812 0112 0100     		.2byte	0x1
 2813 0114 5D       		.byte	0x5d
 2814 0115 30000000 		.4byte	.LVL20
 2815 0119 32000000 		.4byte	.LFE5
 2816 011d 0300     		.2byte	0x3
 2817 011f 91       		.byte	0x91
 2818 0120 70       		.sleb128 -16
 2819 0121 9F       		.byte	0x9f
 2820 0122 00000000 		.4byte	0
 2821 0126 00000000 		.4byte	0
 2822              	.LLST8:
 2823 012a 00000000 		.4byte	.LVL22
 2824 012e 0E000000 		.4byte	.LVL25
 2825 0132 0100     		.2byte	0x1
ARM GAS  C:\Users\doita\AppData\Local\Temp\cc44fZpJ.s 			page 78


 2826 0134 50       		.byte	0x50
 2827 0135 0E000000 		.4byte	.LVL25
 2828 0139 16000000 		.4byte	.LFE6
 2829 013d 0400     		.2byte	0x4
 2830 013f F3       		.byte	0xf3
 2831 0140 01       		.uleb128 0x1
 2832 0141 50       		.byte	0x50
 2833 0142 9F       		.byte	0x9f
 2834 0143 00000000 		.4byte	0
 2835 0147 00000000 		.4byte	0
 2836              	.LLST9:
 2837 014b 02000000 		.4byte	.LVL23
 2838 014f 08000000 		.4byte	.LVL24
 2839 0153 0200     		.2byte	0x2
 2840 0155 30       		.byte	0x30
 2841 0156 9F       		.byte	0x9f
 2842 0157 08000000 		.4byte	.LVL24
 2843 015b 14000000 		.4byte	.LVL26
 2844 015f 0100     		.2byte	0x1
 2845 0161 54       		.byte	0x54
 2846 0162 14000000 		.4byte	.LVL26
 2847 0166 16000000 		.4byte	.LFE6
 2848 016a 0600     		.2byte	0x6
 2849 016c 73       		.byte	0x73
 2850 016d 00       		.sleb128 0
 2851 016e 72       		.byte	0x72
 2852 016f 00       		.sleb128 0
 2853 0170 1C       		.byte	0x1c
 2854 0171 9F       		.byte	0x9f
 2855 0172 00000000 		.4byte	0
 2856 0176 00000000 		.4byte	0
 2857              	.LLST10:
 2858 017a 00000000 		.4byte	.LVL27
 2859 017e 1C000000 		.4byte	.LVL34
 2860 0182 0100     		.2byte	0x1
 2861 0184 50       		.byte	0x50
 2862 0185 1C000000 		.4byte	.LVL34
 2863 0189 56000000 		.4byte	.LVL49
 2864 018d 0100     		.2byte	0x1
 2865 018f 5A       		.byte	0x5a
 2866 0190 56000000 		.4byte	.LVL49
 2867 0194 5C000000 		.4byte	.LFE2
 2868 0198 0400     		.2byte	0x4
 2869 019a F3       		.byte	0xf3
 2870 019b 01       		.uleb128 0x1
 2871 019c 50       		.byte	0x50
 2872 019d 9F       		.byte	0x9f
 2873 019e 00000000 		.4byte	0
 2874 01a2 00000000 		.4byte	0
 2875              	.LLST11:
 2876 01a6 0A000000 		.4byte	.LVL28
 2877 01aa 1C000000 		.4byte	.LVL34
 2878 01ae 0200     		.2byte	0x2
 2879 01b0 30       		.byte	0x30
 2880 01b1 9F       		.byte	0x9f
 2881 01b2 1C000000 		.4byte	.LVL34
 2882 01b6 3E000000 		.4byte	.LVL39
ARM GAS  C:\Users\doita\AppData\Local\Temp\cc44fZpJ.s 			page 79


 2883 01ba 0200     		.2byte	0x2
 2884 01bc 7D       		.byte	0x7d
 2885 01bd 00       		.sleb128 0
 2886 01be 3E000000 		.4byte	.LVL39
 2887 01c2 42000000 		.4byte	.LVL40
 2888 01c6 0100     		.2byte	0x1
 2889 01c8 50       		.byte	0x50
 2890 01c9 42000000 		.4byte	.LVL40
 2891 01cd 56000000 		.4byte	.LVL44
 2892 01d1 0200     		.2byte	0x2
 2893 01d3 7D       		.byte	0x7d
 2894 01d4 00       		.sleb128 0
 2895 01d5 56000000 		.4byte	.LVL44
 2896 01d9 5C000000 		.4byte	.LFE2
 2897 01dd 0100     		.2byte	0x1
 2898 01df 50       		.byte	0x50
 2899 01e0 00000000 		.4byte	0
 2900 01e4 00000000 		.4byte	0
 2901              	.LLST12:
 2902 01e8 12000000 		.4byte	.LVL31
 2903 01ec 18000000 		.4byte	.LVL33
 2904 01f0 0100     		.2byte	0x1
 2905 01f2 53       		.byte	0x53
 2906 01f3 18000000 		.4byte	.LVL33
 2907 01f7 5C000000 		.4byte	.LFE2
 2908 01fb 0200     		.2byte	0x2
 2909 01fd 91       		.byte	0x91
 2910 01fe 64       		.sleb128 -28
 2911 01ff 00000000 		.4byte	0
 2912 0203 00000000 		.4byte	0
 2913              	.LLST13:
 2914 0207 14000000 		.4byte	.LVL32
 2915 020b 1C000000 		.4byte	.LVL34
 2916 020f 0200     		.2byte	0x2
 2917 0211 30       		.byte	0x30
 2918 0212 9F       		.byte	0x9f
 2919 0213 1C000000 		.4byte	.LVL34
 2920 0217 56000000 		.4byte	.LVL47
 2921 021b 0100     		.2byte	0x1
 2922 021d 56       		.byte	0x56
 2923 021e 00000000 		.4byte	0
 2924 0222 00000000 		.4byte	0
 2925              	.LLST14:
 2926 0226 0C000000 		.4byte	.LVL29
 2927 022a 56000000 		.4byte	.LVL45
 2928 022e 0100     		.2byte	0x1
 2929 0230 54       		.byte	0x54
 2930 0231 00000000 		.4byte	0
 2931 0235 00000000 		.4byte	0
 2932              	.LLST15:
 2933 0239 0E000000 		.4byte	.LVL30
 2934 023d 56000000 		.4byte	.LVL46
 2935 0241 0100     		.2byte	0x1
 2936 0243 55       		.byte	0x55
 2937 0244 00000000 		.4byte	0
 2938 0248 00000000 		.4byte	0
 2939              	.LLST16:
ARM GAS  C:\Users\doita\AppData\Local\Temp\cc44fZpJ.s 			page 80


 2940 024c 14000000 		.4byte	.LVL32
 2941 0250 56000000 		.4byte	.LVL48
 2942 0254 0100     		.2byte	0x1
 2943 0256 57       		.byte	0x57
 2944 0257 00000000 		.4byte	0
 2945 025b 00000000 		.4byte	0
 2946              	.LLST17:
 2947 025f 00000000 		.4byte	.LVL50
 2948 0263 18000000 		.4byte	.LVL57
 2949 0267 0100     		.2byte	0x1
 2950 0269 50       		.byte	0x50
 2951 026a 18000000 		.4byte	.LVL57
 2952 026e 52000000 		.4byte	.LFE3
 2953 0272 0400     		.2byte	0x4
 2954 0274 F3       		.byte	0xf3
 2955 0275 01       		.uleb128 0x1
 2956 0276 50       		.byte	0x50
 2957 0277 9F       		.byte	0x9f
 2958 0278 00000000 		.4byte	0
 2959 027c 00000000 		.4byte	0
 2960              	.LLST18:
 2961 0280 00000000 		.4byte	.LVL50
 2962 0284 14000000 		.4byte	.LVL56
 2963 0288 0100     		.2byte	0x1
 2964 028a 51       		.byte	0x51
 2965 028b 14000000 		.4byte	.LVL56
 2966 028f 52000000 		.4byte	.LFE3
 2967 0293 0200     		.2byte	0x2
 2968 0295 91       		.byte	0x91
 2969 0296 64       		.sleb128 -28
 2970 0297 00000000 		.4byte	0
 2971 029b 00000000 		.4byte	0
 2972              	.LLST19:
 2973 029f 00000000 		.4byte	.LVL50
 2974 02a3 1A000000 		.4byte	.LVL58
 2975 02a7 0100     		.2byte	0x1
 2976 02a9 52       		.byte	0x52
 2977 02aa 1E000000 		.4byte	.LVL59
 2978 02ae 24000000 		.4byte	.LVL60
 2979 02b2 0100     		.2byte	0x1
 2980 02b4 52       		.byte	0x52
 2981 02b5 2C000000 		.4byte	.LVL61
 2982 02b9 32000000 		.4byte	.LVL62
 2983 02bd 0100     		.2byte	0x1
 2984 02bf 52       		.byte	0x52
 2985 02c0 3E000000 		.4byte	.LVL65
 2986 02c4 4B000000 		.4byte	.LVL67-1
 2987 02c8 0100     		.2byte	0x1
 2988 02ca 52       		.byte	0x52
 2989 02cb 4C000000 		.4byte	.LVL67
 2990 02cf 52000000 		.4byte	.LFE3
 2991 02d3 0100     		.2byte	0x1
 2992 02d5 52       		.byte	0x52
 2993 02d6 00000000 		.4byte	0
 2994 02da 00000000 		.4byte	0
 2995              	.LLST20:
 2996 02de 00000000 		.4byte	.LVL50
ARM GAS  C:\Users\doita\AppData\Local\Temp\cc44fZpJ.s 			page 81


 2997 02e2 12000000 		.4byte	.LVL55
 2998 02e6 0100     		.2byte	0x1
 2999 02e8 53       		.byte	0x53
 3000 02e9 12000000 		.4byte	.LVL55
 3001 02ed 50000000 		.4byte	.LVL68
 3002 02f1 0100     		.2byte	0x1
 3003 02f3 54       		.byte	0x54
 3004 02f4 50000000 		.4byte	.LVL68
 3005 02f8 52000000 		.4byte	.LFE3
 3006 02fc 0400     		.2byte	0x4
 3007 02fe F3       		.byte	0xf3
 3008 02ff 01       		.uleb128 0x1
 3009 0300 53       		.byte	0x53
 3010 0301 9F       		.byte	0x9f
 3011 0302 00000000 		.4byte	0
 3012 0306 00000000 		.4byte	0
 3013              	.LLST21:
 3014 030a 08000000 		.4byte	.LVL51
 3015 030e 3C000000 		.4byte	.LVL64
 3016 0312 0200     		.2byte	0x2
 3017 0314 30       		.byte	0x30
 3018 0315 9F       		.byte	0x9f
 3019 0316 3C000000 		.4byte	.LVL64
 3020 031a 3E000000 		.4byte	.LVL65
 3021 031e 0100     		.2byte	0x1
 3022 0320 50       		.byte	0x50
 3023 0321 3E000000 		.4byte	.LVL65
 3024 0325 40000000 		.4byte	.LVL66
 3025 0329 0200     		.2byte	0x2
 3026 032b 30       		.byte	0x30
 3027 032c 9F       		.byte	0x9f
 3028 032d 40000000 		.4byte	.LVL66
 3029 0331 50000000 		.4byte	.LVL71
 3030 0335 0100     		.2byte	0x1
 3031 0337 57       		.byte	0x57
 3032 0338 50000000 		.4byte	.LVL71
 3033 033c 52000000 		.4byte	.LFE3
 3034 0340 0100     		.2byte	0x1
 3035 0342 50       		.byte	0x50
 3036 0343 00000000 		.4byte	0
 3037 0347 00000000 		.4byte	0
 3038              	.LLST22:
 3039 034b 0C000000 		.4byte	.LVL53
 3040 034f 50000000 		.4byte	.LVL70
 3041 0353 0100     		.2byte	0x1
 3042 0355 56       		.byte	0x56
 3043 0356 00000000 		.4byte	0
 3044 035a 00000000 		.4byte	0
 3045              	.LLST23:
 3046 035e 0E000000 		.4byte	.LVL54
 3047 0362 50000000 		.4byte	.LVL69
 3048 0366 0100     		.2byte	0x1
 3049 0368 55       		.byte	0x55
 3050 0369 00000000 		.4byte	0
 3051 036d 00000000 		.4byte	0
 3052              	.LLST24:
 3053 0371 0A000000 		.4byte	.LVL52
ARM GAS  C:\Users\doita\AppData\Local\Temp\cc44fZpJ.s 			page 82


 3054 0375 3C000000 		.4byte	.LVL64
 3055 0379 0100     		.2byte	0x1
 3056 037b 57       		.byte	0x57
 3057 037c 3E000000 		.4byte	.LVL65
 3058 0380 40000000 		.4byte	.LVL66
 3059 0384 0100     		.2byte	0x1
 3060 0386 57       		.byte	0x57
 3061 0387 00000000 		.4byte	0
 3062 038b 00000000 		.4byte	0
 3063              	.LLST25:
 3064 038f 00000000 		.4byte	.LVL72
 3065 0393 44000000 		.4byte	.LVL84
 3066 0397 0100     		.2byte	0x1
 3067 0399 50       		.byte	0x50
 3068 039a 44000000 		.4byte	.LVL84
 3069 039e 64000000 		.4byte	.LFE7
 3070 03a2 0100     		.2byte	0x1
 3071 03a4 50       		.byte	0x50
 3072 03a5 00000000 		.4byte	0
 3073 03a9 00000000 		.4byte	0
 3074              	.LLST26:
 3075 03ad 00000000 		.4byte	.LVL72
 3076 03b1 0C000000 		.4byte	.LVL77
 3077 03b5 0100     		.2byte	0x1
 3078 03b7 51       		.byte	0x51
 3079 03b8 0C000000 		.4byte	.LVL77
 3080 03bc 64000000 		.4byte	.LFE7
 3081 03c0 0400     		.2byte	0x4
 3082 03c2 F3       		.byte	0xf3
 3083 03c3 01       		.uleb128 0x1
 3084 03c4 51       		.byte	0x51
 3085 03c5 9F       		.byte	0x9f
 3086 03c6 00000000 		.4byte	0
 3087 03ca 00000000 		.4byte	0
 3088              	.LLST27:
 3089 03ce 04000000 		.4byte	.LVL73
 3090 03d2 0E000000 		.4byte	.LVL78
 3091 03d6 0100     		.2byte	0x1
 3092 03d8 52       		.byte	0x52
 3093 03d9 0E000000 		.4byte	.LVL78
 3094 03dd 10000000 		.4byte	.LVL79
 3095 03e1 0100     		.2byte	0x1
 3096 03e3 54       		.byte	0x54
 3097 03e4 10000000 		.4byte	.LVL79
 3098 03e8 5A000000 		.4byte	.LVL92
 3099 03ec 0100     		.2byte	0x1
 3100 03ee 5C       		.byte	0x5c
 3101 03ef 5A000000 		.4byte	.LVL92
 3102 03f3 5E000000 		.4byte	.LVL93
 3103 03f7 0100     		.2byte	0x1
 3104 03f9 52       		.byte	0x52
 3105 03fa 5E000000 		.4byte	.LVL93
 3106 03fe 62000000 		.4byte	.LVL94
 3107 0402 0100     		.2byte	0x1
 3108 0404 54       		.byte	0x54
 3109 0405 62000000 		.4byte	.LVL94
 3110 0409 64000000 		.4byte	.LFE7
ARM GAS  C:\Users\doita\AppData\Local\Temp\cc44fZpJ.s 			page 83


 3111 040d 0100     		.2byte	0x1
 3112 040f 5C       		.byte	0x5c
 3113 0410 00000000 		.4byte	0
 3114 0414 00000000 		.4byte	0
 3115              	.LLST28:
 3116 0418 0A000000 		.4byte	.LVL76
 3117 041c 0E000000 		.4byte	.LVL78
 3118 0420 0200     		.2byte	0x2
 3119 0422 31       		.byte	0x31
 3120 0423 9F       		.byte	0x9f
 3121 0424 0E000000 		.4byte	.LVL78
 3122 0428 64000000 		.4byte	.LFE7
 3123 042c 0100     		.2byte	0x1
 3124 042e 51       		.byte	0x51
 3125 042f 00000000 		.4byte	0
 3126 0433 00000000 		.4byte	0
 3127              	.LLST29:
 3128 0437 2E000000 		.4byte	.LVL83
 3129 043b 4C000000 		.4byte	.LVL86
 3130 043f 0100     		.2byte	0x1
 3131 0441 52       		.byte	0x52
 3132 0442 4E000000 		.4byte	.LVL87
 3133 0446 50000000 		.4byte	.LVL88
 3134 044a 0100     		.2byte	0x1
 3135 044c 52       		.byte	0x52
 3136 044d 00000000 		.4byte	0
 3137 0451 00000000 		.4byte	0
 3138              	.LLST30:
 3139 0455 22000000 		.4byte	.LVL80
 3140 0459 2A000000 		.4byte	.LVL81
 3141 045d 0100     		.2byte	0x1
 3142 045f 52       		.byte	0x52
 3143 0460 2C000000 		.4byte	.LVL82
 3144 0464 2E000000 		.4byte	.LVL83
 3145 0468 0100     		.2byte	0x1
 3146 046a 52       		.byte	0x52
 3147 046b 00000000 		.4byte	0
 3148 046f 00000000 		.4byte	0
 3149              	.LLST31:
 3150 0473 06000000 		.4byte	.LVL74
 3151 0477 62000000 		.4byte	.LVL95
 3152 047b 0100     		.2byte	0x1
 3153 047d 55       		.byte	0x55
 3154 047e 00000000 		.4byte	0
 3155 0482 00000000 		.4byte	0
 3156              	.LLST32:
 3157 0486 08000000 		.4byte	.LVL75
 3158 048a 62000000 		.4byte	.LVL96
 3159 048e 0100     		.2byte	0x1
 3160 0490 57       		.byte	0x57
 3161 0491 00000000 		.4byte	0
 3162 0495 00000000 		.4byte	0
 3163              	.LLST33:
 3164 0499 00000000 		.4byte	.LVL97
 3165 049d 12000000 		.4byte	.LVL100
 3166 04a1 0100     		.2byte	0x1
 3167 04a3 50       		.byte	0x50
ARM GAS  C:\Users\doita\AppData\Local\Temp\cc44fZpJ.s 			page 84


 3168 04a4 12000000 		.4byte	.LVL100
 3169 04a8 1A000000 		.4byte	.LVL103
 3170 04ac 0100     		.2byte	0x1
 3171 04ae 54       		.byte	0x54
 3172 04af 1A000000 		.4byte	.LVL103
 3173 04b3 1C000000 		.4byte	.LVL104
 3174 04b7 0100     		.2byte	0x1
 3175 04b9 50       		.byte	0x50
 3176 04ba 1C000000 		.4byte	.LVL104
 3177 04be 2C000000 		.4byte	.LVL107
 3178 04c2 0100     		.2byte	0x1
 3179 04c4 54       		.byte	0x54
 3180 04c5 2C000000 		.4byte	.LVL107
 3181 04c9 58000000 		.4byte	.LFE4
 3182 04cd 0400     		.2byte	0x4
 3183 04cf F3       		.byte	0xf3
 3184 04d0 01       		.uleb128 0x1
 3185 04d1 50       		.byte	0x50
 3186 04d2 9F       		.byte	0x9f
 3187 04d3 00000000 		.4byte	0
 3188 04d7 00000000 		.4byte	0
 3189              	.LLST34:
 3190 04db 00000000 		.4byte	.LVL97
 3191 04df 15000000 		.4byte	.LVL101-1
 3192 04e3 0100     		.2byte	0x1
 3193 04e5 51       		.byte	0x51
 3194 04e6 15000000 		.4byte	.LVL101-1
 3195 04ea 1A000000 		.4byte	.LVL103
 3196 04ee 0400     		.2byte	0x4
 3197 04f0 F3       		.byte	0xf3
 3198 04f1 01       		.uleb128 0x1
 3199 04f2 51       		.byte	0x51
 3200 04f3 9F       		.byte	0x9f
 3201 04f4 1A000000 		.4byte	.LVL103
 3202 04f8 1F000000 		.4byte	.LVL105-1
 3203 04fc 0100     		.2byte	0x1
 3204 04fe 51       		.byte	0x51
 3205 04ff 1F000000 		.4byte	.LVL105-1
 3206 0503 58000000 		.4byte	.LFE4
 3207 0507 0400     		.2byte	0x4
 3208 0509 F3       		.byte	0xf3
 3209 050a 01       		.uleb128 0x1
 3210 050b 51       		.byte	0x51
 3211 050c 9F       		.byte	0x9f
 3212 050d 00000000 		.4byte	0
 3213 0511 00000000 		.4byte	0
 3214              	.LLST35:
 3215 0515 0C000000 		.4byte	.LVL99
 3216 0519 18000000 		.4byte	.LVL102
 3217 051d 0100     		.2byte	0x1
 3218 051f 55       		.byte	0x55
 3219 0520 18000000 		.4byte	.LVL102
 3220 0524 1A000000 		.4byte	.LVL103
 3221 0528 0100     		.2byte	0x1
 3222 052a 50       		.byte	0x50
 3223 052b 1A000000 		.4byte	.LVL103
 3224 052f 52000000 		.4byte	.LVL116
ARM GAS  C:\Users\doita\AppData\Local\Temp\cc44fZpJ.s 			page 85


 3225 0533 0100     		.2byte	0x1
 3226 0535 55       		.byte	0x55
 3227 0536 00000000 		.4byte	0
 3228 053a 00000000 		.4byte	0
 3229              	.LLST36:
 3230 053e 28000000 		.4byte	.LVL106
 3231 0542 36000000 		.4byte	.LVL109
 3232 0546 0100     		.2byte	0x1
 3233 0548 53       		.byte	0x53
 3234 0549 36000000 		.4byte	.LVL109
 3235 054d 38000000 		.4byte	.LVL110
 3236 0551 0300     		.2byte	0x3
 3237 0553 73       		.byte	0x73
 3238 0554 7C       		.sleb128 -4
 3239 0555 9F       		.byte	0x9f
 3240 0556 38000000 		.4byte	.LVL110
 3241 055a 44000000 		.4byte	.LVL111
 3242 055e 0600     		.2byte	0x6
 3243 0560 F3       		.byte	0xf3
 3244 0561 01       		.uleb128 0x1
 3245 0562 50       		.byte	0x50
 3246 0563 35       		.byte	0x35
 3247 0564 25       		.byte	0x25
 3248 0565 9F       		.byte	0x9f
 3249 0566 44000000 		.4byte	.LVL111
 3250 056a 46000000 		.4byte	.LVL112
 3251 056e 0100     		.2byte	0x1
 3252 0570 53       		.byte	0x53
 3253 0571 46000000 		.4byte	.LVL112
 3254 0575 48000000 		.4byte	.LVL113
 3255 0579 0300     		.2byte	0x3
 3256 057b 73       		.byte	0x73
 3257 057c 7C       		.sleb128 -4
 3258 057d 9F       		.byte	0x9f
 3259 057e 48000000 		.4byte	.LVL113
 3260 0582 58000000 		.4byte	.LFE4
 3261 0586 0600     		.2byte	0x6
 3262 0588 F3       		.byte	0xf3
 3263 0589 01       		.uleb128 0x1
 3264 058a 50       		.byte	0x50
 3265 058b 35       		.byte	0x35
 3266 058c 25       		.byte	0x25
 3267 058d 9F       		.byte	0x9f
 3268 058e 00000000 		.4byte	0
 3269 0592 00000000 		.4byte	0
 3270              	.LLST37:
 3271 0596 30000000 		.4byte	.LVL108
 3272 059a 50000000 		.4byte	.LVL114
 3273 059e 0100     		.2byte	0x1
 3274 05a0 52       		.byte	0x52
 3275 05a1 50000000 		.4byte	.LVL114
 3276 05a5 52000000 		.4byte	.LVL115
 3277 05a9 0500     		.2byte	0x5
 3278 05ab 31       		.byte	0x31
 3279 05ac 74       		.byte	0x74
 3280 05ad 00       		.sleb128 0
 3281 05ae 24       		.byte	0x24
ARM GAS  C:\Users\doita\AppData\Local\Temp\cc44fZpJ.s 			page 86


 3282 05af 9F       		.byte	0x9f
 3283 05b0 52000000 		.4byte	.LVL115
 3284 05b4 58000000 		.4byte	.LFE4
 3285 05b8 0800     		.2byte	0x8
 3286 05ba 31       		.byte	0x31
 3287 05bb F3       		.byte	0xf3
 3288 05bc 01       		.uleb128 0x1
 3289 05bd 50       		.byte	0x50
 3290 05be 4F       		.byte	0x4f
 3291 05bf 1A       		.byte	0x1a
 3292 05c0 24       		.byte	0x24
 3293 05c1 9F       		.byte	0x9f
 3294 05c2 00000000 		.4byte	0
 3295 05c6 00000000 		.4byte	0
 3296              	.LLST38:
 3297 05ca 06000000 		.4byte	.LVL98
 3298 05ce 15000000 		.4byte	.LVL101-1
 3299 05d2 0100     		.2byte	0x1
 3300 05d4 52       		.byte	0x52
 3301 05d5 1A000000 		.4byte	.LVL103
 3302 05d9 1F000000 		.4byte	.LVL105-1
 3303 05dd 0100     		.2byte	0x1
 3304 05df 52       		.byte	0x52
 3305 05e0 00000000 		.4byte	0
 3306 05e4 00000000 		.4byte	0
 3307              		.section	.debug_aranges,"",%progbits
 3308 0000 4C000000 		.4byte	0x4c
 3309 0004 0200     		.2byte	0x2
 3310 0006 00000000 		.4byte	.Ldebug_info0
 3311 000a 04       		.byte	0x4
 3312 000b 00       		.byte	0
 3313 000c 0000     		.2byte	0
 3314 000e 0000     		.2byte	0
 3315 0010 00000000 		.4byte	.LFB1
 3316 0014 58000000 		.4byte	.LFE1-.LFB1
 3317 0018 00000000 		.4byte	.LFB5
 3318 001c 32000000 		.4byte	.LFE5-.LFB5
 3319 0020 00000000 		.4byte	.LFB6
 3320 0024 16000000 		.4byte	.LFE6-.LFB6
 3321 0028 00000000 		.4byte	.LFB2
 3322 002c 5C000000 		.4byte	.LFE2-.LFB2
 3323 0030 00000000 		.4byte	.LFB3
 3324 0034 52000000 		.4byte	.LFE3-.LFB3
 3325 0038 00000000 		.4byte	.LFB7
 3326 003c 64000000 		.4byte	.LFE7-.LFB7
 3327 0040 00000000 		.4byte	.LFB4
 3328 0044 58000000 		.4byte	.LFE4-.LFB4
 3329 0048 00000000 		.4byte	0
 3330 004c 00000000 		.4byte	0
 3331              		.section	.debug_ranges,"",%progbits
 3332              	.Ldebug_ranges0:
 3333 0000 00000000 		.4byte	.LFB1
 3334 0004 58000000 		.4byte	.LFE1
 3335 0008 00000000 		.4byte	.LFB5
 3336 000c 32000000 		.4byte	.LFE5
 3337 0010 00000000 		.4byte	.LFB6
 3338 0014 16000000 		.4byte	.LFE6
ARM GAS  C:\Users\doita\AppData\Local\Temp\cc44fZpJ.s 			page 87


 3339 0018 00000000 		.4byte	.LFB2
 3340 001c 5C000000 		.4byte	.LFE2
 3341 0020 00000000 		.4byte	.LFB3
 3342 0024 52000000 		.4byte	.LFE3
 3343 0028 00000000 		.4byte	.LFB7
 3344 002c 64000000 		.4byte	.LFE7
 3345 0030 00000000 		.4byte	.LFB4
 3346 0034 58000000 		.4byte	.LFE4
 3347 0038 00000000 		.4byte	0
 3348 003c 00000000 		.4byte	0
 3349              		.section	.debug_line,"",%progbits
 3350              	.Ldebug_line0:
 3351 0000 43030000 		.section	.debug_str,"MS",%progbits,1
 3351      0200D401 
 3351      00000201 
 3351      FB0E0D00 
 3351      01010101 
 3352              	.LASF119:
 3353 0000 7074724E 		.ascii	"ptrNoiseEnvelope\000"
 3353      6F697365 
 3353      456E7665 
 3353      6C6F7065 
 3353      00
 3354              	.LASF123:
 3355 0011 496E7075 		.ascii	"Input_Capsense_DpUpdateDifferences\000"
 3355      745F4361 
 3355      7073656E 
 3355      73655F44 
 3355      70557064 
 3356              	.LASF104:
 3357 0034 496E7075 		.ascii	"Input_Capsense_FLASH_WD_STRUCT\000"
 3357      745F4361 
 3357      7073656E 
 3357      73655F46 
 3357      4C415348 
 3358              	.LASF133:
 3359 0053 496E7075 		.ascii	"Input_Capsense_DpProcessButton\000"
 3359      745F4361 
 3359      7073656E 
 3359      73655F44 
 3359      7050726F 
 3360              	.LASF20:
 3361 0072 496E7075 		.ascii	"Input_Capsense_LOW_BSLN_RST_TYPE\000"
 3361      745F4361 
 3361      7073656E 
 3361      73655F4C 
 3361      4F575F42 
 3362              	.LASF135:
 3363 0093 736E7343 		.ascii	"snsCnt\000"
 3363      6E7400
 3364              	.LASF93:
 3365 009a 496E7075 		.ascii	"Input_Capsense_RAM_STRUCT\000"
 3365      745F4361 
 3365      7073656E 
 3365      73655F52 
 3365      414D5F53 
 3366              	.LASF113:
ARM GAS  C:\Users\doita\AppData\Local\Temp\cc44fZpJ.s 			page 88


 3367 00b4 77646774 		.ascii	"wdgtId\000"
 3367      496400
 3368              	.LASF53:
 3369 00bb 73773130 		.ascii	"sw100\000"
 3369      3000
 3370              	.LASF54:
 3371 00c1 73773130 		.ascii	"sw101\000"
 3371      3100
 3372              	.LASF55:
 3373 00c7 73773130 		.ascii	"sw102\000"
 3373      3200
 3374              	.LASF56:
 3375 00cd 73773130 		.ascii	"sw103\000"
 3375      3300
 3376              	.LASF57:
 3377 00d3 73773130 		.ascii	"sw104\000"
 3377      3400
 3378              	.LASF58:
 3379 00d9 73773130 		.ascii	"sw105\000"
 3379      3500
 3380              	.LASF59:
 3381 00df 73773130 		.ascii	"sw106\000"
 3381      3600
 3382              	.LASF60:
 3383 00e5 73773130 		.ascii	"sw107\000"
 3383      3700
 3384              	.LASF61:
 3385 00eb 73773130 		.ascii	"sw108\000"
 3385      3800
 3386              	.LASF62:
 3387 00f1 73773130 		.ascii	"sw109\000"
 3387      3900
 3388              	.LASF122:
 3389 00f7 70747254 		.ascii	"ptrThresholds\000"
 3389      68726573 
 3389      686F6C64 
 3389      7300
 3390              	.LASF8:
 3391 0105 756E7369 		.ascii	"unsigned int\000"
 3391      676E6564 
 3391      20696E74 
 3391      00
 3392              	.LASF78:
 3393 0112 7363616E 		.ascii	"scanCounter\000"
 3393      436F756E 
 3393      74657200 
 3394              	.LASF72:
 3395 011e 496E7075 		.ascii	"Input_Capsense_RAM_SNS_STRUCT\000"
 3395      745F4361 
 3395      7073656E 
 3395      73655F52 
 3395      414D5F53 
 3396              	.LASF76:
 3397 013c 6877436C 		.ascii	"hwClock\000"
 3397      6F636B00 
 3398              	.LASF91:
 3399 0144 7363616E 		.ascii	"scanCsdISC\000"
ARM GAS  C:\Users\doita\AppData\Local\Temp\cc44fZpJ.s 			page 89


 3399      43736449 
 3399      534300
 3400              	.LASF36:
 3401 014f 496E7075 		.ascii	"Input_Capsense_WD_RADIAL_SLIDER_E\000"
 3401      745F4361 
 3401      7073656E 
 3401      73655F57 
 3401      445F5241 
 3402              	.LASF112:
 3403 0171 496E7075 		.ascii	"Input_Capsense_PTR_FILTER_VARIANT\000"
 3403      745F4361 
 3403      7073656E 
 3403      73655F50 
 3403      54525F46 
 3404              	.LASF151:
 3405 0193 43794861 		.ascii	"CyHalt\000"
 3405      6C7400
 3406              	.LASF52:
 3407 019a 496E7075 		.ascii	"Input_Capsense_RAM_WD_BUTTON_STRUCT\000"
 3407      745F4361 
 3407      7073656E 
 3407      73655F52 
 3407      414D5F57 
 3408              	.LASF63:
 3409 01be 73773131 		.ascii	"sw110\000"
 3409      3000
 3410              	.LASF64:
 3411 01c4 73773131 		.ascii	"sw111\000"
 3411      3100
 3412              	.LASF65:
 3413 01ca 73773131 		.ascii	"sw112\000"
 3413      3200
 3414              	.LASF125:
 3415 01d0 64696666 		.ascii	"diffValue\000"
 3415      56616C75 
 3415      6500
 3416              	.LASF132:
 3417 01da 6D6F6465 		.ascii	"mode\000"
 3417      00
 3418              	.LASF124:
 3419 01df 63757253 		.ascii	"curSnsPtr\000"
 3419      6E735074 
 3419      7200
 3420              	.LASF148:
 3421 01e9 536D6172 		.ascii	"SmartSense_UpdateThresholds\000"
 3421      7453656E 
 3421      73655F55 
 3421      70646174 
 3421      65546872 
 3422              	.LASF128:
 3423 0205 70747253 		.ascii	"ptrSnsTmp\000"
 3423      6E73546D 
 3423      7000
 3424              	.LASF46:
 3425 020f 69646163 		.ascii	"idacGainIndex\000"
 3425      4761696E 
 3425      496E6465 
ARM GAS  C:\Users\doita\AppData\Local\Temp\cc44fZpJ.s 			page 90


 3425      7800
 3426              	.LASF137:
 3427 021d 6E657753 		.ascii	"newStatus\000"
 3427      74617475 
 3427      7300
 3428              	.LASF13:
 3429 0227 666C6F61 		.ascii	"float\000"
 3429      7400
 3430              	.LASF152:
 3431 022d 474E5520 		.ascii	"GNU C11 5.4.1 20160609 (release) [ARM/embedded-5-br"
 3431      43313120 
 3431      352E342E 
 3431      31203230 
 3431      31363036 
 3432 0260 616E6368 		.ascii	"anch revision 237715] -mcpu=cortex-m0plus -mthumb -"
 3432      20726576 
 3432      6973696F 
 3432      6E203233 
 3432      37373135 
 3433 0293 67202D4F 		.ascii	"g -Og -ffunction-sections -ffat-lto-objects\000"
 3433      67202D66 
 3433      66756E63 
 3433      74696F6E 
 3433      2D736563 
 3434              	.LASF12:
 3435 02bf 696E7433 		.ascii	"int32\000"
 3435      3200
 3436              	.LASF86:
 3437 02c5 736E734C 		.ascii	"snsList\000"
 3437      69737400 
 3438              	.LASF126:
 3439 02cd 72657375 		.ascii	"result\000"
 3439      6C7400
 3440              	.LASF7:
 3441 02d4 6C6F6E67 		.ascii	"long long unsigned int\000"
 3441      206C6F6E 
 3441      6720756E 
 3441      7369676E 
 3441      65642069 
 3442              	.LASF40:
 3443 02eb 496E7075 		.ascii	"Input_Capsense_WD_ENCODERDIAL_E\000"
 3443      745F4361 
 3443      7073656E 
 3443      73655F57 
 3443      445F454E 
 3444              	.LASF111:
 3445 030b 70747252 		.ascii	"ptrRegular\000"
 3445      6567756C 
 3445      617200
 3446              	.LASF88:
 3447 0316 736E7254 		.ascii	"snrTestSensorId\000"
 3447      65737453 
 3447      656E736F 
 3447      72496400 
 3448              	.LASF145:
 3449 0326 496E7075 		.ascii	"Input_Capsense_dsRam\000"
 3449      745F4361 
ARM GAS  C:\Users\doita\AppData\Local\Temp\cc44fZpJ.s 			page 91


 3449      7073656E 
 3449      73655F64 
 3449      7352616D 
 3450              	.LASF103:
 3451 033b 70747232 		.ascii	"ptr2NoiseEnvlp\000"
 3451      4E6F6973 
 3451      65456E76 
 3451      6C7000
 3452              	.LASF101:
 3453 034a 77646774 		.ascii	"wdgtType\000"
 3453      54797065 
 3453      00
 3454              	.LASF51:
 3455 0353 496E7075 		.ascii	"Input_Capsense_RAM_WD_BASE_STRUCT\000"
 3455      745F4361 
 3455      7073656E 
 3455      73655F52 
 3455      414D5F57 
 3456              	.LASF109:
 3457 0375 72656775 		.ascii	"regularChannel\000"
 3457      6C617243 
 3457      68616E6E 
 3457      656C00
 3458              	.LASF84:
 3459 0384 6D6F6443 		.ascii	"modCsdClk\000"
 3459      7364436C 
 3459      6B00
 3460              	.LASF35:
 3461 038e 496E7075 		.ascii	"Input_Capsense_WD_LINEAR_SLIDER_E\000"
 3461      745F4361 
 3461      7073656E 
 3461      73655F57 
 3461      445F4C49 
 3462              	.LASF16:
 3463 03b0 73697A65 		.ascii	"size_t\000"
 3463      5F7400
 3464              	.LASF50:
 3465 03b7 73696750 		.ascii	"sigPFC\000"
 3465      464300
 3466              	.LASF32:
 3467 03be 68797374 		.ascii	"hysteresis\000"
 3467      65726573 
 3467      697300
 3468              	.LASF44:
 3469 03c9 6C6F7742 		.ascii	"lowBslnRst\000"
 3469      736C6E52 
 3469      737400
 3470              	.LASF100:
 3471 03d4 746F7461 		.ascii	"totalNumSns\000"
 3471      6C4E756D 
 3471      536E7300 
 3472              	.LASF28:
 3473 03e0 534D4152 		.ascii	"SMARTSENSE_CSD_NOISE_ENVELOPE_STRUCT\000"
 3473      5453454E 
 3473      53455F43 
 3473      53445F4E 
 3473      4F495345 
ARM GAS  C:\Users\doita\AppData\Local\Temp\cc44fZpJ.s 			page 92


 3474              	.LASF30:
 3475 0405 6E6F6973 		.ascii	"noiseTh\000"
 3475      65546800 
 3476              	.LASF15:
 3477 040d 63686172 		.ascii	"char\000"
 3477      00
 3478              	.LASF140:
 3479 0412 496E7075 		.ascii	"Input_Capsense_DpProcessCsdWidgetStatus\000"
 3479      745F4361 
 3479      7073656E 
 3479      73655F44 
 3479      7050726F 
 3480              	.LASF106:
 3481 043a 496E7075 		.ascii	"Input_Capsense_FLASH_STRUCT\000"
 3481      745F4361 
 3481      7073656E 
 3481      73655F46 
 3481      4C415348 
 3482              	.LASF149:
 3483 0456 536D6172 		.ascii	"SmartSense_RunNoiseEnvelope\000"
 3483      7453656E 
 3483      73655F52 
 3483      756E4E6F 
 3483      69736545 
 3484              	.LASF10:
 3485 0472 75696E74 		.ascii	"uint16\000"
 3485      313600
 3486              	.LASF42:
 3487 0479 7265736F 		.ascii	"resolution\000"
 3487      6C757469 
 3487      6F6E00
 3488              	.LASF79:
 3489 0484 73746174 		.ascii	"status\000"
 3489      757300
 3490              	.LASF71:
 3491 048b 69646163 		.ascii	"idacComp\000"
 3491      436F6D70 
 3491      00
 3492              	.LASF6:
 3493 0494 6C6F6E67 		.ascii	"long long int\000"
 3493      206C6F6E 
 3493      6720696E 
 3493      7400
 3494              	.LASF102:
 3495 04a2 6E756D43 		.ascii	"numCols\000"
 3495      6F6C7300 
 3496              	.LASF43:
 3497 04aa 6F6E4465 		.ascii	"onDebounce\000"
 3497      626F756E 
 3497      636500
 3498              	.LASF120:
 3499 04b5 73746172 		.ascii	"startFlag\000"
 3499      74466C61 
 3499      6700
 3500              	.LASF85:
 3501 04bf 77646774 		.ascii	"wdgtList\000"
 3501      4C697374 
ARM GAS  C:\Users\doita\AppData\Local\Temp\cc44fZpJ.s 			page 93


 3501      00
 3502              	.LASF90:
 3503 04c8 736E7254 		.ascii	"snrTestRawCount\000"
 3503      65737452 
 3503      6177436F 
 3503      756E7400 
 3504              	.LASF147:
 3505 04d8 6D656D73 		.ascii	"memset\000"
 3505      657400
 3506              	.LASF31:
 3507 04df 6E4E6F69 		.ascii	"nNoiseTh\000"
 3507      73655468 
 3507      00
 3508              	.LASF41:
 3509 04e8 496E7075 		.ascii	"Input_Capsense_WD_TYPE_ENUM\000"
 3509      745F4361 
 3509      7073656E 
 3509      73655F57 
 3509      445F5459 
 3510              	.LASF83:
 3511 0504 63736430 		.ascii	"csd0Config\000"
 3511      436F6E66 
 3511      696700
 3512              	.LASF142:
 3513 050f 73656E73 		.ascii	"sensorStatus\000"
 3513      6F725374 
 3513      61747573 
 3513      00
 3514              	.LASF11:
 3515 051c 75696E74 		.ascii	"uint32\000"
 3515      333200
 3516              	.LASF138:
 3517 0523 746F7563 		.ascii	"touchTh\000"
 3517      68546800 
 3518              	.LASF97:
 3519 052b 70747232 		.ascii	"ptr2FltrHistory\000"
 3519      466C7472 
 3519      48697374 
 3519      6F727900 
 3520              	.LASF143:
 3521 053b 77645374 		.ascii	"wdStatusIndex\000"
 3521      61747573 
 3521      496E6465 
 3521      7800
 3522              	.LASF129:
 3523 0549 496E7075 		.ascii	"Input_Capsense_DpProcessCsdWidgetRawCounts\000"
 3523      745F4361 
 3523      7073656E 
 3523      73655F44 
 3523      7050726F 
 3524              	.LASF110:
 3525 0574 496E7075 		.ascii	"Input_Capsense_REGULAR_FLTR_STRUCT\000"
 3525      745F4361 
 3525      7073656E 
 3525      73655F52 
 3525      4547554C 
 3526              	.LASF154:
ARM GAS  C:\Users\doita\AppData\Local\Temp\cc44fZpJ.s 			page 94


 3527 0597 433A5C55 		.ascii	"C:\\Users\\doita\\OneDrive\\Documents\\PSoC Creator"
 3527      73657273 
 3527      5C646F69 
 3527      74615C4F 
 3527      6E654472 
 3528 05c5 5C474541 		.ascii	"\\GEA-Hacking\\laundry-captouch-demo.cydsn\000"
 3528      2D486163 
 3528      6B696E67 
 3528      5C6C6175 
 3528      6E647279 
 3529              	.LASF108:
 3530 05ee 496E7075 		.ascii	"Input_Capsense_REGULAR_FLTR_CHANNEL_STRUCT\000"
 3530      745F4361 
 3530      7073656E 
 3530      73655F52 
 3530      4547554C 
 3531              	.LASF17:
 3532 0619 6C6F6E67 		.ascii	"long double\000"
 3532      20646F75 
 3532      626C6500 
 3533              	.LASF19:
 3534 0625 496E7075 		.ascii	"Input_Capsense_THRESHOLD_TYPE\000"
 3534      745F4361 
 3534      7073656E 
 3534      73655F54 
 3534      48524553 
 3535              	.LASF115:
 3536 0643 70747252 		.ascii	"ptrRamWdgt\000"
 3536      616D5764 
 3536      677400
 3537              	.LASF136:
 3538 064e 736E734D 		.ascii	"snsMask\000"
 3538      61736B00 
 3539              	.LASF89:
 3540 0656 736E7254 		.ascii	"snrTestScanCounter\000"
 3540      65737453 
 3540      63616E43 
 3540      6F756E74 
 3540      657200
 3541              	.LASF74:
 3542 0669 636F6E66 		.ascii	"configId\000"
 3542      69674964 
 3542      00
 3543              	.LASF96:
 3544 0672 70747232 		.ascii	"ptr2SnsRam\000"
 3544      536E7352 
 3544      616D00
 3545              	.LASF131:
 3546 067d 666C7472 		.ascii	"fltrHistV\000"
 3546      48697374 
 3546      5600
 3547              	.LASF82:
 3548 0687 736E7353 		.ascii	"snsStatus\000"
 3548      74617475 
 3548      7300
 3549              	.LASF48:
 3550 0691 736E7343 		.ascii	"snsClkSource\000"
ARM GAS  C:\Users\doita\AppData\Local\Temp\cc44fZpJ.s 			page 95


 3550      6C6B536F 
 3550      75726365 
 3550      00
 3551              	.LASF38:
 3552 069e 496E7075 		.ascii	"Input_Capsense_WD_TOUCHPAD_E\000"
 3552      745F4361 
 3552      7073656E 
 3552      73655F57 
 3552      445F544F 
 3553              	.LASF2:
 3554 06bb 73686F72 		.ascii	"short int\000"
 3554      7420696E 
 3554      7400
 3555              	.LASF130:
 3556 06c5 496E7075 		.ascii	"Input_Capsense_DpProcessCsdSensorRawCountsExt\000"
 3556      745F4361 
 3556      7073656E 
 3556      73655F44 
 3556      7050726F 
 3557              	.LASF4:
 3558 06f3 6C6F6E67 		.ascii	"long int\000"
 3558      20696E74 
 3558      00
 3559              	.LASF87:
 3560 06fc 736E7254 		.ascii	"snrTestWidgetId\000"
 3560      65737457 
 3560      69646765 
 3560      74496400 
 3561              	.LASF33:
 3562 070c 534D4152 		.ascii	"SMARTSENSE_UPDATE_THRESHOLDS_STRUCT\000"
 3562      5453454E 
 3562      53455F55 
 3562      50444154 
 3562      455F5448 
 3563              	.LASF80:
 3564 0730 77646774 		.ascii	"wdgtEnable\000"
 3564      456E6162 
 3564      6C6500
 3565              	.LASF69:
 3566 073b 64696666 		.ascii	"diff\000"
 3566      00
 3567              	.LASF77:
 3568 0740 74756E65 		.ascii	"tunerCmd\000"
 3568      72436D64 
 3568      00
 3569              	.LASF127:
 3570 0749 736E7349 		.ascii	"snsId\000"
 3570      6400
 3571              	.LASF121:
 3572 074f 74687265 		.ascii	"thresholds\000"
 3572      73686F6C 
 3572      647300
 3573              	.LASF139:
 3574 075a 70747244 		.ascii	"ptrDebounceCnt\000"
 3574      65626F75 
 3574      6E636543 
 3574      6E7400
ARM GAS  C:\Users\doita\AppData\Local\Temp\cc44fZpJ.s 			page 96


 3575              	.LASF49:
 3576 0769 66696E67 		.ascii	"fingerCap\000"
 3576      65724361 
 3576      7000
 3577              	.LASF81:
 3578 0773 77646774 		.ascii	"wdgtStatus\000"
 3578      53746174 
 3578      757300
 3579              	.LASF118:
 3580 077e 496E7075 		.ascii	"Input_Capsense_DpUpdateThresholds\000"
 3580      745F4361 
 3580      7073656E 
 3580      73655F44 
 3580      70557064 
 3581              	.LASF39:
 3582 07a0 496E7075 		.ascii	"Input_Capsense_WD_PROXIMITY_E\000"
 3582      745F4361 
 3582      7073656E 
 3582      73655F57 
 3582      445F5052 
 3583              	.LASF150:
 3584 07be 496E7075 		.ascii	"Input_Capsense_FtUpdateBaseline\000"
 3584      745F4361 
 3584      7073656E 
 3584      73655F46 
 3584      74557064 
 3585              	.LASF18:
 3586 07de 73697A65 		.ascii	"sizetype\000"
 3586      74797065 
 3586      00
 3587              	.LASF5:
 3588 07e7 6C6F6E67 		.ascii	"long unsigned int\000"
 3588      20756E73 
 3588      69676E65 
 3588      6420696E 
 3588      7400
 3589              	.LASF45:
 3590 07f9 69646163 		.ascii	"idacMod\000"
 3590      4D6F6400 
 3591              	.LASF98:
 3592 0801 70747232 		.ascii	"ptr2DebounceArr\000"
 3592      4465626F 
 3592      756E6365 
 3592      41727200 
 3593              	.LASF153:
 3594 0811 47656E65 		.ascii	"Generated_Source\\PSoC4\\Input_Capsense_Processing."
 3594      72617465 
 3594      645F536F 
 3594      75726365 
 3594      5C50536F 
 3595 0842 6300     		.ascii	"c\000"
 3596              	.LASF29:
 3597 0844 66696E67 		.ascii	"fingerTh\000"
 3597      65725468 
 3597      00
 3598              	.LASF68:
 3599 084d 62736C6E 		.ascii	"bslnExt\000"
ARM GAS  C:\Users\doita\AppData\Local\Temp\cc44fZpJ.s 			page 97


 3599      45787400 
 3600              	.LASF1:
 3601 0855 756E7369 		.ascii	"unsigned char\000"
 3601      676E6564 
 3601      20636861 
 3601      7200
 3602              	.LASF144:
 3603 0863 77645374 		.ascii	"wdStatusMask\000"
 3603      61747573 
 3603      4D61736B 
 3603      00
 3604              	.LASF116:
 3605 0870 70747246 		.ascii	"ptrFlashWdgt\000"
 3605      6C617368 
 3605      57646774 
 3605      00
 3606              	.LASF99:
 3607 087d 73746174 		.ascii	"staticConfig\000"
 3607      6963436F 
 3607      6E666967 
 3607      00
 3608              	.LASF92:
 3609 088a 7363616E 		.ascii	"scanCurrentISC\000"
 3609      43757272 
 3609      656E7449 
 3609      534300
 3610              	.LASF95:
 3611 0899 70747232 		.ascii	"ptr2WdgtRam\000"
 3611      57646774 
 3611      52616D00 
 3612              	.LASF146:
 3613 08a5 496E7075 		.ascii	"Input_Capsense_dsFlash\000"
 3613      745F4361 
 3613      7073656E 
 3613      73655F64 
 3613      73466C61 
 3614              	.LASF134:
 3615 08bc 63757272 		.ascii	"currStatus\000"
 3615      53746174 
 3615      757300
 3616              	.LASF34:
 3617 08c7 496E7075 		.ascii	"Input_Capsense_WD_BUTTON_E\000"
 3617      745F4361 
 3617      7073656E 
 3617      73655F57 
 3617      445F4255 
 3618              	.LASF47:
 3619 08e2 736E7343 		.ascii	"snsClk\000"
 3619      6C6B00
 3620              	.LASF117:
 3621 08e9 496E7075 		.ascii	"Input_Capsense_DpInitialize\000"
 3621      745F4361 
 3621      7073656E 
 3621      73655F44 
 3621      70496E69 
 3622              	.LASF66:
 3623 0905 496E7075 		.ascii	"Input_Capsense_RAM_WD_LIST_STRUCT\000"
ARM GAS  C:\Users\doita\AppData\Local\Temp\cc44fZpJ.s 			page 98


 3623      745F4361 
 3623      7073656E 
 3623      73655F52 
 3623      414D5F57 
 3624              	.LASF0:
 3625 0927 7369676E 		.ascii	"signed char\000"
 3625      65642063 
 3625      68617200 
 3626              	.LASF67:
 3627 0933 62736C6E 		.ascii	"bsln\000"
 3627      00
 3628              	.LASF3:
 3629 0938 73686F72 		.ascii	"short unsigned int\000"
 3629      7420756E 
 3629      7369676E 
 3629      65642069 
 3629      6E7400
 3630              	.LASF73:
 3631 094b 496E7075 		.ascii	"Input_Capsense_RAM_SNS_LIST_STRUCT\000"
 3631      745F4361 
 3631      7073656E 
 3631      73655F52 
 3631      414D5F53 
 3632              	.LASF94:
 3633 096e 70747232 		.ascii	"ptr2SnsFlash\000"
 3633      536E7346 
 3633      6C617368 
 3633      00
 3634              	.LASF107:
 3635 097b 6E6F7455 		.ascii	"notUsed\000"
 3635      73656400 
 3636              	.LASF9:
 3637 0983 75696E74 		.ascii	"uint8\000"
 3637      3800
 3638              	.LASF14:
 3639 0989 646F7562 		.ascii	"double\000"
 3639      6C6500
 3640              	.LASF70:
 3641 0990 6E656742 		.ascii	"negBslnRstCnt\000"
 3641      736C6E52 
 3641      7374436E 
 3641      7400
 3642              	.LASF114:
 3643 099e 77696467 		.ascii	"widgetType\000"
 3643      65745479 
 3643      706500
 3644              	.LASF21:
 3645 09a9 70617261 		.ascii	"param0\000"
 3645      6D3000
 3646              	.LASF22:
 3647 09b0 70617261 		.ascii	"param1\000"
 3647      6D3100
 3648              	.LASF23:
 3649 09b7 70617261 		.ascii	"param2\000"
 3649      6D3200
 3650              	.LASF24:
 3651 09be 70617261 		.ascii	"param3\000"
ARM GAS  C:\Users\doita\AppData\Local\Temp\cc44fZpJ.s 			page 99


 3651      6D3300
 3652              	.LASF25:
 3653 09c5 70617261 		.ascii	"param4\000"
 3653      6D3400
 3654              	.LASF26:
 3655 09cc 70617261 		.ascii	"param5\000"
 3655      6D3500
 3656              	.LASF27:
 3657 09d3 70617261 		.ascii	"param6\000"
 3657      6D3600
 3658              	.LASF75:
 3659 09da 64657669 		.ascii	"deviceId\000"
 3659      63654964 
 3659      00
 3660              	.LASF141:
 3661 09e3 77696467 		.ascii	"widgetId\000"
 3661      65744964 
 3661      00
 3662              	.LASF37:
 3663 09ec 496E7075 		.ascii	"Input_Capsense_WD_MATRIX_BUTTON_E\000"
 3663      745F4361 
 3663      7073656E 
 3663      73655F57 
 3663      445F4D41 
 3664              	.LASF105:
 3665 0a0e 77646774 		.ascii	"wdgtArray\000"
 3665      41727261 
 3665      7900
 3666              		.ident	"GCC: (GNU Tools for ARM Embedded Processors) 5.4.1 20160609 (release) [ARM/embedded-5-bran
