ARM GAS  C:\Users\doita\AppData\Local\Temp\ccsDJsU6.s 			page 1


   1              		.syntax unified
   2              		.cpu cortex-m0plus
   3              		.fpu softvfp
   4              		.eabi_attribute 20, 1
   5              		.eabi_attribute 21, 1
   6              		.eabi_attribute 23, 3
   7              		.eabi_attribute 24, 1
   8              		.eabi_attribute 25, 1
   9              		.eabi_attribute 26, 1
  10              		.eabi_attribute 30, 1
  11              		.eabi_attribute 34, 0
  12              		.eabi_attribute 18, 4
  13              		.thumb
  14              		.syntax unified
  15              		.file	"Input_Capsense_Structure.c"
  16              		.text
  17              	.Ltext0:
  18              		.cfi_sections	.debug_frame
  19              		.section	.text.DsParseParamId,"ax",%progbits
  20              		.align	2
  21              		.code	16
  22              		.thumb_func
  23              		.type	DsParseParamId, %function
  24              	DsParseParamId:
  25              	.LFB2:
  26              		.file 1 "Generated_Source\\PSoC4\\Input_Capsense_Structure.c"
   1:Generated_Source\PSoC4/Input_Capsense_Structure.c **** /***************************************************************************//**
   2:Generated_Source\PSoC4/Input_Capsense_Structure.c **** * \file Input_Capsense_Structure.c
   3:Generated_Source\PSoC4/Input_Capsense_Structure.c **** * \version 7.0
   4:Generated_Source\PSoC4/Input_Capsense_Structure.c **** *
   5:Generated_Source\PSoC4/Input_Capsense_Structure.c **** * \brief
   6:Generated_Source\PSoC4/Input_Capsense_Structure.c **** *   This file defines the data structure global variables and provides implementation
   7:Generated_Source\PSoC4/Input_Capsense_Structure.c **** *   for the high-level and low-level APIs of the Data Structure module.
   8:Generated_Source\PSoC4/Input_Capsense_Structure.c **** *
   9:Generated_Source\PSoC4/Input_Capsense_Structure.c **** * \see Input_Capsense v7.0 Datasheet
  10:Generated_Source\PSoC4/Input_Capsense_Structure.c **** *
  11:Generated_Source\PSoC4/Input_Capsense_Structure.c **** *//*****************************************************************************
  12:Generated_Source\PSoC4/Input_Capsense_Structure.c **** * Copyright (2016-2019), Cypress Semiconductor Corporation.
  13:Generated_Source\PSoC4/Input_Capsense_Structure.c **** ********************************************************************************
  14:Generated_Source\PSoC4/Input_Capsense_Structure.c **** * This software is owned by Cypress Semiconductor Corporation (Cypress) and is
  15:Generated_Source\PSoC4/Input_Capsense_Structure.c **** * protected by and subject to worldwide patent protection (United States and
  16:Generated_Source\PSoC4/Input_Capsense_Structure.c **** * foreign), United States copyright laws and international treaty provisions.
  17:Generated_Source\PSoC4/Input_Capsense_Structure.c **** * Cypress hereby grants to licensee a personal, non-exclusive, non-transferable
  18:Generated_Source\PSoC4/Input_Capsense_Structure.c **** * license to copy, use, modify, create derivative works of, and compile the
  19:Generated_Source\PSoC4/Input_Capsense_Structure.c **** * Cypress Source Code and derivative works for the sole purpose of creating
  20:Generated_Source\PSoC4/Input_Capsense_Structure.c **** * custom software in support of licensee product to be used only in conjunction
  21:Generated_Source\PSoC4/Input_Capsense_Structure.c **** * with a Cypress integrated circuit as specified in the applicable agreement.
  22:Generated_Source\PSoC4/Input_Capsense_Structure.c **** * Any reproduction, modification, translation, compilation, or representation of
  23:Generated_Source\PSoC4/Input_Capsense_Structure.c **** * this software except as specified above is prohibited without the express
  24:Generated_Source\PSoC4/Input_Capsense_Structure.c **** * written permission of Cypress.
  25:Generated_Source\PSoC4/Input_Capsense_Structure.c **** *
  26:Generated_Source\PSoC4/Input_Capsense_Structure.c **** * Disclaimer: CYPRESS MAKES NO WARRANTY OF ANY KIND, EXPRESS OR IMPLIED, WITH
  27:Generated_Source\PSoC4/Input_Capsense_Structure.c **** * REGARD TO THIS MATERIAL, INCLUDING, BUT NOT LIMITED TO, THE IMPLIED
  28:Generated_Source\PSoC4/Input_Capsense_Structure.c **** * WARRANTIES OF MERCHANTABILITY AND FITNESS FOR A PARTICULAR PURPOSE.
  29:Generated_Source\PSoC4/Input_Capsense_Structure.c **** * Cypress reserves the right to make changes without further notice to the
  30:Generated_Source\PSoC4/Input_Capsense_Structure.c **** * materials described herein. Cypress does not assume any liability arising out
  31:Generated_Source\PSoC4/Input_Capsense_Structure.c **** * of the application or use of any product or circuit described herein. Cypress
ARM GAS  C:\Users\doita\AppData\Local\Temp\ccsDJsU6.s 			page 2


  32:Generated_Source\PSoC4/Input_Capsense_Structure.c **** * does not authorize its products for use as critical components in life-support
  33:Generated_Source\PSoC4/Input_Capsense_Structure.c **** * systems where a malfunction or failure may reasonably be expected to result in
  34:Generated_Source\PSoC4/Input_Capsense_Structure.c **** * significant injury to the user. The inclusion of Cypress' product in a life-
  35:Generated_Source\PSoC4/Input_Capsense_Structure.c **** * support systems application implies that the manufacturer assumes all risk of
  36:Generated_Source\PSoC4/Input_Capsense_Structure.c **** * such use and in doing so indemnifies Cypress against all charges. Use may be
  37:Generated_Source\PSoC4/Input_Capsense_Structure.c **** * limited by and subject to the applicable Cypress software license agreement.
  38:Generated_Source\PSoC4/Input_Capsense_Structure.c **** *******************************************************************************/
  39:Generated_Source\PSoC4/Input_Capsense_Structure.c **** 
  40:Generated_Source\PSoC4/Input_Capsense_Structure.c **** #include <cytypes.h>
  41:Generated_Source\PSoC4/Input_Capsense_Structure.c **** #include "CyLib.h"
  42:Generated_Source\PSoC4/Input_Capsense_Structure.c **** #include "Input_Capsense_Structure.h"
  43:Generated_Source\PSoC4/Input_Capsense_Structure.c **** #include "Input_Capsense_Configuration.h"
  44:Generated_Source\PSoC4/Input_Capsense_Structure.c **** 
  45:Generated_Source\PSoC4/Input_Capsense_Structure.c **** #if (0u != Input_Capsense_ADC_EN)
  46:Generated_Source\PSoC4/Input_Capsense_Structure.c ****     #include "Input_Capsense_Adc.h"
  47:Generated_Source\PSoC4/Input_Capsense_Structure.c **** #endif /* (0u != Input_Capsense_ADC_EN) */
  48:Generated_Source\PSoC4/Input_Capsense_Structure.c **** 
  49:Generated_Source\PSoC4/Input_Capsense_Structure.c **** #if (Input_Capsense_ENABLE == Input_Capsense_SELF_TEST_EN)
  50:Generated_Source\PSoC4/Input_Capsense_Structure.c ****     #include "Input_Capsense_SelfTest.h"
  51:Generated_Source\PSoC4/Input_Capsense_Structure.c **** #endif
  52:Generated_Source\PSoC4/Input_Capsense_Structure.c **** 
  53:Generated_Source\PSoC4/Input_Capsense_Structure.c **** #if (Input_Capsense_ENABLE == Input_Capsense_CENTROID_5X5_CSD_EN)
  54:Generated_Source\PSoC4/Input_Capsense_Structure.c ****     #include "Input_Capsense_AdvancedCentroid_LL.h"
  55:Generated_Source\PSoC4/Input_Capsense_Structure.c **** #endif
  56:Generated_Source\PSoC4/Input_Capsense_Structure.c **** 
  57:Generated_Source\PSoC4/Input_Capsense_Structure.c **** #if (Input_Capsense_ENABLE == Input_Capsense_GES_GLOBAL_EN)
  58:Generated_Source\PSoC4/Input_Capsense_Structure.c ****     #include "Input_Capsense_Gesture.h"
  59:Generated_Source\PSoC4/Input_Capsense_Structure.c **** #endif /* (Input_Capsense_ENABLE == Input_Capsense_GES_GLOBAL_EN) */
  60:Generated_Source\PSoC4/Input_Capsense_Structure.c **** 
  61:Generated_Source\PSoC4/Input_Capsense_Structure.c **** /*******************************************************************************
  62:Generated_Source\PSoC4/Input_Capsense_Structure.c **** * Defines the RAM Data Structure variables and their init data in flash
  63:Generated_Source\PSoC4/Input_Capsense_Structure.c **** *******************************************************************************/
  64:Generated_Source\PSoC4/Input_Capsense_Structure.c **** /**
  65:Generated_Source\PSoC4/Input_Capsense_Structure.c **** * \cond SECTION_GLOBAL_VARIABLES
  66:Generated_Source\PSoC4/Input_Capsense_Structure.c **** * \addtogroup group_global_variables
  67:Generated_Source\PSoC4/Input_Capsense_Structure.c **** * \{
  68:Generated_Source\PSoC4/Input_Capsense_Structure.c **** */
  69:Generated_Source\PSoC4/Input_Capsense_Structure.c **** 
  70:Generated_Source\PSoC4/Input_Capsense_Structure.c **** /**
  71:Generated_Source\PSoC4/Input_Capsense_Structure.c **** * The variable that contains the Input_Capsense configuration, settings and
  72:Generated_Source\PSoC4/Input_Capsense_Structure.c **** * scanning results. Input_Capsense_dsRam represents RAM Data Structure.
  73:Generated_Source\PSoC4/Input_Capsense_Structure.c **** */
  74:Generated_Source\PSoC4/Input_Capsense_Structure.c **** Input_Capsense_RAM_STRUCT Input_Capsense_dsRam;
  75:Generated_Source\PSoC4/Input_Capsense_Structure.c **** /** \}
  76:Generated_Source\PSoC4/Input_Capsense_Structure.c **** * \endcond */
  77:Generated_Source\PSoC4/Input_Capsense_Structure.c **** 
  78:Generated_Source\PSoC4/Input_Capsense_Structure.c **** /*******************************************************************************
  79:Generated_Source\PSoC4/Input_Capsense_Structure.c **** * Declares Widget's De-bounce Counters
  80:Generated_Source\PSoC4/Input_Capsense_Structure.c **** *******************************************************************************/
  81:Generated_Source\PSoC4/Input_Capsense_Structure.c **** static uint8 Input_Capsense_debouncesw100[Input_Capsense_SW100_NUM_SENSORS];
  82:Generated_Source\PSoC4/Input_Capsense_Structure.c **** static uint8 Input_Capsense_debouncesw101[Input_Capsense_SW101_NUM_SENSORS];
  83:Generated_Source\PSoC4/Input_Capsense_Structure.c **** static uint8 Input_Capsense_debouncesw102[Input_Capsense_SW102_NUM_SENSORS];
  84:Generated_Source\PSoC4/Input_Capsense_Structure.c **** static uint8 Input_Capsense_debouncesw103[Input_Capsense_SW103_NUM_SENSORS];
  85:Generated_Source\PSoC4/Input_Capsense_Structure.c **** static uint8 Input_Capsense_debouncesw104[Input_Capsense_SW104_NUM_SENSORS];
  86:Generated_Source\PSoC4/Input_Capsense_Structure.c **** static uint8 Input_Capsense_debouncesw105[Input_Capsense_SW105_NUM_SENSORS];
  87:Generated_Source\PSoC4/Input_Capsense_Structure.c **** static uint8 Input_Capsense_debouncesw106[Input_Capsense_SW106_NUM_SENSORS];
  88:Generated_Source\PSoC4/Input_Capsense_Structure.c **** static uint8 Input_Capsense_debouncesw107[Input_Capsense_SW107_NUM_SENSORS];
ARM GAS  C:\Users\doita\AppData\Local\Temp\ccsDJsU6.s 			page 3


  89:Generated_Source\PSoC4/Input_Capsense_Structure.c **** static uint8 Input_Capsense_debouncesw108[Input_Capsense_SW108_NUM_SENSORS];
  90:Generated_Source\PSoC4/Input_Capsense_Structure.c **** static uint8 Input_Capsense_debouncesw109[Input_Capsense_SW109_NUM_SENSORS];
  91:Generated_Source\PSoC4/Input_Capsense_Structure.c **** static uint8 Input_Capsense_debouncesw110[Input_Capsense_SW110_NUM_SENSORS];
  92:Generated_Source\PSoC4/Input_Capsense_Structure.c **** static uint8 Input_Capsense_debouncesw111[Input_Capsense_SW111_NUM_SENSORS];
  93:Generated_Source\PSoC4/Input_Capsense_Structure.c **** static uint8 Input_Capsense_debouncesw112[Input_Capsense_SW112_NUM_SENSORS];
  94:Generated_Source\PSoC4/Input_Capsense_Structure.c **** 
  95:Generated_Source\PSoC4/Input_Capsense_Structure.c **** 
  96:Generated_Source\PSoC4/Input_Capsense_Structure.c **** /***************************************************************************//**
  97:Generated_Source\PSoC4/Input_Capsense_Structure.c **** * Declares Noise Envelope data structures
  98:Generated_Source\PSoC4/Input_Capsense_Structure.c **** *******************************************************************************/
  99:Generated_Source\PSoC4/Input_Capsense_Structure.c **** static SMARTSENSE_CSD_NOISE_ENVELOPE_STRUCT Input_Capsense_noiseEnvlpsw100[Input_Capsense_SW100_NUM
 100:Generated_Source\PSoC4/Input_Capsense_Structure.c **** static SMARTSENSE_CSD_NOISE_ENVELOPE_STRUCT Input_Capsense_noiseEnvlpsw101[Input_Capsense_SW101_NUM
 101:Generated_Source\PSoC4/Input_Capsense_Structure.c **** static SMARTSENSE_CSD_NOISE_ENVELOPE_STRUCT Input_Capsense_noiseEnvlpsw102[Input_Capsense_SW102_NUM
 102:Generated_Source\PSoC4/Input_Capsense_Structure.c **** static SMARTSENSE_CSD_NOISE_ENVELOPE_STRUCT Input_Capsense_noiseEnvlpsw103[Input_Capsense_SW103_NUM
 103:Generated_Source\PSoC4/Input_Capsense_Structure.c **** static SMARTSENSE_CSD_NOISE_ENVELOPE_STRUCT Input_Capsense_noiseEnvlpsw104[Input_Capsense_SW104_NUM
 104:Generated_Source\PSoC4/Input_Capsense_Structure.c **** static SMARTSENSE_CSD_NOISE_ENVELOPE_STRUCT Input_Capsense_noiseEnvlpsw105[Input_Capsense_SW105_NUM
 105:Generated_Source\PSoC4/Input_Capsense_Structure.c **** static SMARTSENSE_CSD_NOISE_ENVELOPE_STRUCT Input_Capsense_noiseEnvlpsw106[Input_Capsense_SW106_NUM
 106:Generated_Source\PSoC4/Input_Capsense_Structure.c **** static SMARTSENSE_CSD_NOISE_ENVELOPE_STRUCT Input_Capsense_noiseEnvlpsw107[Input_Capsense_SW107_NUM
 107:Generated_Source\PSoC4/Input_Capsense_Structure.c **** static SMARTSENSE_CSD_NOISE_ENVELOPE_STRUCT Input_Capsense_noiseEnvlpsw108[Input_Capsense_SW108_NUM
 108:Generated_Source\PSoC4/Input_Capsense_Structure.c **** static SMARTSENSE_CSD_NOISE_ENVELOPE_STRUCT Input_Capsense_noiseEnvlpsw109[Input_Capsense_SW109_NUM
 109:Generated_Source\PSoC4/Input_Capsense_Structure.c **** static SMARTSENSE_CSD_NOISE_ENVELOPE_STRUCT Input_Capsense_noiseEnvlpsw110[Input_Capsense_SW110_NUM
 110:Generated_Source\PSoC4/Input_Capsense_Structure.c **** static SMARTSENSE_CSD_NOISE_ENVELOPE_STRUCT Input_Capsense_noiseEnvlpsw111[Input_Capsense_SW111_NUM
 111:Generated_Source\PSoC4/Input_Capsense_Structure.c **** static SMARTSENSE_CSD_NOISE_ENVELOPE_STRUCT Input_Capsense_noiseEnvlpsw112[Input_Capsense_SW112_NUM
 112:Generated_Source\PSoC4/Input_Capsense_Structure.c **** 
 113:Generated_Source\PSoC4/Input_Capsense_Structure.c **** /*******************************************************************************
 114:Generated_Source\PSoC4/Input_Capsense_Structure.c **** * Defines and initializes the Flash Data Structure
 115:Generated_Source\PSoC4/Input_Capsense_Structure.c **** *******************************************************************************/
 116:Generated_Source\PSoC4/Input_Capsense_Structure.c **** 
 117:Generated_Source\PSoC4/Input_Capsense_Structure.c **** 
 118:Generated_Source\PSoC4/Input_Capsense_Structure.c **** 
 119:Generated_Source\PSoC4/Input_Capsense_Structure.c **** /**
 120:Generated_Source\PSoC4/Input_Capsense_Structure.c **** * \cond SECTION_API_CONSTANTS
 121:Generated_Source\PSoC4/Input_Capsense_Structure.c **** * \addtogroup group_api_constants
 122:Generated_Source\PSoC4/Input_Capsense_Structure.c **** * \{
 123:Generated_Source\PSoC4/Input_Capsense_Structure.c **** */
 124:Generated_Source\PSoC4/Input_Capsense_Structure.c **** /**
 125:Generated_Source\PSoC4/Input_Capsense_Structure.c **** * Constant for the FLASH Data Structure
 126:Generated_Source\PSoC4/Input_Capsense_Structure.c **** */
 127:Generated_Source\PSoC4/Input_Capsense_Structure.c **** const Input_Capsense_FLASH_STRUCT Input_Capsense_dsFlash =
 128:Generated_Source\PSoC4/Input_Capsense_Structure.c **** {
 129:Generated_Source\PSoC4/Input_Capsense_Structure.c ****     /* Flash Widget Initialization Data */
 130:Generated_Source\PSoC4/Input_Capsense_Structure.c ****     {
 131:Generated_Source\PSoC4/Input_Capsense_Structure.c ****         { /* sw100 */
 132:Generated_Source\PSoC4/Input_Capsense_Structure.c ****             &Input_Capsense_ioList[0u],
 133:Generated_Source\PSoC4/Input_Capsense_Structure.c ****             (void *)&Input_Capsense_dsRam.wdgtList.sw100,
 134:Generated_Source\PSoC4/Input_Capsense_Structure.c ****             Input_Capsense_dsRam.snsList.sw100,
 135:Generated_Source\PSoC4/Input_Capsense_Structure.c ****             (void *)0u,
 136:Generated_Source\PSoC4/Input_Capsense_Structure.c ****             Input_Capsense_debouncesw100,
 137:Generated_Source\PSoC4/Input_Capsense_Structure.c ****             Input_Capsense_SW100_STATIC_CONFIG,
 138:Generated_Source\PSoC4/Input_Capsense_Structure.c ****             Input_Capsense_SW100_NUM_SENSORS,
 139:Generated_Source\PSoC4/Input_Capsense_Structure.c ****             (uint8)Input_Capsense_WD_BUTTON_E,
 140:Generated_Source\PSoC4/Input_Capsense_Structure.c ****             Input_Capsense_SW100_NUM_SENSORS,
 141:Generated_Source\PSoC4/Input_Capsense_Structure.c ****             Input_Capsense_noiseEnvlpsw100,
 142:Generated_Source\PSoC4/Input_Capsense_Structure.c ****         },
 143:Generated_Source\PSoC4/Input_Capsense_Structure.c ****         { /* sw101 */
 144:Generated_Source\PSoC4/Input_Capsense_Structure.c ****             &Input_Capsense_ioList[1u],
 145:Generated_Source\PSoC4/Input_Capsense_Structure.c ****             (void *)&Input_Capsense_dsRam.wdgtList.sw101,
ARM GAS  C:\Users\doita\AppData\Local\Temp\ccsDJsU6.s 			page 4


 146:Generated_Source\PSoC4/Input_Capsense_Structure.c ****             Input_Capsense_dsRam.snsList.sw101,
 147:Generated_Source\PSoC4/Input_Capsense_Structure.c ****             (void *)0u,
 148:Generated_Source\PSoC4/Input_Capsense_Structure.c ****             Input_Capsense_debouncesw101,
 149:Generated_Source\PSoC4/Input_Capsense_Structure.c ****             Input_Capsense_SW101_STATIC_CONFIG,
 150:Generated_Source\PSoC4/Input_Capsense_Structure.c ****             Input_Capsense_SW101_NUM_SENSORS,
 151:Generated_Source\PSoC4/Input_Capsense_Structure.c ****             (uint8)Input_Capsense_WD_BUTTON_E,
 152:Generated_Source\PSoC4/Input_Capsense_Structure.c ****             Input_Capsense_SW101_NUM_SENSORS,
 153:Generated_Source\PSoC4/Input_Capsense_Structure.c ****             Input_Capsense_noiseEnvlpsw101,
 154:Generated_Source\PSoC4/Input_Capsense_Structure.c ****         },
 155:Generated_Source\PSoC4/Input_Capsense_Structure.c ****         { /* sw102 */
 156:Generated_Source\PSoC4/Input_Capsense_Structure.c ****             &Input_Capsense_ioList[2u],
 157:Generated_Source\PSoC4/Input_Capsense_Structure.c ****             (void *)&Input_Capsense_dsRam.wdgtList.sw102,
 158:Generated_Source\PSoC4/Input_Capsense_Structure.c ****             Input_Capsense_dsRam.snsList.sw102,
 159:Generated_Source\PSoC4/Input_Capsense_Structure.c ****             (void *)0u,
 160:Generated_Source\PSoC4/Input_Capsense_Structure.c ****             Input_Capsense_debouncesw102,
 161:Generated_Source\PSoC4/Input_Capsense_Structure.c ****             Input_Capsense_SW102_STATIC_CONFIG,
 162:Generated_Source\PSoC4/Input_Capsense_Structure.c ****             Input_Capsense_SW102_NUM_SENSORS,
 163:Generated_Source\PSoC4/Input_Capsense_Structure.c ****             (uint8)Input_Capsense_WD_BUTTON_E,
 164:Generated_Source\PSoC4/Input_Capsense_Structure.c ****             Input_Capsense_SW102_NUM_SENSORS,
 165:Generated_Source\PSoC4/Input_Capsense_Structure.c ****             Input_Capsense_noiseEnvlpsw102,
 166:Generated_Source\PSoC4/Input_Capsense_Structure.c ****         },
 167:Generated_Source\PSoC4/Input_Capsense_Structure.c ****         { /* sw103 */
 168:Generated_Source\PSoC4/Input_Capsense_Structure.c ****             &Input_Capsense_ioList[3u],
 169:Generated_Source\PSoC4/Input_Capsense_Structure.c ****             (void *)&Input_Capsense_dsRam.wdgtList.sw103,
 170:Generated_Source\PSoC4/Input_Capsense_Structure.c ****             Input_Capsense_dsRam.snsList.sw103,
 171:Generated_Source\PSoC4/Input_Capsense_Structure.c ****             (void *)0u,
 172:Generated_Source\PSoC4/Input_Capsense_Structure.c ****             Input_Capsense_debouncesw103,
 173:Generated_Source\PSoC4/Input_Capsense_Structure.c ****             Input_Capsense_SW103_STATIC_CONFIG,
 174:Generated_Source\PSoC4/Input_Capsense_Structure.c ****             Input_Capsense_SW103_NUM_SENSORS,
 175:Generated_Source\PSoC4/Input_Capsense_Structure.c ****             (uint8)Input_Capsense_WD_BUTTON_E,
 176:Generated_Source\PSoC4/Input_Capsense_Structure.c ****             Input_Capsense_SW103_NUM_SENSORS,
 177:Generated_Source\PSoC4/Input_Capsense_Structure.c ****             Input_Capsense_noiseEnvlpsw103,
 178:Generated_Source\PSoC4/Input_Capsense_Structure.c ****         },
 179:Generated_Source\PSoC4/Input_Capsense_Structure.c ****         { /* sw104 */
 180:Generated_Source\PSoC4/Input_Capsense_Structure.c ****             &Input_Capsense_ioList[4u],
 181:Generated_Source\PSoC4/Input_Capsense_Structure.c ****             (void *)&Input_Capsense_dsRam.wdgtList.sw104,
 182:Generated_Source\PSoC4/Input_Capsense_Structure.c ****             Input_Capsense_dsRam.snsList.sw104,
 183:Generated_Source\PSoC4/Input_Capsense_Structure.c ****             (void *)0u,
 184:Generated_Source\PSoC4/Input_Capsense_Structure.c ****             Input_Capsense_debouncesw104,
 185:Generated_Source\PSoC4/Input_Capsense_Structure.c ****             Input_Capsense_SW104_STATIC_CONFIG,
 186:Generated_Source\PSoC4/Input_Capsense_Structure.c ****             Input_Capsense_SW104_NUM_SENSORS,
 187:Generated_Source\PSoC4/Input_Capsense_Structure.c ****             (uint8)Input_Capsense_WD_BUTTON_E,
 188:Generated_Source\PSoC4/Input_Capsense_Structure.c ****             Input_Capsense_SW104_NUM_SENSORS,
 189:Generated_Source\PSoC4/Input_Capsense_Structure.c ****             Input_Capsense_noiseEnvlpsw104,
 190:Generated_Source\PSoC4/Input_Capsense_Structure.c ****         },
 191:Generated_Source\PSoC4/Input_Capsense_Structure.c ****         { /* sw105 */
 192:Generated_Source\PSoC4/Input_Capsense_Structure.c ****             &Input_Capsense_ioList[5u],
 193:Generated_Source\PSoC4/Input_Capsense_Structure.c ****             (void *)&Input_Capsense_dsRam.wdgtList.sw105,
 194:Generated_Source\PSoC4/Input_Capsense_Structure.c ****             Input_Capsense_dsRam.snsList.sw105,
 195:Generated_Source\PSoC4/Input_Capsense_Structure.c ****             (void *)0u,
 196:Generated_Source\PSoC4/Input_Capsense_Structure.c ****             Input_Capsense_debouncesw105,
 197:Generated_Source\PSoC4/Input_Capsense_Structure.c ****             Input_Capsense_SW105_STATIC_CONFIG,
 198:Generated_Source\PSoC4/Input_Capsense_Structure.c ****             Input_Capsense_SW105_NUM_SENSORS,
 199:Generated_Source\PSoC4/Input_Capsense_Structure.c ****             (uint8)Input_Capsense_WD_BUTTON_E,
 200:Generated_Source\PSoC4/Input_Capsense_Structure.c ****             Input_Capsense_SW105_NUM_SENSORS,
 201:Generated_Source\PSoC4/Input_Capsense_Structure.c ****             Input_Capsense_noiseEnvlpsw105,
 202:Generated_Source\PSoC4/Input_Capsense_Structure.c ****         },
ARM GAS  C:\Users\doita\AppData\Local\Temp\ccsDJsU6.s 			page 5


 203:Generated_Source\PSoC4/Input_Capsense_Structure.c ****         { /* sw106 */
 204:Generated_Source\PSoC4/Input_Capsense_Structure.c ****             &Input_Capsense_ioList[6u],
 205:Generated_Source\PSoC4/Input_Capsense_Structure.c ****             (void *)&Input_Capsense_dsRam.wdgtList.sw106,
 206:Generated_Source\PSoC4/Input_Capsense_Structure.c ****             Input_Capsense_dsRam.snsList.sw106,
 207:Generated_Source\PSoC4/Input_Capsense_Structure.c ****             (void *)0u,
 208:Generated_Source\PSoC4/Input_Capsense_Structure.c ****             Input_Capsense_debouncesw106,
 209:Generated_Source\PSoC4/Input_Capsense_Structure.c ****             Input_Capsense_SW106_STATIC_CONFIG,
 210:Generated_Source\PSoC4/Input_Capsense_Structure.c ****             Input_Capsense_SW106_NUM_SENSORS,
 211:Generated_Source\PSoC4/Input_Capsense_Structure.c ****             (uint8)Input_Capsense_WD_BUTTON_E,
 212:Generated_Source\PSoC4/Input_Capsense_Structure.c ****             Input_Capsense_SW106_NUM_SENSORS,
 213:Generated_Source\PSoC4/Input_Capsense_Structure.c ****             Input_Capsense_noiseEnvlpsw106,
 214:Generated_Source\PSoC4/Input_Capsense_Structure.c ****         },
 215:Generated_Source\PSoC4/Input_Capsense_Structure.c ****         { /* sw107 */
 216:Generated_Source\PSoC4/Input_Capsense_Structure.c ****             &Input_Capsense_ioList[7u],
 217:Generated_Source\PSoC4/Input_Capsense_Structure.c ****             (void *)&Input_Capsense_dsRam.wdgtList.sw107,
 218:Generated_Source\PSoC4/Input_Capsense_Structure.c ****             Input_Capsense_dsRam.snsList.sw107,
 219:Generated_Source\PSoC4/Input_Capsense_Structure.c ****             (void *)0u,
 220:Generated_Source\PSoC4/Input_Capsense_Structure.c ****             Input_Capsense_debouncesw107,
 221:Generated_Source\PSoC4/Input_Capsense_Structure.c ****             Input_Capsense_SW107_STATIC_CONFIG,
 222:Generated_Source\PSoC4/Input_Capsense_Structure.c ****             Input_Capsense_SW107_NUM_SENSORS,
 223:Generated_Source\PSoC4/Input_Capsense_Structure.c ****             (uint8)Input_Capsense_WD_BUTTON_E,
 224:Generated_Source\PSoC4/Input_Capsense_Structure.c ****             Input_Capsense_SW107_NUM_SENSORS,
 225:Generated_Source\PSoC4/Input_Capsense_Structure.c ****             Input_Capsense_noiseEnvlpsw107,
 226:Generated_Source\PSoC4/Input_Capsense_Structure.c ****         },
 227:Generated_Source\PSoC4/Input_Capsense_Structure.c ****         { /* sw108 */
 228:Generated_Source\PSoC4/Input_Capsense_Structure.c ****             &Input_Capsense_ioList[8u],
 229:Generated_Source\PSoC4/Input_Capsense_Structure.c ****             (void *)&Input_Capsense_dsRam.wdgtList.sw108,
 230:Generated_Source\PSoC4/Input_Capsense_Structure.c ****             Input_Capsense_dsRam.snsList.sw108,
 231:Generated_Source\PSoC4/Input_Capsense_Structure.c ****             (void *)0u,
 232:Generated_Source\PSoC4/Input_Capsense_Structure.c ****             Input_Capsense_debouncesw108,
 233:Generated_Source\PSoC4/Input_Capsense_Structure.c ****             Input_Capsense_SW108_STATIC_CONFIG,
 234:Generated_Source\PSoC4/Input_Capsense_Structure.c ****             Input_Capsense_SW108_NUM_SENSORS,
 235:Generated_Source\PSoC4/Input_Capsense_Structure.c ****             (uint8)Input_Capsense_WD_BUTTON_E,
 236:Generated_Source\PSoC4/Input_Capsense_Structure.c ****             Input_Capsense_SW108_NUM_SENSORS,
 237:Generated_Source\PSoC4/Input_Capsense_Structure.c ****             Input_Capsense_noiseEnvlpsw108,
 238:Generated_Source\PSoC4/Input_Capsense_Structure.c ****         },
 239:Generated_Source\PSoC4/Input_Capsense_Structure.c ****         { /* sw109 */
 240:Generated_Source\PSoC4/Input_Capsense_Structure.c ****             &Input_Capsense_ioList[9u],
 241:Generated_Source\PSoC4/Input_Capsense_Structure.c ****             (void *)&Input_Capsense_dsRam.wdgtList.sw109,
 242:Generated_Source\PSoC4/Input_Capsense_Structure.c ****             Input_Capsense_dsRam.snsList.sw109,
 243:Generated_Source\PSoC4/Input_Capsense_Structure.c ****             (void *)0u,
 244:Generated_Source\PSoC4/Input_Capsense_Structure.c ****             Input_Capsense_debouncesw109,
 245:Generated_Source\PSoC4/Input_Capsense_Structure.c ****             Input_Capsense_SW109_STATIC_CONFIG,
 246:Generated_Source\PSoC4/Input_Capsense_Structure.c ****             Input_Capsense_SW109_NUM_SENSORS,
 247:Generated_Source\PSoC4/Input_Capsense_Structure.c ****             (uint8)Input_Capsense_WD_BUTTON_E,
 248:Generated_Source\PSoC4/Input_Capsense_Structure.c ****             Input_Capsense_SW109_NUM_SENSORS,
 249:Generated_Source\PSoC4/Input_Capsense_Structure.c ****             Input_Capsense_noiseEnvlpsw109,
 250:Generated_Source\PSoC4/Input_Capsense_Structure.c ****         },
 251:Generated_Source\PSoC4/Input_Capsense_Structure.c ****         { /* sw110 */
 252:Generated_Source\PSoC4/Input_Capsense_Structure.c ****             &Input_Capsense_ioList[10u],
 253:Generated_Source\PSoC4/Input_Capsense_Structure.c ****             (void *)&Input_Capsense_dsRam.wdgtList.sw110,
 254:Generated_Source\PSoC4/Input_Capsense_Structure.c ****             Input_Capsense_dsRam.snsList.sw110,
 255:Generated_Source\PSoC4/Input_Capsense_Structure.c ****             (void *)0u,
 256:Generated_Source\PSoC4/Input_Capsense_Structure.c ****             Input_Capsense_debouncesw110,
 257:Generated_Source\PSoC4/Input_Capsense_Structure.c ****             Input_Capsense_SW110_STATIC_CONFIG,
 258:Generated_Source\PSoC4/Input_Capsense_Structure.c ****             Input_Capsense_SW110_NUM_SENSORS,
 259:Generated_Source\PSoC4/Input_Capsense_Structure.c ****             (uint8)Input_Capsense_WD_BUTTON_E,
ARM GAS  C:\Users\doita\AppData\Local\Temp\ccsDJsU6.s 			page 6


 260:Generated_Source\PSoC4/Input_Capsense_Structure.c ****             Input_Capsense_SW110_NUM_SENSORS,
 261:Generated_Source\PSoC4/Input_Capsense_Structure.c ****             Input_Capsense_noiseEnvlpsw110,
 262:Generated_Source\PSoC4/Input_Capsense_Structure.c ****         },
 263:Generated_Source\PSoC4/Input_Capsense_Structure.c ****         { /* sw111 */
 264:Generated_Source\PSoC4/Input_Capsense_Structure.c ****             &Input_Capsense_ioList[11u],
 265:Generated_Source\PSoC4/Input_Capsense_Structure.c ****             (void *)&Input_Capsense_dsRam.wdgtList.sw111,
 266:Generated_Source\PSoC4/Input_Capsense_Structure.c ****             Input_Capsense_dsRam.snsList.sw111,
 267:Generated_Source\PSoC4/Input_Capsense_Structure.c ****             (void *)0u,
 268:Generated_Source\PSoC4/Input_Capsense_Structure.c ****             Input_Capsense_debouncesw111,
 269:Generated_Source\PSoC4/Input_Capsense_Structure.c ****             Input_Capsense_SW111_STATIC_CONFIG,
 270:Generated_Source\PSoC4/Input_Capsense_Structure.c ****             Input_Capsense_SW111_NUM_SENSORS,
 271:Generated_Source\PSoC4/Input_Capsense_Structure.c ****             (uint8)Input_Capsense_WD_BUTTON_E,
 272:Generated_Source\PSoC4/Input_Capsense_Structure.c ****             Input_Capsense_SW111_NUM_SENSORS,
 273:Generated_Source\PSoC4/Input_Capsense_Structure.c ****             Input_Capsense_noiseEnvlpsw111,
 274:Generated_Source\PSoC4/Input_Capsense_Structure.c ****         },
 275:Generated_Source\PSoC4/Input_Capsense_Structure.c ****         { /* sw112 */
 276:Generated_Source\PSoC4/Input_Capsense_Structure.c ****             &Input_Capsense_ioList[12u],
 277:Generated_Source\PSoC4/Input_Capsense_Structure.c ****             (void *)&Input_Capsense_dsRam.wdgtList.sw112,
 278:Generated_Source\PSoC4/Input_Capsense_Structure.c ****             Input_Capsense_dsRam.snsList.sw112,
 279:Generated_Source\PSoC4/Input_Capsense_Structure.c ****             (void *)0u,
 280:Generated_Source\PSoC4/Input_Capsense_Structure.c ****             Input_Capsense_debouncesw112,
 281:Generated_Source\PSoC4/Input_Capsense_Structure.c ****             Input_Capsense_SW112_STATIC_CONFIG,
 282:Generated_Source\PSoC4/Input_Capsense_Structure.c ****             Input_Capsense_SW112_NUM_SENSORS,
 283:Generated_Source\PSoC4/Input_Capsense_Structure.c ****             (uint8)Input_Capsense_WD_BUTTON_E,
 284:Generated_Source\PSoC4/Input_Capsense_Structure.c ****             Input_Capsense_SW112_NUM_SENSORS,
 285:Generated_Source\PSoC4/Input_Capsense_Structure.c ****             Input_Capsense_noiseEnvlpsw112,
 286:Generated_Source\PSoC4/Input_Capsense_Structure.c ****         },
 287:Generated_Source\PSoC4/Input_Capsense_Structure.c ****     },
 288:Generated_Source\PSoC4/Input_Capsense_Structure.c **** };
 289:Generated_Source\PSoC4/Input_Capsense_Structure.c **** 
 290:Generated_Source\PSoC4/Input_Capsense_Structure.c **** /**
 291:Generated_Source\PSoC4/Input_Capsense_Structure.c **** * The array of the pointers to the electrode specific register.
 292:Generated_Source\PSoC4/Input_Capsense_Structure.c **** */
 293:Generated_Source\PSoC4/Input_Capsense_Structure.c **** const Input_Capsense_FLASH_IO_STRUCT Input_Capsense_ioList[Input_Capsense_TOTAL_ELECTRODES] =
 294:Generated_Source\PSoC4/Input_Capsense_Structure.c **** {
 295:Generated_Source\PSoC4/Input_Capsense_Structure.c ****     { /* 0: sw100_Sns0 */
 296:Generated_Source\PSoC4/Input_Capsense_Structure.c ****         (reg32 *)Input_Capsense_Sns__0__HSIOM,
 297:Generated_Source\PSoC4/Input_Capsense_Structure.c ****         (reg32 *)Input_Capsense_Sns__0__PC,
 298:Generated_Source\PSoC4/Input_Capsense_Structure.c ****         (reg32 *)Input_Capsense_Sns__0__DR,
 299:Generated_Source\PSoC4/Input_Capsense_Structure.c ****         (reg32 *)Input_Capsense_Sns__0__PS,
 300:Generated_Source\PSoC4/Input_Capsense_Structure.c ****         Input_Capsense_Sns__0__HSIOM_MASK,
 301:Generated_Source\PSoC4/Input_Capsense_Structure.c ****         Input_Capsense_Sns__0__MASK,
 302:Generated_Source\PSoC4/Input_Capsense_Structure.c ****         Input_Capsense_Sns__0__HSIOM_SHIFT,
 303:Generated_Source\PSoC4/Input_Capsense_Structure.c ****         (uint8)Input_Capsense_Sns__0__SHIFT,
 304:Generated_Source\PSoC4/Input_Capsense_Structure.c ****         (uint8)Input_Capsense_Sns__0__SHIFT * 3u,
 305:Generated_Source\PSoC4/Input_Capsense_Structure.c ****     },
 306:Generated_Source\PSoC4/Input_Capsense_Structure.c ****     { /* 1: sw101_Sns0 */
 307:Generated_Source\PSoC4/Input_Capsense_Structure.c ****         (reg32 *)Input_Capsense_Sns__1__HSIOM,
 308:Generated_Source\PSoC4/Input_Capsense_Structure.c ****         (reg32 *)Input_Capsense_Sns__1__PC,
 309:Generated_Source\PSoC4/Input_Capsense_Structure.c ****         (reg32 *)Input_Capsense_Sns__1__DR,
 310:Generated_Source\PSoC4/Input_Capsense_Structure.c ****         (reg32 *)Input_Capsense_Sns__1__PS,
 311:Generated_Source\PSoC4/Input_Capsense_Structure.c ****         Input_Capsense_Sns__1__HSIOM_MASK,
 312:Generated_Source\PSoC4/Input_Capsense_Structure.c ****         Input_Capsense_Sns__1__MASK,
 313:Generated_Source\PSoC4/Input_Capsense_Structure.c ****         Input_Capsense_Sns__1__HSIOM_SHIFT,
 314:Generated_Source\PSoC4/Input_Capsense_Structure.c ****         (uint8)Input_Capsense_Sns__1__SHIFT,
 315:Generated_Source\PSoC4/Input_Capsense_Structure.c ****         (uint8)Input_Capsense_Sns__1__SHIFT * 3u,
 316:Generated_Source\PSoC4/Input_Capsense_Structure.c ****     },
ARM GAS  C:\Users\doita\AppData\Local\Temp\ccsDJsU6.s 			page 7


 317:Generated_Source\PSoC4/Input_Capsense_Structure.c ****     { /* 2: sw102_Sns0 */
 318:Generated_Source\PSoC4/Input_Capsense_Structure.c ****         (reg32 *)Input_Capsense_Sns__2__HSIOM,
 319:Generated_Source\PSoC4/Input_Capsense_Structure.c ****         (reg32 *)Input_Capsense_Sns__2__PC,
 320:Generated_Source\PSoC4/Input_Capsense_Structure.c ****         (reg32 *)Input_Capsense_Sns__2__DR,
 321:Generated_Source\PSoC4/Input_Capsense_Structure.c ****         (reg32 *)Input_Capsense_Sns__2__PS,
 322:Generated_Source\PSoC4/Input_Capsense_Structure.c ****         Input_Capsense_Sns__2__HSIOM_MASK,
 323:Generated_Source\PSoC4/Input_Capsense_Structure.c ****         Input_Capsense_Sns__2__MASK,
 324:Generated_Source\PSoC4/Input_Capsense_Structure.c ****         Input_Capsense_Sns__2__HSIOM_SHIFT,
 325:Generated_Source\PSoC4/Input_Capsense_Structure.c ****         (uint8)Input_Capsense_Sns__2__SHIFT,
 326:Generated_Source\PSoC4/Input_Capsense_Structure.c ****         (uint8)Input_Capsense_Sns__2__SHIFT * 3u,
 327:Generated_Source\PSoC4/Input_Capsense_Structure.c ****     },
 328:Generated_Source\PSoC4/Input_Capsense_Structure.c ****     { /* 3: sw103_Sns0 */
 329:Generated_Source\PSoC4/Input_Capsense_Structure.c ****         (reg32 *)Input_Capsense_Sns__3__HSIOM,
 330:Generated_Source\PSoC4/Input_Capsense_Structure.c ****         (reg32 *)Input_Capsense_Sns__3__PC,
 331:Generated_Source\PSoC4/Input_Capsense_Structure.c ****         (reg32 *)Input_Capsense_Sns__3__DR,
 332:Generated_Source\PSoC4/Input_Capsense_Structure.c ****         (reg32 *)Input_Capsense_Sns__3__PS,
 333:Generated_Source\PSoC4/Input_Capsense_Structure.c ****         Input_Capsense_Sns__3__HSIOM_MASK,
 334:Generated_Source\PSoC4/Input_Capsense_Structure.c ****         Input_Capsense_Sns__3__MASK,
 335:Generated_Source\PSoC4/Input_Capsense_Structure.c ****         Input_Capsense_Sns__3__HSIOM_SHIFT,
 336:Generated_Source\PSoC4/Input_Capsense_Structure.c ****         (uint8)Input_Capsense_Sns__3__SHIFT,
 337:Generated_Source\PSoC4/Input_Capsense_Structure.c ****         (uint8)Input_Capsense_Sns__3__SHIFT * 3u,
 338:Generated_Source\PSoC4/Input_Capsense_Structure.c ****     },
 339:Generated_Source\PSoC4/Input_Capsense_Structure.c ****     { /* 4: sw104_Sns0 */
 340:Generated_Source\PSoC4/Input_Capsense_Structure.c ****         (reg32 *)Input_Capsense_Sns__4__HSIOM,
 341:Generated_Source\PSoC4/Input_Capsense_Structure.c ****         (reg32 *)Input_Capsense_Sns__4__PC,
 342:Generated_Source\PSoC4/Input_Capsense_Structure.c ****         (reg32 *)Input_Capsense_Sns__4__DR,
 343:Generated_Source\PSoC4/Input_Capsense_Structure.c ****         (reg32 *)Input_Capsense_Sns__4__PS,
 344:Generated_Source\PSoC4/Input_Capsense_Structure.c ****         Input_Capsense_Sns__4__HSIOM_MASK,
 345:Generated_Source\PSoC4/Input_Capsense_Structure.c ****         Input_Capsense_Sns__4__MASK,
 346:Generated_Source\PSoC4/Input_Capsense_Structure.c ****         Input_Capsense_Sns__4__HSIOM_SHIFT,
 347:Generated_Source\PSoC4/Input_Capsense_Structure.c ****         (uint8)Input_Capsense_Sns__4__SHIFT,
 348:Generated_Source\PSoC4/Input_Capsense_Structure.c ****         (uint8)Input_Capsense_Sns__4__SHIFT * 3u,
 349:Generated_Source\PSoC4/Input_Capsense_Structure.c ****     },
 350:Generated_Source\PSoC4/Input_Capsense_Structure.c ****     { /* 5: sw105_Sns0 */
 351:Generated_Source\PSoC4/Input_Capsense_Structure.c ****         (reg32 *)Input_Capsense_Sns__5__HSIOM,
 352:Generated_Source\PSoC4/Input_Capsense_Structure.c ****         (reg32 *)Input_Capsense_Sns__5__PC,
 353:Generated_Source\PSoC4/Input_Capsense_Structure.c ****         (reg32 *)Input_Capsense_Sns__5__DR,
 354:Generated_Source\PSoC4/Input_Capsense_Structure.c ****         (reg32 *)Input_Capsense_Sns__5__PS,
 355:Generated_Source\PSoC4/Input_Capsense_Structure.c ****         Input_Capsense_Sns__5__HSIOM_MASK,
 356:Generated_Source\PSoC4/Input_Capsense_Structure.c ****         Input_Capsense_Sns__5__MASK,
 357:Generated_Source\PSoC4/Input_Capsense_Structure.c ****         Input_Capsense_Sns__5__HSIOM_SHIFT,
 358:Generated_Source\PSoC4/Input_Capsense_Structure.c ****         (uint8)Input_Capsense_Sns__5__SHIFT,
 359:Generated_Source\PSoC4/Input_Capsense_Structure.c ****         (uint8)Input_Capsense_Sns__5__SHIFT * 3u,
 360:Generated_Source\PSoC4/Input_Capsense_Structure.c ****     },
 361:Generated_Source\PSoC4/Input_Capsense_Structure.c ****     { /* 6: sw106_Sns0 */
 362:Generated_Source\PSoC4/Input_Capsense_Structure.c ****         (reg32 *)Input_Capsense_Sns__6__HSIOM,
 363:Generated_Source\PSoC4/Input_Capsense_Structure.c ****         (reg32 *)Input_Capsense_Sns__6__PC,
 364:Generated_Source\PSoC4/Input_Capsense_Structure.c ****         (reg32 *)Input_Capsense_Sns__6__DR,
 365:Generated_Source\PSoC4/Input_Capsense_Structure.c ****         (reg32 *)Input_Capsense_Sns__6__PS,
 366:Generated_Source\PSoC4/Input_Capsense_Structure.c ****         Input_Capsense_Sns__6__HSIOM_MASK,
 367:Generated_Source\PSoC4/Input_Capsense_Structure.c ****         Input_Capsense_Sns__6__MASK,
 368:Generated_Source\PSoC4/Input_Capsense_Structure.c ****         Input_Capsense_Sns__6__HSIOM_SHIFT,
 369:Generated_Source\PSoC4/Input_Capsense_Structure.c ****         (uint8)Input_Capsense_Sns__6__SHIFT,
 370:Generated_Source\PSoC4/Input_Capsense_Structure.c ****         (uint8)Input_Capsense_Sns__6__SHIFT * 3u,
 371:Generated_Source\PSoC4/Input_Capsense_Structure.c ****     },
 372:Generated_Source\PSoC4/Input_Capsense_Structure.c ****     { /* 7: sw107_Sns0 */
 373:Generated_Source\PSoC4/Input_Capsense_Structure.c ****         (reg32 *)Input_Capsense_Sns__7__HSIOM,
ARM GAS  C:\Users\doita\AppData\Local\Temp\ccsDJsU6.s 			page 8


 374:Generated_Source\PSoC4/Input_Capsense_Structure.c ****         (reg32 *)Input_Capsense_Sns__7__PC,
 375:Generated_Source\PSoC4/Input_Capsense_Structure.c ****         (reg32 *)Input_Capsense_Sns__7__DR,
 376:Generated_Source\PSoC4/Input_Capsense_Structure.c ****         (reg32 *)Input_Capsense_Sns__7__PS,
 377:Generated_Source\PSoC4/Input_Capsense_Structure.c ****         Input_Capsense_Sns__7__HSIOM_MASK,
 378:Generated_Source\PSoC4/Input_Capsense_Structure.c ****         Input_Capsense_Sns__7__MASK,
 379:Generated_Source\PSoC4/Input_Capsense_Structure.c ****         Input_Capsense_Sns__7__HSIOM_SHIFT,
 380:Generated_Source\PSoC4/Input_Capsense_Structure.c ****         (uint8)Input_Capsense_Sns__7__SHIFT,
 381:Generated_Source\PSoC4/Input_Capsense_Structure.c ****         (uint8)Input_Capsense_Sns__7__SHIFT * 3u,
 382:Generated_Source\PSoC4/Input_Capsense_Structure.c ****     },
 383:Generated_Source\PSoC4/Input_Capsense_Structure.c ****     { /* 8: sw108_Sns0 */
 384:Generated_Source\PSoC4/Input_Capsense_Structure.c ****         (reg32 *)Input_Capsense_Sns__8__HSIOM,
 385:Generated_Source\PSoC4/Input_Capsense_Structure.c ****         (reg32 *)Input_Capsense_Sns__8__PC,
 386:Generated_Source\PSoC4/Input_Capsense_Structure.c ****         (reg32 *)Input_Capsense_Sns__8__DR,
 387:Generated_Source\PSoC4/Input_Capsense_Structure.c ****         (reg32 *)Input_Capsense_Sns__8__PS,
 388:Generated_Source\PSoC4/Input_Capsense_Structure.c ****         Input_Capsense_Sns__8__HSIOM_MASK,
 389:Generated_Source\PSoC4/Input_Capsense_Structure.c ****         Input_Capsense_Sns__8__MASK,
 390:Generated_Source\PSoC4/Input_Capsense_Structure.c ****         Input_Capsense_Sns__8__HSIOM_SHIFT,
 391:Generated_Source\PSoC4/Input_Capsense_Structure.c ****         (uint8)Input_Capsense_Sns__8__SHIFT,
 392:Generated_Source\PSoC4/Input_Capsense_Structure.c ****         (uint8)Input_Capsense_Sns__8__SHIFT * 3u,
 393:Generated_Source\PSoC4/Input_Capsense_Structure.c ****     },
 394:Generated_Source\PSoC4/Input_Capsense_Structure.c ****     { /* 9: sw109_Sns0 */
 395:Generated_Source\PSoC4/Input_Capsense_Structure.c ****         (reg32 *)Input_Capsense_Sns__9__HSIOM,
 396:Generated_Source\PSoC4/Input_Capsense_Structure.c ****         (reg32 *)Input_Capsense_Sns__9__PC,
 397:Generated_Source\PSoC4/Input_Capsense_Structure.c ****         (reg32 *)Input_Capsense_Sns__9__DR,
 398:Generated_Source\PSoC4/Input_Capsense_Structure.c ****         (reg32 *)Input_Capsense_Sns__9__PS,
 399:Generated_Source\PSoC4/Input_Capsense_Structure.c ****         Input_Capsense_Sns__9__HSIOM_MASK,
 400:Generated_Source\PSoC4/Input_Capsense_Structure.c ****         Input_Capsense_Sns__9__MASK,
 401:Generated_Source\PSoC4/Input_Capsense_Structure.c ****         Input_Capsense_Sns__9__HSIOM_SHIFT,
 402:Generated_Source\PSoC4/Input_Capsense_Structure.c ****         (uint8)Input_Capsense_Sns__9__SHIFT,
 403:Generated_Source\PSoC4/Input_Capsense_Structure.c ****         (uint8)Input_Capsense_Sns__9__SHIFT * 3u,
 404:Generated_Source\PSoC4/Input_Capsense_Structure.c ****     },
 405:Generated_Source\PSoC4/Input_Capsense_Structure.c ****     { /* 10: sw110_Sns0 */
 406:Generated_Source\PSoC4/Input_Capsense_Structure.c ****         (reg32 *)Input_Capsense_Sns__10__HSIOM,
 407:Generated_Source\PSoC4/Input_Capsense_Structure.c ****         (reg32 *)Input_Capsense_Sns__10__PC,
 408:Generated_Source\PSoC4/Input_Capsense_Structure.c ****         (reg32 *)Input_Capsense_Sns__10__DR,
 409:Generated_Source\PSoC4/Input_Capsense_Structure.c ****         (reg32 *)Input_Capsense_Sns__10__PS,
 410:Generated_Source\PSoC4/Input_Capsense_Structure.c ****         Input_Capsense_Sns__10__HSIOM_MASK,
 411:Generated_Source\PSoC4/Input_Capsense_Structure.c ****         Input_Capsense_Sns__10__MASK,
 412:Generated_Source\PSoC4/Input_Capsense_Structure.c ****         Input_Capsense_Sns__10__HSIOM_SHIFT,
 413:Generated_Source\PSoC4/Input_Capsense_Structure.c ****         (uint8)Input_Capsense_Sns__10__SHIFT,
 414:Generated_Source\PSoC4/Input_Capsense_Structure.c ****         (uint8)Input_Capsense_Sns__10__SHIFT * 3u,
 415:Generated_Source\PSoC4/Input_Capsense_Structure.c ****     },
 416:Generated_Source\PSoC4/Input_Capsense_Structure.c ****     { /* 11: sw111_Sns0 */
 417:Generated_Source\PSoC4/Input_Capsense_Structure.c ****         (reg32 *)Input_Capsense_Sns__11__HSIOM,
 418:Generated_Source\PSoC4/Input_Capsense_Structure.c ****         (reg32 *)Input_Capsense_Sns__11__PC,
 419:Generated_Source\PSoC4/Input_Capsense_Structure.c ****         (reg32 *)Input_Capsense_Sns__11__DR,
 420:Generated_Source\PSoC4/Input_Capsense_Structure.c ****         (reg32 *)Input_Capsense_Sns__11__PS,
 421:Generated_Source\PSoC4/Input_Capsense_Structure.c ****         Input_Capsense_Sns__11__HSIOM_MASK,
 422:Generated_Source\PSoC4/Input_Capsense_Structure.c ****         Input_Capsense_Sns__11__MASK,
 423:Generated_Source\PSoC4/Input_Capsense_Structure.c ****         Input_Capsense_Sns__11__HSIOM_SHIFT,
 424:Generated_Source\PSoC4/Input_Capsense_Structure.c ****         (uint8)Input_Capsense_Sns__11__SHIFT,
 425:Generated_Source\PSoC4/Input_Capsense_Structure.c ****         (uint8)Input_Capsense_Sns__11__SHIFT * 3u,
 426:Generated_Source\PSoC4/Input_Capsense_Structure.c ****     },
 427:Generated_Source\PSoC4/Input_Capsense_Structure.c ****     { /* 12: sw112_Sns0 */
 428:Generated_Source\PSoC4/Input_Capsense_Structure.c ****         (reg32 *)Input_Capsense_Sns__12__HSIOM,
 429:Generated_Source\PSoC4/Input_Capsense_Structure.c ****         (reg32 *)Input_Capsense_Sns__12__PC,
 430:Generated_Source\PSoC4/Input_Capsense_Structure.c ****         (reg32 *)Input_Capsense_Sns__12__DR,
ARM GAS  C:\Users\doita\AppData\Local\Temp\ccsDJsU6.s 			page 9


 431:Generated_Source\PSoC4/Input_Capsense_Structure.c ****         (reg32 *)Input_Capsense_Sns__12__PS,
 432:Generated_Source\PSoC4/Input_Capsense_Structure.c ****         Input_Capsense_Sns__12__HSIOM_MASK,
 433:Generated_Source\PSoC4/Input_Capsense_Structure.c ****         Input_Capsense_Sns__12__MASK,
 434:Generated_Source\PSoC4/Input_Capsense_Structure.c ****         Input_Capsense_Sns__12__HSIOM_SHIFT,
 435:Generated_Source\PSoC4/Input_Capsense_Structure.c ****         (uint8)Input_Capsense_Sns__12__SHIFT,
 436:Generated_Source\PSoC4/Input_Capsense_Structure.c ****         (uint8)Input_Capsense_Sns__12__SHIFT * 3u,
 437:Generated_Source\PSoC4/Input_Capsense_Structure.c ****     },
 438:Generated_Source\PSoC4/Input_Capsense_Structure.c **** };
 439:Generated_Source\PSoC4/Input_Capsense_Structure.c **** 
 440:Generated_Source\PSoC4/Input_Capsense_Structure.c **** 
 441:Generated_Source\PSoC4/Input_Capsense_Structure.c **** 
 442:Generated_Source\PSoC4/Input_Capsense_Structure.c **** /** \}
 443:Generated_Source\PSoC4/Input_Capsense_Structure.c **** * \endcond */
 444:Generated_Source\PSoC4/Input_Capsense_Structure.c **** 
 445:Generated_Source\PSoC4/Input_Capsense_Structure.c **** /* Initialization data for RAM widget list */
 446:Generated_Source\PSoC4/Input_Capsense_Structure.c **** const Input_Capsense_RAM_WD_LIST_STRUCT Input_Capsense_ramWidgetInit =
 447:Generated_Source\PSoC4/Input_Capsense_Structure.c **** {
 448:Generated_Source\PSoC4/Input_Capsense_Structure.c ****     { /* sw100 */
 449:Generated_Source\PSoC4/Input_Capsense_Structure.c ****         Input_Capsense_SW100_RESOLUTION,
 450:Generated_Source\PSoC4/Input_Capsense_Structure.c ****         Input_Capsense_SW100_FINGER_TH,
 451:Generated_Source\PSoC4/Input_Capsense_Structure.c ****         Input_Capsense_SW100_NOISE_TH,
 452:Generated_Source\PSoC4/Input_Capsense_Structure.c ****         Input_Capsense_SW100_NNOISE_TH,
 453:Generated_Source\PSoC4/Input_Capsense_Structure.c ****         Input_Capsense_SW100_HYSTERESIS,
 454:Generated_Source\PSoC4/Input_Capsense_Structure.c ****         Input_Capsense_SW100_ON_DEBOUNCE,
 455:Generated_Source\PSoC4/Input_Capsense_Structure.c ****         Input_Capsense_SW100_LOW_BSLN_RST,
 456:Generated_Source\PSoC4/Input_Capsense_Structure.c ****         {
 457:Generated_Source\PSoC4/Input_Capsense_Structure.c ****             Input_Capsense_SW100_IDAC_MOD0,
 458:Generated_Source\PSoC4/Input_Capsense_Structure.c ****         },
 459:Generated_Source\PSoC4/Input_Capsense_Structure.c ****         Input_Capsense_SW100_IDAC_GAIN_INDEX,
 460:Generated_Source\PSoC4/Input_Capsense_Structure.c ****         Input_Capsense_SW100_SNS_CLK,
 461:Generated_Source\PSoC4/Input_Capsense_Structure.c ****         Input_Capsense_SW100_SNS_CLK_SOURCE,
 462:Generated_Source\PSoC4/Input_Capsense_Structure.c ****         Input_Capsense_SW100_FINGER_CAP,
 463:Generated_Source\PSoC4/Input_Capsense_Structure.c ****         Input_Capsense_SW100_SIGPFC,
 464:Generated_Source\PSoC4/Input_Capsense_Structure.c ****     },
 465:Generated_Source\PSoC4/Input_Capsense_Structure.c ****     { /* sw101 */
 466:Generated_Source\PSoC4/Input_Capsense_Structure.c ****         Input_Capsense_SW101_RESOLUTION,
 467:Generated_Source\PSoC4/Input_Capsense_Structure.c ****         Input_Capsense_SW101_FINGER_TH,
 468:Generated_Source\PSoC4/Input_Capsense_Structure.c ****         Input_Capsense_SW101_NOISE_TH,
 469:Generated_Source\PSoC4/Input_Capsense_Structure.c ****         Input_Capsense_SW101_NNOISE_TH,
 470:Generated_Source\PSoC4/Input_Capsense_Structure.c ****         Input_Capsense_SW101_HYSTERESIS,
 471:Generated_Source\PSoC4/Input_Capsense_Structure.c ****         Input_Capsense_SW101_ON_DEBOUNCE,
 472:Generated_Source\PSoC4/Input_Capsense_Structure.c ****         Input_Capsense_SW101_LOW_BSLN_RST,
 473:Generated_Source\PSoC4/Input_Capsense_Structure.c ****         {
 474:Generated_Source\PSoC4/Input_Capsense_Structure.c ****             Input_Capsense_SW101_IDAC_MOD0,
 475:Generated_Source\PSoC4/Input_Capsense_Structure.c ****         },
 476:Generated_Source\PSoC4/Input_Capsense_Structure.c ****         Input_Capsense_SW101_IDAC_GAIN_INDEX,
 477:Generated_Source\PSoC4/Input_Capsense_Structure.c ****         Input_Capsense_SW101_SNS_CLK,
 478:Generated_Source\PSoC4/Input_Capsense_Structure.c ****         Input_Capsense_SW101_SNS_CLK_SOURCE,
 479:Generated_Source\PSoC4/Input_Capsense_Structure.c ****         Input_Capsense_SW101_FINGER_CAP,
 480:Generated_Source\PSoC4/Input_Capsense_Structure.c ****         Input_Capsense_SW101_SIGPFC,
 481:Generated_Source\PSoC4/Input_Capsense_Structure.c ****     },
 482:Generated_Source\PSoC4/Input_Capsense_Structure.c ****     { /* sw102 */
 483:Generated_Source\PSoC4/Input_Capsense_Structure.c ****         Input_Capsense_SW102_RESOLUTION,
 484:Generated_Source\PSoC4/Input_Capsense_Structure.c ****         Input_Capsense_SW102_FINGER_TH,
 485:Generated_Source\PSoC4/Input_Capsense_Structure.c ****         Input_Capsense_SW102_NOISE_TH,
 486:Generated_Source\PSoC4/Input_Capsense_Structure.c ****         Input_Capsense_SW102_NNOISE_TH,
 487:Generated_Source\PSoC4/Input_Capsense_Structure.c ****         Input_Capsense_SW102_HYSTERESIS,
ARM GAS  C:\Users\doita\AppData\Local\Temp\ccsDJsU6.s 			page 10


 488:Generated_Source\PSoC4/Input_Capsense_Structure.c ****         Input_Capsense_SW102_ON_DEBOUNCE,
 489:Generated_Source\PSoC4/Input_Capsense_Structure.c ****         Input_Capsense_SW102_LOW_BSLN_RST,
 490:Generated_Source\PSoC4/Input_Capsense_Structure.c ****         {
 491:Generated_Source\PSoC4/Input_Capsense_Structure.c ****             Input_Capsense_SW102_IDAC_MOD0,
 492:Generated_Source\PSoC4/Input_Capsense_Structure.c ****         },
 493:Generated_Source\PSoC4/Input_Capsense_Structure.c ****         Input_Capsense_SW102_IDAC_GAIN_INDEX,
 494:Generated_Source\PSoC4/Input_Capsense_Structure.c ****         Input_Capsense_SW102_SNS_CLK,
 495:Generated_Source\PSoC4/Input_Capsense_Structure.c ****         Input_Capsense_SW102_SNS_CLK_SOURCE,
 496:Generated_Source\PSoC4/Input_Capsense_Structure.c ****         Input_Capsense_SW102_FINGER_CAP,
 497:Generated_Source\PSoC4/Input_Capsense_Structure.c ****         Input_Capsense_SW102_SIGPFC,
 498:Generated_Source\PSoC4/Input_Capsense_Structure.c ****     },
 499:Generated_Source\PSoC4/Input_Capsense_Structure.c ****     { /* sw103 */
 500:Generated_Source\PSoC4/Input_Capsense_Structure.c ****         Input_Capsense_SW103_RESOLUTION,
 501:Generated_Source\PSoC4/Input_Capsense_Structure.c ****         Input_Capsense_SW103_FINGER_TH,
 502:Generated_Source\PSoC4/Input_Capsense_Structure.c ****         Input_Capsense_SW103_NOISE_TH,
 503:Generated_Source\PSoC4/Input_Capsense_Structure.c ****         Input_Capsense_SW103_NNOISE_TH,
 504:Generated_Source\PSoC4/Input_Capsense_Structure.c ****         Input_Capsense_SW103_HYSTERESIS,
 505:Generated_Source\PSoC4/Input_Capsense_Structure.c ****         Input_Capsense_SW103_ON_DEBOUNCE,
 506:Generated_Source\PSoC4/Input_Capsense_Structure.c ****         Input_Capsense_SW103_LOW_BSLN_RST,
 507:Generated_Source\PSoC4/Input_Capsense_Structure.c ****         {
 508:Generated_Source\PSoC4/Input_Capsense_Structure.c ****             Input_Capsense_SW103_IDAC_MOD0,
 509:Generated_Source\PSoC4/Input_Capsense_Structure.c ****         },
 510:Generated_Source\PSoC4/Input_Capsense_Structure.c ****         Input_Capsense_SW103_IDAC_GAIN_INDEX,
 511:Generated_Source\PSoC4/Input_Capsense_Structure.c ****         Input_Capsense_SW103_SNS_CLK,
 512:Generated_Source\PSoC4/Input_Capsense_Structure.c ****         Input_Capsense_SW103_SNS_CLK_SOURCE,
 513:Generated_Source\PSoC4/Input_Capsense_Structure.c ****         Input_Capsense_SW103_FINGER_CAP,
 514:Generated_Source\PSoC4/Input_Capsense_Structure.c ****         Input_Capsense_SW103_SIGPFC,
 515:Generated_Source\PSoC4/Input_Capsense_Structure.c ****     },
 516:Generated_Source\PSoC4/Input_Capsense_Structure.c ****     { /* sw104 */
 517:Generated_Source\PSoC4/Input_Capsense_Structure.c ****         Input_Capsense_SW104_RESOLUTION,
 518:Generated_Source\PSoC4/Input_Capsense_Structure.c ****         Input_Capsense_SW104_FINGER_TH,
 519:Generated_Source\PSoC4/Input_Capsense_Structure.c ****         Input_Capsense_SW104_NOISE_TH,
 520:Generated_Source\PSoC4/Input_Capsense_Structure.c ****         Input_Capsense_SW104_NNOISE_TH,
 521:Generated_Source\PSoC4/Input_Capsense_Structure.c ****         Input_Capsense_SW104_HYSTERESIS,
 522:Generated_Source\PSoC4/Input_Capsense_Structure.c ****         Input_Capsense_SW104_ON_DEBOUNCE,
 523:Generated_Source\PSoC4/Input_Capsense_Structure.c ****         Input_Capsense_SW104_LOW_BSLN_RST,
 524:Generated_Source\PSoC4/Input_Capsense_Structure.c ****         {
 525:Generated_Source\PSoC4/Input_Capsense_Structure.c ****             Input_Capsense_SW104_IDAC_MOD0,
 526:Generated_Source\PSoC4/Input_Capsense_Structure.c ****         },
 527:Generated_Source\PSoC4/Input_Capsense_Structure.c ****         Input_Capsense_SW104_IDAC_GAIN_INDEX,
 528:Generated_Source\PSoC4/Input_Capsense_Structure.c ****         Input_Capsense_SW104_SNS_CLK,
 529:Generated_Source\PSoC4/Input_Capsense_Structure.c ****         Input_Capsense_SW104_SNS_CLK_SOURCE,
 530:Generated_Source\PSoC4/Input_Capsense_Structure.c ****         Input_Capsense_SW104_FINGER_CAP,
 531:Generated_Source\PSoC4/Input_Capsense_Structure.c ****         Input_Capsense_SW104_SIGPFC,
 532:Generated_Source\PSoC4/Input_Capsense_Structure.c ****     },
 533:Generated_Source\PSoC4/Input_Capsense_Structure.c ****     { /* sw105 */
 534:Generated_Source\PSoC4/Input_Capsense_Structure.c ****         Input_Capsense_SW105_RESOLUTION,
 535:Generated_Source\PSoC4/Input_Capsense_Structure.c ****         Input_Capsense_SW105_FINGER_TH,
 536:Generated_Source\PSoC4/Input_Capsense_Structure.c ****         Input_Capsense_SW105_NOISE_TH,
 537:Generated_Source\PSoC4/Input_Capsense_Structure.c ****         Input_Capsense_SW105_NNOISE_TH,
 538:Generated_Source\PSoC4/Input_Capsense_Structure.c ****         Input_Capsense_SW105_HYSTERESIS,
 539:Generated_Source\PSoC4/Input_Capsense_Structure.c ****         Input_Capsense_SW105_ON_DEBOUNCE,
 540:Generated_Source\PSoC4/Input_Capsense_Structure.c ****         Input_Capsense_SW105_LOW_BSLN_RST,
 541:Generated_Source\PSoC4/Input_Capsense_Structure.c ****         {
 542:Generated_Source\PSoC4/Input_Capsense_Structure.c ****             Input_Capsense_SW105_IDAC_MOD0,
 543:Generated_Source\PSoC4/Input_Capsense_Structure.c ****         },
 544:Generated_Source\PSoC4/Input_Capsense_Structure.c ****         Input_Capsense_SW105_IDAC_GAIN_INDEX,
ARM GAS  C:\Users\doita\AppData\Local\Temp\ccsDJsU6.s 			page 11


 545:Generated_Source\PSoC4/Input_Capsense_Structure.c ****         Input_Capsense_SW105_SNS_CLK,
 546:Generated_Source\PSoC4/Input_Capsense_Structure.c ****         Input_Capsense_SW105_SNS_CLK_SOURCE,
 547:Generated_Source\PSoC4/Input_Capsense_Structure.c ****         Input_Capsense_SW105_FINGER_CAP,
 548:Generated_Source\PSoC4/Input_Capsense_Structure.c ****         Input_Capsense_SW105_SIGPFC,
 549:Generated_Source\PSoC4/Input_Capsense_Structure.c ****     },
 550:Generated_Source\PSoC4/Input_Capsense_Structure.c ****     { /* sw106 */
 551:Generated_Source\PSoC4/Input_Capsense_Structure.c ****         Input_Capsense_SW106_RESOLUTION,
 552:Generated_Source\PSoC4/Input_Capsense_Structure.c ****         Input_Capsense_SW106_FINGER_TH,
 553:Generated_Source\PSoC4/Input_Capsense_Structure.c ****         Input_Capsense_SW106_NOISE_TH,
 554:Generated_Source\PSoC4/Input_Capsense_Structure.c ****         Input_Capsense_SW106_NNOISE_TH,
 555:Generated_Source\PSoC4/Input_Capsense_Structure.c ****         Input_Capsense_SW106_HYSTERESIS,
 556:Generated_Source\PSoC4/Input_Capsense_Structure.c ****         Input_Capsense_SW106_ON_DEBOUNCE,
 557:Generated_Source\PSoC4/Input_Capsense_Structure.c ****         Input_Capsense_SW106_LOW_BSLN_RST,
 558:Generated_Source\PSoC4/Input_Capsense_Structure.c ****         {
 559:Generated_Source\PSoC4/Input_Capsense_Structure.c ****             Input_Capsense_SW106_IDAC_MOD0,
 560:Generated_Source\PSoC4/Input_Capsense_Structure.c ****         },
 561:Generated_Source\PSoC4/Input_Capsense_Structure.c ****         Input_Capsense_SW106_IDAC_GAIN_INDEX,
 562:Generated_Source\PSoC4/Input_Capsense_Structure.c ****         Input_Capsense_SW106_SNS_CLK,
 563:Generated_Source\PSoC4/Input_Capsense_Structure.c ****         Input_Capsense_SW106_SNS_CLK_SOURCE,
 564:Generated_Source\PSoC4/Input_Capsense_Structure.c ****         Input_Capsense_SW106_FINGER_CAP,
 565:Generated_Source\PSoC4/Input_Capsense_Structure.c ****         Input_Capsense_SW106_SIGPFC,
 566:Generated_Source\PSoC4/Input_Capsense_Structure.c ****     },
 567:Generated_Source\PSoC4/Input_Capsense_Structure.c ****     { /* sw107 */
 568:Generated_Source\PSoC4/Input_Capsense_Structure.c ****         Input_Capsense_SW107_RESOLUTION,
 569:Generated_Source\PSoC4/Input_Capsense_Structure.c ****         Input_Capsense_SW107_FINGER_TH,
 570:Generated_Source\PSoC4/Input_Capsense_Structure.c ****         Input_Capsense_SW107_NOISE_TH,
 571:Generated_Source\PSoC4/Input_Capsense_Structure.c ****         Input_Capsense_SW107_NNOISE_TH,
 572:Generated_Source\PSoC4/Input_Capsense_Structure.c ****         Input_Capsense_SW107_HYSTERESIS,
 573:Generated_Source\PSoC4/Input_Capsense_Structure.c ****         Input_Capsense_SW107_ON_DEBOUNCE,
 574:Generated_Source\PSoC4/Input_Capsense_Structure.c ****         Input_Capsense_SW107_LOW_BSLN_RST,
 575:Generated_Source\PSoC4/Input_Capsense_Structure.c ****         {
 576:Generated_Source\PSoC4/Input_Capsense_Structure.c ****             Input_Capsense_SW107_IDAC_MOD0,
 577:Generated_Source\PSoC4/Input_Capsense_Structure.c ****         },
 578:Generated_Source\PSoC4/Input_Capsense_Structure.c ****         Input_Capsense_SW107_IDAC_GAIN_INDEX,
 579:Generated_Source\PSoC4/Input_Capsense_Structure.c ****         Input_Capsense_SW107_SNS_CLK,
 580:Generated_Source\PSoC4/Input_Capsense_Structure.c ****         Input_Capsense_SW107_SNS_CLK_SOURCE,
 581:Generated_Source\PSoC4/Input_Capsense_Structure.c ****         Input_Capsense_SW107_FINGER_CAP,
 582:Generated_Source\PSoC4/Input_Capsense_Structure.c ****         Input_Capsense_SW107_SIGPFC,
 583:Generated_Source\PSoC4/Input_Capsense_Structure.c ****     },
 584:Generated_Source\PSoC4/Input_Capsense_Structure.c ****     { /* sw108 */
 585:Generated_Source\PSoC4/Input_Capsense_Structure.c ****         Input_Capsense_SW108_RESOLUTION,
 586:Generated_Source\PSoC4/Input_Capsense_Structure.c ****         Input_Capsense_SW108_FINGER_TH,
 587:Generated_Source\PSoC4/Input_Capsense_Structure.c ****         Input_Capsense_SW108_NOISE_TH,
 588:Generated_Source\PSoC4/Input_Capsense_Structure.c ****         Input_Capsense_SW108_NNOISE_TH,
 589:Generated_Source\PSoC4/Input_Capsense_Structure.c ****         Input_Capsense_SW108_HYSTERESIS,
 590:Generated_Source\PSoC4/Input_Capsense_Structure.c ****         Input_Capsense_SW108_ON_DEBOUNCE,
 591:Generated_Source\PSoC4/Input_Capsense_Structure.c ****         Input_Capsense_SW108_LOW_BSLN_RST,
 592:Generated_Source\PSoC4/Input_Capsense_Structure.c ****         {
 593:Generated_Source\PSoC4/Input_Capsense_Structure.c ****             Input_Capsense_SW108_IDAC_MOD0,
 594:Generated_Source\PSoC4/Input_Capsense_Structure.c ****         },
 595:Generated_Source\PSoC4/Input_Capsense_Structure.c ****         Input_Capsense_SW108_IDAC_GAIN_INDEX,
 596:Generated_Source\PSoC4/Input_Capsense_Structure.c ****         Input_Capsense_SW108_SNS_CLK,
 597:Generated_Source\PSoC4/Input_Capsense_Structure.c ****         Input_Capsense_SW108_SNS_CLK_SOURCE,
 598:Generated_Source\PSoC4/Input_Capsense_Structure.c ****         Input_Capsense_SW108_FINGER_CAP,
 599:Generated_Source\PSoC4/Input_Capsense_Structure.c ****         Input_Capsense_SW108_SIGPFC,
 600:Generated_Source\PSoC4/Input_Capsense_Structure.c ****     },
 601:Generated_Source\PSoC4/Input_Capsense_Structure.c ****     { /* sw109 */
ARM GAS  C:\Users\doita\AppData\Local\Temp\ccsDJsU6.s 			page 12


 602:Generated_Source\PSoC4/Input_Capsense_Structure.c ****         Input_Capsense_SW109_RESOLUTION,
 603:Generated_Source\PSoC4/Input_Capsense_Structure.c ****         Input_Capsense_SW109_FINGER_TH,
 604:Generated_Source\PSoC4/Input_Capsense_Structure.c ****         Input_Capsense_SW109_NOISE_TH,
 605:Generated_Source\PSoC4/Input_Capsense_Structure.c ****         Input_Capsense_SW109_NNOISE_TH,
 606:Generated_Source\PSoC4/Input_Capsense_Structure.c ****         Input_Capsense_SW109_HYSTERESIS,
 607:Generated_Source\PSoC4/Input_Capsense_Structure.c ****         Input_Capsense_SW109_ON_DEBOUNCE,
 608:Generated_Source\PSoC4/Input_Capsense_Structure.c ****         Input_Capsense_SW109_LOW_BSLN_RST,
 609:Generated_Source\PSoC4/Input_Capsense_Structure.c ****         {
 610:Generated_Source\PSoC4/Input_Capsense_Structure.c ****             Input_Capsense_SW109_IDAC_MOD0,
 611:Generated_Source\PSoC4/Input_Capsense_Structure.c ****         },
 612:Generated_Source\PSoC4/Input_Capsense_Structure.c ****         Input_Capsense_SW109_IDAC_GAIN_INDEX,
 613:Generated_Source\PSoC4/Input_Capsense_Structure.c ****         Input_Capsense_SW109_SNS_CLK,
 614:Generated_Source\PSoC4/Input_Capsense_Structure.c ****         Input_Capsense_SW109_SNS_CLK_SOURCE,
 615:Generated_Source\PSoC4/Input_Capsense_Structure.c ****         Input_Capsense_SW109_FINGER_CAP,
 616:Generated_Source\PSoC4/Input_Capsense_Structure.c ****         Input_Capsense_SW109_SIGPFC,
 617:Generated_Source\PSoC4/Input_Capsense_Structure.c ****     },
 618:Generated_Source\PSoC4/Input_Capsense_Structure.c ****     { /* sw110 */
 619:Generated_Source\PSoC4/Input_Capsense_Structure.c ****         Input_Capsense_SW110_RESOLUTION,
 620:Generated_Source\PSoC4/Input_Capsense_Structure.c ****         Input_Capsense_SW110_FINGER_TH,
 621:Generated_Source\PSoC4/Input_Capsense_Structure.c ****         Input_Capsense_SW110_NOISE_TH,
 622:Generated_Source\PSoC4/Input_Capsense_Structure.c ****         Input_Capsense_SW110_NNOISE_TH,
 623:Generated_Source\PSoC4/Input_Capsense_Structure.c ****         Input_Capsense_SW110_HYSTERESIS,
 624:Generated_Source\PSoC4/Input_Capsense_Structure.c ****         Input_Capsense_SW110_ON_DEBOUNCE,
 625:Generated_Source\PSoC4/Input_Capsense_Structure.c ****         Input_Capsense_SW110_LOW_BSLN_RST,
 626:Generated_Source\PSoC4/Input_Capsense_Structure.c ****         {
 627:Generated_Source\PSoC4/Input_Capsense_Structure.c ****             Input_Capsense_SW110_IDAC_MOD0,
 628:Generated_Source\PSoC4/Input_Capsense_Structure.c ****         },
 629:Generated_Source\PSoC4/Input_Capsense_Structure.c ****         Input_Capsense_SW110_IDAC_GAIN_INDEX,
 630:Generated_Source\PSoC4/Input_Capsense_Structure.c ****         Input_Capsense_SW110_SNS_CLK,
 631:Generated_Source\PSoC4/Input_Capsense_Structure.c ****         Input_Capsense_SW110_SNS_CLK_SOURCE,
 632:Generated_Source\PSoC4/Input_Capsense_Structure.c ****         Input_Capsense_SW110_FINGER_CAP,
 633:Generated_Source\PSoC4/Input_Capsense_Structure.c ****         Input_Capsense_SW110_SIGPFC,
 634:Generated_Source\PSoC4/Input_Capsense_Structure.c ****     },
 635:Generated_Source\PSoC4/Input_Capsense_Structure.c ****     { /* sw111 */
 636:Generated_Source\PSoC4/Input_Capsense_Structure.c ****         Input_Capsense_SW111_RESOLUTION,
 637:Generated_Source\PSoC4/Input_Capsense_Structure.c ****         Input_Capsense_SW111_FINGER_TH,
 638:Generated_Source\PSoC4/Input_Capsense_Structure.c ****         Input_Capsense_SW111_NOISE_TH,
 639:Generated_Source\PSoC4/Input_Capsense_Structure.c ****         Input_Capsense_SW111_NNOISE_TH,
 640:Generated_Source\PSoC4/Input_Capsense_Structure.c ****         Input_Capsense_SW111_HYSTERESIS,
 641:Generated_Source\PSoC4/Input_Capsense_Structure.c ****         Input_Capsense_SW111_ON_DEBOUNCE,
 642:Generated_Source\PSoC4/Input_Capsense_Structure.c ****         Input_Capsense_SW111_LOW_BSLN_RST,
 643:Generated_Source\PSoC4/Input_Capsense_Structure.c ****         {
 644:Generated_Source\PSoC4/Input_Capsense_Structure.c ****             Input_Capsense_SW111_IDAC_MOD0,
 645:Generated_Source\PSoC4/Input_Capsense_Structure.c ****         },
 646:Generated_Source\PSoC4/Input_Capsense_Structure.c ****         Input_Capsense_SW111_IDAC_GAIN_INDEX,
 647:Generated_Source\PSoC4/Input_Capsense_Structure.c ****         Input_Capsense_SW111_SNS_CLK,
 648:Generated_Source\PSoC4/Input_Capsense_Structure.c ****         Input_Capsense_SW111_SNS_CLK_SOURCE,
 649:Generated_Source\PSoC4/Input_Capsense_Structure.c ****         Input_Capsense_SW111_FINGER_CAP,
 650:Generated_Source\PSoC4/Input_Capsense_Structure.c ****         Input_Capsense_SW111_SIGPFC,
 651:Generated_Source\PSoC4/Input_Capsense_Structure.c ****     },
 652:Generated_Source\PSoC4/Input_Capsense_Structure.c ****     { /* sw112 */
 653:Generated_Source\PSoC4/Input_Capsense_Structure.c ****         Input_Capsense_SW112_RESOLUTION,
 654:Generated_Source\PSoC4/Input_Capsense_Structure.c ****         Input_Capsense_SW112_FINGER_TH,
 655:Generated_Source\PSoC4/Input_Capsense_Structure.c ****         Input_Capsense_SW112_NOISE_TH,
 656:Generated_Source\PSoC4/Input_Capsense_Structure.c ****         Input_Capsense_SW112_NNOISE_TH,
 657:Generated_Source\PSoC4/Input_Capsense_Structure.c ****         Input_Capsense_SW112_HYSTERESIS,
 658:Generated_Source\PSoC4/Input_Capsense_Structure.c ****         Input_Capsense_SW112_ON_DEBOUNCE,
ARM GAS  C:\Users\doita\AppData\Local\Temp\ccsDJsU6.s 			page 13


 659:Generated_Source\PSoC4/Input_Capsense_Structure.c ****         Input_Capsense_SW112_LOW_BSLN_RST,
 660:Generated_Source\PSoC4/Input_Capsense_Structure.c ****         {
 661:Generated_Source\PSoC4/Input_Capsense_Structure.c ****             Input_Capsense_SW112_IDAC_MOD0,
 662:Generated_Source\PSoC4/Input_Capsense_Structure.c ****         },
 663:Generated_Source\PSoC4/Input_Capsense_Structure.c ****         Input_Capsense_SW112_IDAC_GAIN_INDEX,
 664:Generated_Source\PSoC4/Input_Capsense_Structure.c ****         Input_Capsense_SW112_SNS_CLK,
 665:Generated_Source\PSoC4/Input_Capsense_Structure.c ****         Input_Capsense_SW112_SNS_CLK_SOURCE,
 666:Generated_Source\PSoC4/Input_Capsense_Structure.c ****         Input_Capsense_SW112_FINGER_CAP,
 667:Generated_Source\PSoC4/Input_Capsense_Structure.c ****         Input_Capsense_SW112_SIGPFC,
 668:Generated_Source\PSoC4/Input_Capsense_Structure.c ****     },
 669:Generated_Source\PSoC4/Input_Capsense_Structure.c **** };
 670:Generated_Source\PSoC4/Input_Capsense_Structure.c **** 
 671:Generated_Source\PSoC4/Input_Capsense_Structure.c **** 
 672:Generated_Source\PSoC4/Input_Capsense_Structure.c **** /* IDAC Initialization Data */
 673:Generated_Source\PSoC4/Input_Capsense_Structure.c **** const uint8 Input_Capsense_ramIdacInit[Input_Capsense_TOTAL_SENSORS] =
 674:Generated_Source\PSoC4/Input_Capsense_Structure.c **** {
 675:Generated_Source\PSoC4/Input_Capsense_Structure.c ****     /* sw100 */
 676:Generated_Source\PSoC4/Input_Capsense_Structure.c ****     Input_Capsense_SW100_SNS0_IDAC_COMP0,
 677:Generated_Source\PSoC4/Input_Capsense_Structure.c **** 
 678:Generated_Source\PSoC4/Input_Capsense_Structure.c ****     /* sw101 */
 679:Generated_Source\PSoC4/Input_Capsense_Structure.c ****     Input_Capsense_SW101_SNS0_IDAC_COMP0,
 680:Generated_Source\PSoC4/Input_Capsense_Structure.c **** 
 681:Generated_Source\PSoC4/Input_Capsense_Structure.c ****     /* sw102 */
 682:Generated_Source\PSoC4/Input_Capsense_Structure.c ****     Input_Capsense_SW102_SNS0_IDAC_COMP0,
 683:Generated_Source\PSoC4/Input_Capsense_Structure.c **** 
 684:Generated_Source\PSoC4/Input_Capsense_Structure.c ****     /* sw103 */
 685:Generated_Source\PSoC4/Input_Capsense_Structure.c ****     Input_Capsense_SW103_SNS0_IDAC_COMP0,
 686:Generated_Source\PSoC4/Input_Capsense_Structure.c **** 
 687:Generated_Source\PSoC4/Input_Capsense_Structure.c ****     /* sw104 */
 688:Generated_Source\PSoC4/Input_Capsense_Structure.c ****     Input_Capsense_SW104_SNS0_IDAC_COMP0,
 689:Generated_Source\PSoC4/Input_Capsense_Structure.c **** 
 690:Generated_Source\PSoC4/Input_Capsense_Structure.c ****     /* sw105 */
 691:Generated_Source\PSoC4/Input_Capsense_Structure.c ****     Input_Capsense_SW105_SNS0_IDAC_COMP0,
 692:Generated_Source\PSoC4/Input_Capsense_Structure.c **** 
 693:Generated_Source\PSoC4/Input_Capsense_Structure.c ****     /* sw106 */
 694:Generated_Source\PSoC4/Input_Capsense_Structure.c ****     Input_Capsense_SW106_SNS0_IDAC_COMP0,
 695:Generated_Source\PSoC4/Input_Capsense_Structure.c **** 
 696:Generated_Source\PSoC4/Input_Capsense_Structure.c ****     /* sw107 */
 697:Generated_Source\PSoC4/Input_Capsense_Structure.c ****     Input_Capsense_SW107_SNS0_IDAC_COMP0,
 698:Generated_Source\PSoC4/Input_Capsense_Structure.c **** 
 699:Generated_Source\PSoC4/Input_Capsense_Structure.c ****     /* sw108 */
 700:Generated_Source\PSoC4/Input_Capsense_Structure.c ****     Input_Capsense_SW108_SNS0_IDAC_COMP0,
 701:Generated_Source\PSoC4/Input_Capsense_Structure.c **** 
 702:Generated_Source\PSoC4/Input_Capsense_Structure.c ****     /* sw109 */
 703:Generated_Source\PSoC4/Input_Capsense_Structure.c ****     Input_Capsense_SW109_SNS0_IDAC_COMP0,
 704:Generated_Source\PSoC4/Input_Capsense_Structure.c **** 
 705:Generated_Source\PSoC4/Input_Capsense_Structure.c ****     /* sw110 */
 706:Generated_Source\PSoC4/Input_Capsense_Structure.c ****     Input_Capsense_SW110_SNS0_IDAC_COMP0,
 707:Generated_Source\PSoC4/Input_Capsense_Structure.c **** 
 708:Generated_Source\PSoC4/Input_Capsense_Structure.c ****     /* sw111 */
 709:Generated_Source\PSoC4/Input_Capsense_Structure.c ****     Input_Capsense_SW111_SNS0_IDAC_COMP0,
 710:Generated_Source\PSoC4/Input_Capsense_Structure.c **** 
 711:Generated_Source\PSoC4/Input_Capsense_Structure.c ****     /* sw112 */
 712:Generated_Source\PSoC4/Input_Capsense_Structure.c ****     Input_Capsense_SW112_SNS0_IDAC_COMP0,
 713:Generated_Source\PSoC4/Input_Capsense_Structure.c **** };
 714:Generated_Source\PSoC4/Input_Capsense_Structure.c **** 
 715:Generated_Source\PSoC4/Input_Capsense_Structure.c **** 
ARM GAS  C:\Users\doita\AppData\Local\Temp\ccsDJsU6.s 			page 14


 716:Generated_Source\PSoC4/Input_Capsense_Structure.c **** 
 717:Generated_Source\PSoC4/Input_Capsense_Structure.c **** 
 718:Generated_Source\PSoC4/Input_Capsense_Structure.c **** 
 719:Generated_Source\PSoC4/Input_Capsense_Structure.c **** /*******************************************************************************
 720:Generated_Source\PSoC4/Input_Capsense_Structure.c **** * Defines internal data types and statements
 721:Generated_Source\PSoC4/Input_Capsense_Structure.c **** *******************************************************************************/
 722:Generated_Source\PSoC4/Input_Capsense_Structure.c **** #define PARAM_TYPE_OFFSET       (30u)
 723:Generated_Source\PSoC4/Input_Capsense_Structure.c **** #define PARAM_TYPE_MASK         (3Lu << PARAM_TYPE_OFFSET)
 724:Generated_Source\PSoC4/Input_Capsense_Structure.c **** #define PARAM_RWBIT_OFFSET      (29u)
 725:Generated_Source\PSoC4/Input_Capsense_Structure.c **** #define PARAM_RWBIT_MASK        (1Lu << PARAM_RWBIT_OFFSET)
 726:Generated_Source\PSoC4/Input_Capsense_Structure.c **** #define PARAM_FBIT_OFFSET       (28u)
 727:Generated_Source\PSoC4/Input_Capsense_Structure.c **** #define PARAM_FBIT_MASK         (1Lu << PARAM_FBIT_OFFSET)
 728:Generated_Source\PSoC4/Input_Capsense_Structure.c **** #define PARAM_UBIT_OFFSET       (23u)
 729:Generated_Source\PSoC4/Input_Capsense_Structure.c **** #define PARAM_UBIT_MASK         (1Lu << PARAM_UBIT_OFFSET)
 730:Generated_Source\PSoC4/Input_Capsense_Structure.c **** #define PARAM_WDID_OFFSET       (16u)
 731:Generated_Source\PSoC4/Input_Capsense_Structure.c **** #define PARAM_WDID_MASK         (0x7FLu << PARAM_WDID_OFFSET)
 732:Generated_Source\PSoC4/Input_Capsense_Structure.c **** #define PARAM_CRC_OFFSET        (24u)
 733:Generated_Source\PSoC4/Input_Capsense_Structure.c **** #define PARAM_CRC_MASK          (0x0FLu << PARAM_CRC_OFFSET)
 734:Generated_Source\PSoC4/Input_Capsense_Structure.c **** 
 735:Generated_Source\PSoC4/Input_Capsense_Structure.c **** /* Defines align masks for uint16 and uint32 */
 736:Generated_Source\PSoC4/Input_Capsense_Structure.c **** #define UINT16_ALIGN_MASK       (1Lu)
 737:Generated_Source\PSoC4/Input_Capsense_Structure.c **** #define UINT32_ALIGN_MASK       (3Lu)
 738:Generated_Source\PSoC4/Input_Capsense_Structure.c **** 
 739:Generated_Source\PSoC4/Input_Capsense_Structure.c **** /* Defines supported parameter types */
 740:Generated_Source\PSoC4/Input_Capsense_Structure.c **** #define DS_PARAM_TYPE_UINT8     (0x01u)
 741:Generated_Source\PSoC4/Input_Capsense_Structure.c **** #define DS_PARAM_TYPE_UINT16    (0x02u)
 742:Generated_Source\PSoC4/Input_Capsense_Structure.c **** #define DS_PARAM_TYPE_UINT32    (0x03u)
 743:Generated_Source\PSoC4/Input_Capsense_Structure.c **** 
 744:Generated_Source\PSoC4/Input_Capsense_Structure.c **** 
 745:Generated_Source\PSoC4/Input_Capsense_Structure.c **** /* Defines PARAM_ID structure */
 746:Generated_Source\PSoC4/Input_Capsense_Structure.c **** typedef struct
 747:Generated_Source\PSoC4/Input_Capsense_Structure.c **** {
 748:Generated_Source\PSoC4/Input_Capsense_Structure.c ****     uint16 offset;      /* parameter offset */
 749:Generated_Source\PSoC4/Input_Capsense_Structure.c ****     uint8  widgetId;    /* widget Id parameter belongs to */
 750:Generated_Source\PSoC4/Input_Capsense_Structure.c ****     uint8  affectsCrc;  /* parameter affects widget CRC */
 751:Generated_Source\PSoC4/Input_Capsense_Structure.c ****     uint8  crc;         /* parameter CRC */
 752:Generated_Source\PSoC4/Input_Capsense_Structure.c ****     uint8  flash;       /* parameter located in FLASH flag */
 753:Generated_Source\PSoC4/Input_Capsense_Structure.c ****     uint8  rw;          /* parameter is read/write flag */
 754:Generated_Source\PSoC4/Input_Capsense_Structure.c ****     uint8  type;        /* parameter type: uint8/uint16/uint32 */
 755:Generated_Source\PSoC4/Input_Capsense_Structure.c **** } PARAM_ID_STRUCT;
 756:Generated_Source\PSoC4/Input_Capsense_Structure.c **** 
 757:Generated_Source\PSoC4/Input_Capsense_Structure.c **** 
 758:Generated_Source\PSoC4/Input_Capsense_Structure.c **** /*******************************************************************************
 759:Generated_Source\PSoC4/Input_Capsense_Structure.c **** * Static Function Prototypes
 760:Generated_Source\PSoC4/Input_Capsense_Structure.c **** *******************************************************************************/
 761:Generated_Source\PSoC4/Input_Capsense_Structure.c **** /**
 762:Generated_Source\PSoC4/Input_Capsense_Structure.c **** * \cond SECTION_C_INTERNAL
 763:Generated_Source\PSoC4/Input_Capsense_Structure.c **** * \addtogroup group_c_internal
 764:Generated_Source\PSoC4/Input_Capsense_Structure.c **** * \{
 765:Generated_Source\PSoC4/Input_Capsense_Structure.c **** */
 766:Generated_Source\PSoC4/Input_Capsense_Structure.c **** 
 767:Generated_Source\PSoC4/Input_Capsense_Structure.c **** 
 768:Generated_Source\PSoC4/Input_Capsense_Structure.c **** 
 769:Generated_Source\PSoC4/Input_Capsense_Structure.c **** static cystatus DsParseParamId(uint32 paramId, PARAM_ID_STRUCT *pData);
 770:Generated_Source\PSoC4/Input_Capsense_Structure.c **** 
 771:Generated_Source\PSoC4/Input_Capsense_Structure.c **** /** \}
 772:Generated_Source\PSoC4/Input_Capsense_Structure.c **** * \endcond */
ARM GAS  C:\Users\doita\AppData\Local\Temp\ccsDJsU6.s 			page 15


 773:Generated_Source\PSoC4/Input_Capsense_Structure.c **** 
 774:Generated_Source\PSoC4/Input_Capsense_Structure.c **** 
 775:Generated_Source\PSoC4/Input_Capsense_Structure.c **** /*******************************************************************************
 776:Generated_Source\PSoC4/Input_Capsense_Structure.c **** * Function Name: Input_Capsense_DsInitialize
 777:Generated_Source\PSoC4/Input_Capsense_Structure.c **** ****************************************************************************//**
 778:Generated_Source\PSoC4/Input_Capsense_Structure.c **** *
 779:Generated_Source\PSoC4/Input_Capsense_Structure.c **** * \brief
 780:Generated_Source\PSoC4/Input_Capsense_Structure.c **** *   This function initializes the Data Structure storage.
 781:Generated_Source\PSoC4/Input_Capsense_Structure.c **** *
 782:Generated_Source\PSoC4/Input_Capsense_Structure.c **** * \details
 783:Generated_Source\PSoC4/Input_Capsense_Structure.c **** *   This function copies the default widget configuration parameters
 784:Generated_Source\PSoC4/Input_Capsense_Structure.c **** *   from the Flash storage into the RAM Data Structure.
 785:Generated_Source\PSoC4/Input_Capsense_Structure.c **** *
 786:Generated_Source\PSoC4/Input_Capsense_Structure.c **** *******************************************************************************/
 787:Generated_Source\PSoC4/Input_Capsense_Structure.c **** void Input_Capsense_DsInitialize(void)
 788:Generated_Source\PSoC4/Input_Capsense_Structure.c **** {
 789:Generated_Source\PSoC4/Input_Capsense_Structure.c ****     #if ((Input_Capsense_ENABLE == Input_Capsense_CSX_EN) || \
 790:Generated_Source\PSoC4/Input_Capsense_Structure.c ****          (Input_Capsense_ENABLE == Input_Capsense_CSD_IDAC_COMP_EN) || \
 791:Generated_Source\PSoC4/Input_Capsense_Structure.c ****         ((Input_Capsense_ENABLE == Input_Capsense_CSX_EN) && \
 792:Generated_Source\PSoC4/Input_Capsense_Structure.c ****          (Input_Capsense_ENABLE == Input_Capsense_CSX_SKIP_OVSMPL_SPECIFIC_NODES)))
 793:Generated_Source\PSoC4/Input_Capsense_Structure.c ****         uint32 snsId;
 794:Generated_Source\PSoC4/Input_Capsense_Structure.c ****         uint32 wdgtId;
 795:Generated_Source\PSoC4/Input_Capsense_Structure.c ****         Input_Capsense_RAM_SNS_STRUCT * ptrSnsTmp;
 796:Generated_Source\PSoC4/Input_Capsense_Structure.c ****         Input_Capsense_FLASH_WD_STRUCT const * ptrFlashWdgt;
 797:Generated_Source\PSoC4/Input_Capsense_Structure.c ****     #endif
 798:Generated_Source\PSoC4/Input_Capsense_Structure.c **** 
 799:Generated_Source\PSoC4/Input_Capsense_Structure.c ****     #if ((Input_Capsense_ENABLE == Input_Capsense_CSX_EN) && \
 800:Generated_Source\PSoC4/Input_Capsense_Structure.c ****          (Input_Capsense_ENABLE == Input_Capsense_CSX_SKIP_OVSMPL_SPECIFIC_NODES))
 801:Generated_Source\PSoC4/Input_Capsense_Structure.c ****         uint16 subConvNumber;
 802:Generated_Source\PSoC4/Input_Capsense_Structure.c ****     #endif
 803:Generated_Source\PSoC4/Input_Capsense_Structure.c **** 
 804:Generated_Source\PSoC4/Input_Capsense_Structure.c ****     #if ((0u != Input_Capsense_CSX_EN) || (0 != Input_Capsense_CSD_IDAC_COMP_EN))
 805:Generated_Source\PSoC4/Input_Capsense_Structure.c ****         uint8 const * ptrIdacInit = Input_Capsense_ramIdacInit;
 806:Generated_Source\PSoC4/Input_Capsense_Structure.c ****     #endif
 807:Generated_Source\PSoC4/Input_Capsense_Structure.c **** 
 808:Generated_Source\PSoC4/Input_Capsense_Structure.c ****     /* Reset RAM data structure content */
 809:Generated_Source\PSoC4/Input_Capsense_Structure.c ****     (void)memset(&Input_Capsense_dsRam, 0, sizeof(Input_Capsense_dsRam));
 810:Generated_Source\PSoC4/Input_Capsense_Structure.c **** 
 811:Generated_Source\PSoC4/Input_Capsense_Structure.c ****     /* Initialize configId, deviceId and hwClock registers */
 812:Generated_Source\PSoC4/Input_Capsense_Structure.c ****     Input_Capsense_dsRam.configId = Input_Capsense_CONFIG_ID;
 813:Generated_Source\PSoC4/Input_Capsense_Structure.c ****     Input_Capsense_dsRam.deviceId = Input_Capsense_DEVICE_ID;
 814:Generated_Source\PSoC4/Input_Capsense_Structure.c ****     Input_Capsense_dsRam.hwClock = Input_Capsense_HW_CLOCK;
 815:Generated_Source\PSoC4/Input_Capsense_Structure.c **** 
 816:Generated_Source\PSoC4/Input_Capsense_Structure.c ****     /* Initialize global RAM data */
 817:Generated_Source\PSoC4/Input_Capsense_Structure.c ****     Input_Capsense_dsRam.csd0Config = Input_Capsense_CSD0_CONFIG;
 818:Generated_Source\PSoC4/Input_Capsense_Structure.c **** 
 819:Generated_Source\PSoC4/Input_Capsense_Structure.c ****     Input_Capsense_dsRam.scanCurrentISC = Input_Capsense_SNS_CONNECTION_UNDEFINED;
 820:Generated_Source\PSoC4/Input_Capsense_Structure.c ****     #if (0u != Input_Capsense_TOTAL_CSD_WIDGETS)
 821:Generated_Source\PSoC4/Input_Capsense_Structure.c ****         Input_Capsense_dsRam.modCsdClk = Input_Capsense_CSD_SCANSPEED_DIVIDER;
 822:Generated_Source\PSoC4/Input_Capsense_Structure.c ****         Input_Capsense_dsRam.scanCsdISC = Input_Capsense_CSD_INACTIVE_SNS_CONNECTION;
 823:Generated_Source\PSoC4/Input_Capsense_Structure.c **** 
 824:Generated_Source\PSoC4/Input_Capsense_Structure.c ****         #if (0u != Input_Capsense_CSD_COMMON_SNS_CLK_EN)
 825:Generated_Source\PSoC4/Input_Capsense_Structure.c ****             Input_Capsense_dsRam.snsCsdClk = Input_Capsense_CSD_SNS_CLK_DIVIDER;
 826:Generated_Source\PSoC4/Input_Capsense_Structure.c ****         #endif /* #if (0u != Input_Capsense_CSD_COMMON_SNS_CLK_EN) */
 827:Generated_Source\PSoC4/Input_Capsense_Structure.c ****     #endif /* #if (0u != Input_Capsense_TOTAL_CSD_WIDGETS) */
 828:Generated_Source\PSoC4/Input_Capsense_Structure.c **** 
 829:Generated_Source\PSoC4/Input_Capsense_Structure.c ****     #if (Input_Capsense_ENABLE == Input_Capsense_CSX_EN)
ARM GAS  C:\Users\doita\AppData\Local\Temp\ccsDJsU6.s 			page 16


 830:Generated_Source\PSoC4/Input_Capsense_Structure.c ****         Input_Capsense_dsRam.modCsxClk = Input_Capsense_CSX_SCANSPEED_DIVIDER;
 831:Generated_Source\PSoC4/Input_Capsense_Structure.c ****         Input_Capsense_dsRam.scanCsxISC = Input_Capsense_CSX_INACTIVE_SNS_CONNECTION;
 832:Generated_Source\PSoC4/Input_Capsense_Structure.c **** 
 833:Generated_Source\PSoC4/Input_Capsense_Structure.c ****         #if (0u != Input_Capsense_CSX_COMMON_TX_CLK_EN)
 834:Generated_Source\PSoC4/Input_Capsense_Structure.c ****             Input_Capsense_dsRam.snsCsxClk = Input_Capsense_CSX_TX_CLK_DIVIDER;
 835:Generated_Source\PSoC4/Input_Capsense_Structure.c ****         #endif /* #if (0u != Input_Capsense_CSX_COMMON_TX_CLK_EN) */
 836:Generated_Source\PSoC4/Input_Capsense_Structure.c ****     #endif /* #if (Input_Capsense_ENABLE == Input_Capsense_CSX_EN) */
 837:Generated_Source\PSoC4/Input_Capsense_Structure.c **** 
 838:Generated_Source\PSoC4/Input_Capsense_Structure.c ****     #if (Input_Capsense_ENABLE == Input_Capsense_ISX_EN)
 839:Generated_Source\PSoC4/Input_Capsense_Structure.c ****         Input_Capsense_dsRam.modIsxClk = Input_Capsense_ISX_SCANSPEED_DIVIDER;
 840:Generated_Source\PSoC4/Input_Capsense_Structure.c ****     #endif /* #if (0u != Input_Capsense_ISX_EN) */
 841:Generated_Source\PSoC4/Input_Capsense_Structure.c **** 
 842:Generated_Source\PSoC4/Input_Capsense_Structure.c ****     #if (0u != Input_Capsense_SELF_TEST_EN)
 843:Generated_Source\PSoC4/Input_Capsense_Structure.c **** 
 844:Generated_Source\PSoC4/Input_Capsense_Structure.c ****         Input_Capsense_dsRam.glbCrc = Input_Capsense_GLB_CRC;
 845:Generated_Source\PSoC4/Input_Capsense_Structure.c ****         Input_Capsense_dsRam.selfTestConfig.fineInitTime = (uint8)Input_Capsense_TST_FINE_INIT_TIME
 846:Generated_Source\PSoC4/Input_Capsense_Structure.c ****         Input_Capsense_dsRam.selfTestConfig.startupDelay = Input_Capsense_TST_ANALOG_STARTUP_DELAY_
 847:Generated_Source\PSoC4/Input_Capsense_Structure.c **** 
 848:Generated_Source\PSoC4/Input_Capsense_Structure.c ****         #if (0u != Input_Capsense_TST_SNS_SHORT_EN)
 849:Generated_Source\PSoC4/Input_Capsense_Structure.c ****             Input_Capsense_dsRam.selfTestConfig.snsShortTimeUs = Input_Capsense_TST_SNS_SHORT_TIME;
 850:Generated_Source\PSoC4/Input_Capsense_Structure.c ****         #endif
 851:Generated_Source\PSoC4/Input_Capsense_Structure.c **** 
 852:Generated_Source\PSoC4/Input_Capsense_Structure.c ****         #if ((0u != Input_Capsense_TST_SNS_CAP_EN) ||\
 853:Generated_Source\PSoC4/Input_Capsense_Structure.c ****              (0u != Input_Capsense_TST_SH_CAP_EN))
 854:Generated_Source\PSoC4/Input_Capsense_Structure.c ****             Input_Capsense_dsRam.selfTestConfig.snsCapSnsClkDivider = Input_Capsense_TST_SNS_CAP_SN
 855:Generated_Source\PSoC4/Input_Capsense_Structure.c ****             Input_Capsense_dsRam.selfTestConfig.snsCapSnsClkHz = Input_Capsense_TST_SNS_CAP_SNS_CLK
 856:Generated_Source\PSoC4/Input_Capsense_Structure.c ****             Input_Capsense_dsRam.selfTestConfig.snsCapResolution = Input_Capsense_TST_SNS_CAP_RESOL
 857:Generated_Source\PSoC4/Input_Capsense_Structure.c ****             Input_Capsense_dsRam.selfTestConfig.snsCapVrefGain = Input_Capsense_TST_SNS_CAP_VREF_GA
 858:Generated_Source\PSoC4/Input_Capsense_Structure.c ****             Input_Capsense_dsRam.selfTestConfig.snsCapVrefVoltage = Input_Capsense_TST_SNS_CAP_VREF
 859:Generated_Source\PSoC4/Input_Capsense_Structure.c ****             Input_Capsense_dsRam.selfTestConfig.snsCapModClkDivider = Input_Capsense_TST_MOD_CLK_DI
 860:Generated_Source\PSoC4/Input_Capsense_Structure.c ****             Input_Capsense_dsRam.selfTestConfig.snsCapModClkKHz = Input_Capsense_TST_MOD_CLK_KHZ ;
 861:Generated_Source\PSoC4/Input_Capsense_Structure.c ****         #endif /* ((0u != Input_Capsense_TST_SNS_CAP_EN) ||
 862:Generated_Source\PSoC4/Input_Capsense_Structure.c ****                    (0u != Input_Capsense_TST_SH_CAP_EN)) */
 863:Generated_Source\PSoC4/Input_Capsense_Structure.c **** 
 864:Generated_Source\PSoC4/Input_Capsense_Structure.c ****         #if (0u != Input_Capsense_TST_SNS_CAP_EN)
 865:Generated_Source\PSoC4/Input_Capsense_Structure.c ****             #if (0u != Input_Capsense_CSD_EN)
 866:Generated_Source\PSoC4/Input_Capsense_Structure.c ****                 Input_Capsense_dsRam.selfTestConfig.bistCsdSnsCapISC = Input_Capsense_SNS_CAP_CSD_I
 867:Generated_Source\PSoC4/Input_Capsense_Structure.c ****             #endif /* (0u != Input_Capsense_CSD_EN) */
 868:Generated_Source\PSoC4/Input_Capsense_Structure.c ****             #if (0u != Input_Capsense_CSX_EN)
 869:Generated_Source\PSoC4/Input_Capsense_Structure.c ****                 Input_Capsense_dsRam.selfTestConfig.bistCsxSnsCapISC = Input_Capsense_SNS_CAP_CSX_I
 870:Generated_Source\PSoC4/Input_Capsense_Structure.c ****             #endif /* (0u != Input_Capsense_CSX_EN) */
 871:Generated_Source\PSoC4/Input_Capsense_Structure.c ****         #endif /* (0u != Input_Capsense_TST_SNS_CAP_EN) */
 872:Generated_Source\PSoC4/Input_Capsense_Structure.c **** 
 873:Generated_Source\PSoC4/Input_Capsense_Structure.c ****         #if (0u != Input_Capsense_TST_SH_CAP_EN)
 874:Generated_Source\PSoC4/Input_Capsense_Structure.c ****             #if ((0u != Input_Capsense_CSD_EN) && (0u != Input_Capsense_CSD_SHIELD_EN))
 875:Generated_Source\PSoC4/Input_Capsense_Structure.c ****                 Input_Capsense_dsRam.selfTestConfig.bistCsdShCapISC = Input_Capsense_SHIELD_CAP_INA
 876:Generated_Source\PSoC4/Input_Capsense_Structure.c ****             #endif /* ((0u != Input_Capsense_CSD_EN) && (0u != Input_Capsense_CSD_SHIELD_EN)) */
 877:Generated_Source\PSoC4/Input_Capsense_Structure.c ****         #endif /* (0u != Input_Capsense_TST_SH_CAP_EN) */
 878:Generated_Source\PSoC4/Input_Capsense_Structure.c **** 
 879:Generated_Source\PSoC4/Input_Capsense_Structure.c ****         #if (0u != Input_Capsense_TST_EXTERNAL_CAP_EN)
 880:Generated_Source\PSoC4/Input_Capsense_Structure.c ****             Input_Capsense_dsRam.selfTestConfig.extCapVrefGain = Input_Capsense_TST_EXT_CAP_VREF_GA
 881:Generated_Source\PSoC4/Input_Capsense_Structure.c ****             Input_Capsense_dsRam.selfTestConfig.extCapVrefVoltage = Input_Capsense_TST_EXT_CAP_VREF
 882:Generated_Source\PSoC4/Input_Capsense_Structure.c ****         #endif /* #if (0u != Input_Capsense_TST_EXTERNAL_CAP_EN) */
 883:Generated_Source\PSoC4/Input_Capsense_Structure.c **** 
 884:Generated_Source\PSoC4/Input_Capsense_Structure.c ****         #if (0u != Input_Capsense_TST_VDDA_EN)
 885:Generated_Source\PSoC4/Input_Capsense_Structure.c ****             Input_Capsense_dsRam.selfTestConfig.vddaResolution = Input_Capsense_TST_VDDA_RESOLUTION
 886:Generated_Source\PSoC4/Input_Capsense_Structure.c ****             Input_Capsense_dsRam.selfTestConfig.vddaModClkDivider = Input_Capsense_TST_VDDA_MOD_CLK
ARM GAS  C:\Users\doita\AppData\Local\Temp\ccsDJsU6.s 			page 17


 887:Generated_Source\PSoC4/Input_Capsense_Structure.c **** 
 888:Generated_Source\PSoC4/Input_Capsense_Structure.c ****             Input_Capsense_dsRam.selfTestConfig.vddaVrefGain = Input_Capsense_TST_VDDA_VREF_GAIN;
 889:Generated_Source\PSoC4/Input_Capsense_Structure.c ****             Input_Capsense_dsRam.selfTestConfig.vddaVrefVoltage = Input_Capsense_TST_VDDA_VREF_MV;
 890:Generated_Source\PSoC4/Input_Capsense_Structure.c ****         #endif /* #if (0u != Input_Capsense_TST_VDDA_EN) */
 891:Generated_Source\PSoC4/Input_Capsense_Structure.c **** 
 892:Generated_Source\PSoC4/Input_Capsense_Structure.c ****     #endif /* #if (0u != Input_Capsense_SELF_TEST_EN) */
 893:Generated_Source\PSoC4/Input_Capsense_Structure.c **** 
 894:Generated_Source\PSoC4/Input_Capsense_Structure.c ****     /* Initialize RAM widget data */
 895:Generated_Source\PSoC4/Input_Capsense_Structure.c ****     Input_Capsense_dsRam.wdgtList = Input_Capsense_ramWidgetInit;
 896:Generated_Source\PSoC4/Input_Capsense_Structure.c **** 
 897:Generated_Source\PSoC4/Input_Capsense_Structure.c ****     /* Initialize Gesture configuration structure */
 898:Generated_Source\PSoC4/Input_Capsense_Structure.c ****     #if ((0u != Input_Capsense_GES_GLOBAL_EN) || (0u != Input_Capsense_BALLISTIC_MULTIPLIER_EN))
 899:Generated_Source\PSoC4/Input_Capsense_Structure.c ****         Input_Capsense_dsRam.timestampInterval = Input_Capsense_TIMESTAMP_INTERVAL;
 900:Generated_Source\PSoC4/Input_Capsense_Structure.c ****     #endif /* ((0u != Input_Capsense_GES_GLOBAL_EN) || (0u != Input_Capsense_BALLISTIC_MULTIPLIER_E
 901:Generated_Source\PSoC4/Input_Capsense_Structure.c **** 
 902:Generated_Source\PSoC4/Input_Capsense_Structure.c ****     #if (0u != Input_Capsense_GES_GLOBAL_EN)
 903:Generated_Source\PSoC4/Input_Capsense_Structure.c ****         Input_Capsense_dsRam.gestures = Input_Capsense_ramGesturesInit;
 904:Generated_Source\PSoC4/Input_Capsense_Structure.c ****     #endif /* (0u != Input_Capsense_GES_GLOBAL_EN) */
 905:Generated_Source\PSoC4/Input_Capsense_Structure.c **** 
 906:Generated_Source\PSoC4/Input_Capsense_Structure.c ****     #if (0u != Input_Capsense_BALLISTIC_MULTIPLIER_EN)
 907:Generated_Source\PSoC4/Input_Capsense_Structure.c ****         Input_Capsense_dsRam.ballisticConfig = Input_Capsense_ramBallisticInit;
 908:Generated_Source\PSoC4/Input_Capsense_Structure.c ****     #endif /* (0u != Input_Capsense_BALLISTIC_MULTIPLIER_EN) */
 909:Generated_Source\PSoC4/Input_Capsense_Structure.c **** 
 910:Generated_Source\PSoC4/Input_Capsense_Structure.c ****     #if (0u != Input_Capsense_CSX_EN) || (0 != Input_Capsense_CSD_IDAC_COMP_EN)
 911:Generated_Source\PSoC4/Input_Capsense_Structure.c ****         /* Initialize IDAC data */
 912:Generated_Source\PSoC4/Input_Capsense_Structure.c ****         ptrFlashWdgt = Input_Capsense_dsFlash.wdgtArray;
 913:Generated_Source\PSoC4/Input_Capsense_Structure.c **** 
 914:Generated_Source\PSoC4/Input_Capsense_Structure.c ****         for (wdgtId = Input_Capsense_TOTAL_WIDGETS; wdgtId-- > 0u; )
 915:Generated_Source\PSoC4/Input_Capsense_Structure.c ****         {
 916:Generated_Source\PSoC4/Input_Capsense_Structure.c ****             ptrSnsTmp = ptrFlashWdgt->ptr2SnsRam;
 917:Generated_Source\PSoC4/Input_Capsense_Structure.c **** 
 918:Generated_Source\PSoC4/Input_Capsense_Structure.c ****             for (snsId = Input_Capsense_GET_SNS_CNT_BY_PTR(ptrFlashWdgt); snsId-- > 0u;)
 919:Generated_Source\PSoC4/Input_Capsense_Structure.c ****             {
 920:Generated_Source\PSoC4/Input_Capsense_Structure.c ****                 ptrSnsTmp->idacComp[0u] = *ptrIdacInit;
 921:Generated_Source\PSoC4/Input_Capsense_Structure.c ****                 ptrIdacInit++;
 922:Generated_Source\PSoC4/Input_Capsense_Structure.c **** 
 923:Generated_Source\PSoC4/Input_Capsense_Structure.c ****                 #if (0u != Input_Capsense_MULTI_FREQ_SCAN_EN)
 924:Generated_Source\PSoC4/Input_Capsense_Structure.c ****                     ptrSnsTmp->idacComp[1u] = *ptrIdacInit;
 925:Generated_Source\PSoC4/Input_Capsense_Structure.c ****                     ptrIdacInit++;
 926:Generated_Source\PSoC4/Input_Capsense_Structure.c **** 
 927:Generated_Source\PSoC4/Input_Capsense_Structure.c ****                     ptrSnsTmp->idacComp[2u] = *ptrIdacInit;
 928:Generated_Source\PSoC4/Input_Capsense_Structure.c ****                     ptrIdacInit++;
 929:Generated_Source\PSoC4/Input_Capsense_Structure.c ****                 #endif /* #if (0u != Input_Capsense_MULTI_FREQ_SCAN_EN) */
 930:Generated_Source\PSoC4/Input_Capsense_Structure.c **** 
 931:Generated_Source\PSoC4/Input_Capsense_Structure.c ****                 ptrSnsTmp++;
 932:Generated_Source\PSoC4/Input_Capsense_Structure.c ****             }
 933:Generated_Source\PSoC4/Input_Capsense_Structure.c **** 
 934:Generated_Source\PSoC4/Input_Capsense_Structure.c ****             ptrFlashWdgt++; /* Move to next widget */
 935:Generated_Source\PSoC4/Input_Capsense_Structure.c ****         }
 936:Generated_Source\PSoC4/Input_Capsense_Structure.c ****     #endif /*(0u != Input_Capsense_CSX_EN) || (0 != Input_Capsense_CSD_IDAC_COMP_EN)*/
 937:Generated_Source\PSoC4/Input_Capsense_Structure.c **** 
 938:Generated_Source\PSoC4/Input_Capsense_Structure.c ****     #if ((Input_Capsense_ENABLE == Input_Capsense_CSX_EN) && \
 939:Generated_Source\PSoC4/Input_Capsense_Structure.c ****          (Input_Capsense_ENABLE == Input_Capsense_CSX_SKIP_OVSMPL_SPECIFIC_NODES))
 940:Generated_Source\PSoC4/Input_Capsense_Structure.c ****         /* Initialize Sub-Conversion Number for each node of each CSX widget */
 941:Generated_Source\PSoC4/Input_Capsense_Structure.c ****         ptrFlashWdgt = Input_Capsense_dsFlash.wdgtArray;
 942:Generated_Source\PSoC4/Input_Capsense_Structure.c ****         for (wdgtId = Input_Capsense_TOTAL_WIDGETS; wdgtId-- > 0u;)
 943:Generated_Source\PSoC4/Input_Capsense_Structure.c ****         {
ARM GAS  C:\Users\doita\AppData\Local\Temp\ccsDJsU6.s 			page 18


 944:Generated_Source\PSoC4/Input_Capsense_Structure.c ****             /* Check for widget sense method */
 945:Generated_Source\PSoC4/Input_Capsense_Structure.c ****             if (Input_Capsense_SENSE_METHOD_CSX_E == Input_Capsense_GET_SENSE_METHOD(ptrFlashWdgt))
 946:Generated_Source\PSoC4/Input_Capsense_Structure.c ****             {
 947:Generated_Source\PSoC4/Input_Capsense_Structure.c ****                 /* Take the sub-convesion number of a CSX widget and initialize each node of this w
 948:Generated_Source\PSoC4/Input_Capsense_Structure.c ****                 subConvNumber = ((Input_Capsense_RAM_WD_BASE_STRUCT *)(ptrFlashWdgt->ptr2WdgtRam))-
 949:Generated_Source\PSoC4/Input_Capsense_Structure.c ****                 ptrSnsTmp = ptrFlashWdgt->ptr2SnsRam;
 950:Generated_Source\PSoC4/Input_Capsense_Structure.c ****                 for (snsId = Input_Capsense_GET_SNS_CNT_BY_PTR(ptrFlashWdgt); snsId-- > 0u;)
 951:Generated_Source\PSoC4/Input_Capsense_Structure.c ****                 {
 952:Generated_Source\PSoC4/Input_Capsense_Structure.c ****                     ptrSnsTmp->subConvNum = subConvNumber;
 953:Generated_Source\PSoC4/Input_Capsense_Structure.c ****                     ptrSnsTmp++;
 954:Generated_Source\PSoC4/Input_Capsense_Structure.c ****                 }
 955:Generated_Source\PSoC4/Input_Capsense_Structure.c ****             }
 956:Generated_Source\PSoC4/Input_Capsense_Structure.c ****             /* Move to the next widget */
 957:Generated_Source\PSoC4/Input_Capsense_Structure.c ****             ptrFlashWdgt++;
 958:Generated_Source\PSoC4/Input_Capsense_Structure.c ****         }
 959:Generated_Source\PSoC4/Input_Capsense_Structure.c ****     #endif /* ((Input_Capsense_ENABLE == Input_Capsense_CSX_EN) && \
 960:Generated_Source\PSoC4/Input_Capsense_Structure.c ****                (Input_Capsense_ENABLE == Input_Capsense_CSX_SKIP_OVSMPL_SPECIFIC_NODES)) */
 961:Generated_Source\PSoC4/Input_Capsense_Structure.c **** 
 962:Generated_Source\PSoC4/Input_Capsense_Structure.c ****     #if (0u != Input_Capsense_ADC_EN)
 963:Generated_Source\PSoC4/Input_Capsense_Structure.c ****         Input_Capsense_AdcDsInitialize();
 964:Generated_Source\PSoC4/Input_Capsense_Structure.c ****     #endif /* (0u != Input_Capsense_ADC_EN) */
 965:Generated_Source\PSoC4/Input_Capsense_Structure.c **** }
 966:Generated_Source\PSoC4/Input_Capsense_Structure.c **** 
 967:Generated_Source\PSoC4/Input_Capsense_Structure.c **** 
 968:Generated_Source\PSoC4/Input_Capsense_Structure.c **** #if (0u != Input_Capsense_ADC_EN)
 969:Generated_Source\PSoC4/Input_Capsense_Structure.c ****     /*******************************************************************************
 970:Generated_Source\PSoC4/Input_Capsense_Structure.c ****     * Function Name: Input_Capsense_AdcDsInitialize
 971:Generated_Source\PSoC4/Input_Capsense_Structure.c ****     ****************************************************************************//**
 972:Generated_Source\PSoC4/Input_Capsense_Structure.c ****     *
 973:Generated_Source\PSoC4/Input_Capsense_Structure.c ****     * \brief
 974:Generated_Source\PSoC4/Input_Capsense_Structure.c ****     *   Configures the initial Adc datastructure members.
 975:Generated_Source\PSoC4/Input_Capsense_Structure.c ****     *
 976:Generated_Source\PSoC4/Input_Capsense_Structure.c ****     *******************************************************************************/
 977:Generated_Source\PSoC4/Input_Capsense_Structure.c ****     void Input_Capsense_AdcDsInitialize(void)
 978:Generated_Source\PSoC4/Input_Capsense_Structure.c ****     {
 979:Generated_Source\PSoC4/Input_Capsense_Structure.c ****         Input_Capsense_dsRam.adcResolution = Input_Capsense_ADC_RESOLUTION;
 980:Generated_Source\PSoC4/Input_Capsense_Structure.c ****         Input_Capsense_dsRam.adcIdac = (uint8)(Input_Capsense_ADC_IDAC_DEFAULT);
 981:Generated_Source\PSoC4/Input_Capsense_Structure.c ****         Input_Capsense_dsRam.adcActiveCh = Input_Capsense_AdcNO_CHANNEL;
 982:Generated_Source\PSoC4/Input_Capsense_Structure.c ****     }
 983:Generated_Source\PSoC4/Input_Capsense_Structure.c **** #endif /* (0u != Input_Capsense_ADC_EN) */
 984:Generated_Source\PSoC4/Input_Capsense_Structure.c **** 
 985:Generated_Source\PSoC4/Input_Capsense_Structure.c **** 
 986:Generated_Source\PSoC4/Input_Capsense_Structure.c **** /*******************************************************************************
 987:Generated_Source\PSoC4/Input_Capsense_Structure.c **** * Function Name: DsParseParamId
 988:Generated_Source\PSoC4/Input_Capsense_Structure.c **** ****************************************************************************//**
 989:Generated_Source\PSoC4/Input_Capsense_Structure.c **** *
 990:Generated_Source\PSoC4/Input_Capsense_Structure.c **** * \brief
 991:Generated_Source\PSoC4/Input_Capsense_Structure.c **** *   This function parses the parameter ID and checks its correctness.
 992:Generated_Source\PSoC4/Input_Capsense_Structure.c **** *
 993:Generated_Source\PSoC4/Input_Capsense_Structure.c **** * \details
 994:Generated_Source\PSoC4/Input_Capsense_Structure.c **** *   This function checks the parameter CRC if the self-test is enabled,
 995:Generated_Source\PSoC4/Input_Capsense_Structure.c **** *   validates the offset value and parameter type.
 996:Generated_Source\PSoC4/Input_Capsense_Structure.c **** *
 997:Generated_Source\PSoC4/Input_Capsense_Structure.c **** * \param paramId The parameter to parse.
 998:Generated_Source\PSoC4/Input_Capsense_Structure.c **** * \param pData   The pointer to the structure that will hold parsed data.
 999:Generated_Source\PSoC4/Input_Capsense_Structure.c **** *
1000:Generated_Source\PSoC4/Input_Capsense_Structure.c **** * \return CYRET_SUCCESS     If the parameter is valid
ARM GAS  C:\Users\doita\AppData\Local\Temp\ccsDJsU6.s 			page 19


1001:Generated_Source\PSoC4/Input_Capsense_Structure.c **** *         CYRET_BAD_PARAM   If the parameter is invalid
1002:Generated_Source\PSoC4/Input_Capsense_Structure.c **** *
1003:Generated_Source\PSoC4/Input_Capsense_Structure.c **** *******************************************************************************/
1004:Generated_Source\PSoC4/Input_Capsense_Structure.c **** static cystatus DsParseParamId(uint32 paramId, PARAM_ID_STRUCT *pData)
1005:Generated_Source\PSoC4/Input_Capsense_Structure.c **** {
  27              		.loc 1 1005 0
  28              		.cfi_startproc
  29              		@ args = 0, pretend = 0, frame = 0
  30              		@ frame_needed = 0, uses_anonymous_args = 0
  31              	.LVL0:
  32 0000 70B5     		push	{r4, r5, r6, lr}
  33              		.cfi_def_cfa_offset 16
  34              		.cfi_offset 4, -16
  35              		.cfi_offset 5, -12
  36              		.cfi_offset 6, -8
  37              		.cfi_offset 14, -4
  38              	.LVL1:
1006:Generated_Source\PSoC4/Input_Capsense_Structure.c ****     cystatus result = CYRET_SUCCESS;
1007:Generated_Source\PSoC4/Input_Capsense_Structure.c **** 
1008:Generated_Source\PSoC4/Input_Capsense_Structure.c ****     #if (0u != Input_Capsense_SELF_TEST_EN)
1009:Generated_Source\PSoC4/Input_Capsense_Structure.c ****         const uint8 crcTable[] =
1010:Generated_Source\PSoC4/Input_Capsense_Structure.c ****         {
1011:Generated_Source\PSoC4/Input_Capsense_Structure.c ****             0x00u, 0x09u, 0x0Bu, 0x02u, 0x0Fu, 0x06u, 0x04u, 0x0Du,
1012:Generated_Source\PSoC4/Input_Capsense_Structure.c ****             0x07u, 0x0Eu, 0x0Cu, 0x05u, 0x08u, 0x01u, 0x03u, 0x0Au
1013:Generated_Source\PSoC4/Input_Capsense_Structure.c ****         };
1014:Generated_Source\PSoC4/Input_Capsense_Structure.c **** 
1015:Generated_Source\PSoC4/Input_Capsense_Structure.c ****         uint32 i;
1016:Generated_Source\PSoC4/Input_Capsense_Structure.c ****         uint32 actualCrc = 0u;
1017:Generated_Source\PSoC4/Input_Capsense_Structure.c ****         uint32 crcIndex;
1018:Generated_Source\PSoC4/Input_Capsense_Structure.c ****     #endif /* #if (0u != Input_Capsense_SELF_TEST_EN) */
1019:Generated_Source\PSoC4/Input_Capsense_Structure.c **** 
1020:Generated_Source\PSoC4/Input_Capsense_Structure.c ****     /* Extract parameter data */
1021:Generated_Source\PSoC4/Input_Capsense_Structure.c ****     pData->offset     = LO16(paramId);
  39              		.loc 1 1021 0
  40 0002 85B2     		uxth	r5, r0
  41 0004 0D80     		strh	r5, [r1]
1022:Generated_Source\PSoC4/Input_Capsense_Structure.c ****     pData->affectsCrc = LO8((paramId & PARAM_UBIT_MASK)  >> PARAM_UBIT_OFFSET);
  42              		.loc 1 1022 0
  43 0006 C30D     		lsrs	r3, r0, #23
  44 0008 0124     		movs	r4, #1
  45 000a 2340     		ands	r3, r4
  46 000c CB70     		strb	r3, [r1, #3]
1023:Generated_Source\PSoC4/Input_Capsense_Structure.c ****     pData->widgetId   = LO8((paramId & PARAM_WDID_MASK)  >> PARAM_WDID_OFFSET);
  47              		.loc 1 1023 0
  48 000e 030C     		lsrs	r3, r0, #16
  49 0010 7F22     		movs	r2, #127
  50 0012 1340     		ands	r3, r2
  51 0014 8B70     		strb	r3, [r1, #2]
1024:Generated_Source\PSoC4/Input_Capsense_Structure.c ****     pData->type       = LO8((paramId & PARAM_TYPE_MASK)  >> PARAM_TYPE_OFFSET);
  52              		.loc 1 1024 0
  53 0016 860F     		lsrs	r6, r0, #30
  54 0018 CE71     		strb	r6, [r1, #7]
1025:Generated_Source\PSoC4/Input_Capsense_Structure.c ****     pData->flash      = LO8((paramId & PARAM_FBIT_MASK)  >> PARAM_FBIT_OFFSET);
  55              		.loc 1 1025 0
  56 001a 030F     		lsrs	r3, r0, #28
  57 001c 2340     		ands	r3, r4
  58 001e 4B71     		strb	r3, [r1, #5]
ARM GAS  C:\Users\doita\AppData\Local\Temp\ccsDJsU6.s 			page 20


1026:Generated_Source\PSoC4/Input_Capsense_Structure.c ****     pData->rw         = LO8((paramId & PARAM_RWBIT_MASK) >> PARAM_RWBIT_OFFSET);
  59              		.loc 1 1026 0
  60 0020 420F     		lsrs	r2, r0, #29
  61 0022 2240     		ands	r2, r4
  62 0024 8A71     		strb	r2, [r1, #6]
1027:Generated_Source\PSoC4/Input_Capsense_Structure.c ****     pData->crc        = LO8((paramId & PARAM_CRC_MASK)   >> PARAM_CRC_OFFSET);
  63              		.loc 1 1027 0
  64 0026 000E     		lsrs	r0, r0, #24
  65              	.LVL2:
  66 0028 0E34     		adds	r4, r4, #14
  67 002a 2040     		ands	r0, r4
  68 002c 0871     		strb	r0, [r1, #4]
1028:Generated_Source\PSoC4/Input_Capsense_Structure.c **** 
1029:Generated_Source\PSoC4/Input_Capsense_Structure.c ****     /* Check parameter CRC if self-test is enabled */
1030:Generated_Source\PSoC4/Input_Capsense_Structure.c ****     #if (0u != Input_Capsense_SELF_TEST_EN)
1031:Generated_Source\PSoC4/Input_Capsense_Structure.c **** 
1032:Generated_Source\PSoC4/Input_Capsense_Structure.c ****         /* Calculate CRC for bits 0..24.
1033:Generated_Source\PSoC4/Input_Capsense_Structure.c ****          * The CRC is calculated using nibbles (4-bits).
1034:Generated_Source\PSoC4/Input_Capsense_Structure.c ****          * So for 0..24 bits there are in total 6 nibbles. */
1035:Generated_Source\PSoC4/Input_Capsense_Structure.c ****         for (i = 6u; i > 0u; i--)
1036:Generated_Source\PSoC4/Input_Capsense_Structure.c ****         {
1037:Generated_Source\PSoC4/Input_Capsense_Structure.c ****             crcIndex = actualCrc ^ (paramId & 0x0Fu);
1038:Generated_Source\PSoC4/Input_Capsense_Structure.c ****             actualCrc = crcTable[crcIndex];
1039:Generated_Source\PSoC4/Input_Capsense_Structure.c ****             paramId >>= 4u;
1040:Generated_Source\PSoC4/Input_Capsense_Structure.c ****         }
1041:Generated_Source\PSoC4/Input_Capsense_Structure.c **** 
1042:Generated_Source\PSoC4/Input_Capsense_Structure.c ****         /* Add bits 28..32 */
1043:Generated_Source\PSoC4/Input_Capsense_Structure.c ****         crcIndex = actualCrc ^ ((paramId >> 4u) & 0x0Fu);
1044:Generated_Source\PSoC4/Input_Capsense_Structure.c ****         actualCrc = crcTable[crcIndex];
1045:Generated_Source\PSoC4/Input_Capsense_Structure.c **** 
1046:Generated_Source\PSoC4/Input_Capsense_Structure.c ****         /* Add bits 24..28 (CRC) */
1047:Generated_Source\PSoC4/Input_Capsense_Structure.c ****         crcIndex = actualCrc ^ (paramId & 0x0Fu);
1048:Generated_Source\PSoC4/Input_Capsense_Structure.c ****         actualCrc = crcTable[crcIndex];
1049:Generated_Source\PSoC4/Input_Capsense_Structure.c **** 
1050:Generated_Source\PSoC4/Input_Capsense_Structure.c ****         if (0u != actualCrc)
1051:Generated_Source\PSoC4/Input_Capsense_Structure.c ****         {
1052:Generated_Source\PSoC4/Input_Capsense_Structure.c ****             /* CRC mismatch */
1053:Generated_Source\PSoC4/Input_Capsense_Structure.c ****             result = CYRET_BAD_PARAM;
1054:Generated_Source\PSoC4/Input_Capsense_Structure.c ****         }
1055:Generated_Source\PSoC4/Input_Capsense_Structure.c **** 
1056:Generated_Source\PSoC4/Input_Capsense_Structure.c ****         if ((CYRET_SUCCESS == result) &&
1057:Generated_Source\PSoC4/Input_Capsense_Structure.c ****             (0u != pData->affectsCrc) && (pData->widgetId >= Input_Capsense_TOTAL_WIDGETS ))
1058:Generated_Source\PSoC4/Input_Capsense_Structure.c ****         {
1059:Generated_Source\PSoC4/Input_Capsense_Structure.c ****             /* Wrong widgetId for protected parameter */
1060:Generated_Source\PSoC4/Input_Capsense_Structure.c ****             result = CYRET_BAD_PARAM;
1061:Generated_Source\PSoC4/Input_Capsense_Structure.c ****         }
1062:Generated_Source\PSoC4/Input_Capsense_Structure.c **** 
1063:Generated_Source\PSoC4/Input_Capsense_Structure.c ****         /* Check offset value range */
1064:Generated_Source\PSoC4/Input_Capsense_Structure.c ****         if (CYRET_SUCCESS == result)
1065:Generated_Source\PSoC4/Input_Capsense_Structure.c ****         {
1066:Generated_Source\PSoC4/Input_Capsense_Structure.c ****             if (0u == pData->flash)
1067:Generated_Source\PSoC4/Input_Capsense_Structure.c ****             {
1068:Generated_Source\PSoC4/Input_Capsense_Structure.c ****                 /* Check offset for RAM Data Structure range */
1069:Generated_Source\PSoC4/Input_Capsense_Structure.c ****                 if (pData->offset >= sizeof(Input_Capsense_dsRam))
1070:Generated_Source\PSoC4/Input_Capsense_Structure.c ****                 {
1071:Generated_Source\PSoC4/Input_Capsense_Structure.c ****                     result = CYRET_BAD_PARAM;
1072:Generated_Source\PSoC4/Input_Capsense_Structure.c ****                 }
ARM GAS  C:\Users\doita\AppData\Local\Temp\ccsDJsU6.s 			page 21


1073:Generated_Source\PSoC4/Input_Capsense_Structure.c ****             }
1074:Generated_Source\PSoC4/Input_Capsense_Structure.c ****             else
1075:Generated_Source\PSoC4/Input_Capsense_Structure.c ****             {
1076:Generated_Source\PSoC4/Input_Capsense_Structure.c ****                 /* Check offset for Flash Data Structure range */
1077:Generated_Source\PSoC4/Input_Capsense_Structure.c ****                 if (pData->offset >= sizeof(Input_Capsense_dsFlash))
1078:Generated_Source\PSoC4/Input_Capsense_Structure.c ****                 {
1079:Generated_Source\PSoC4/Input_Capsense_Structure.c ****                     result = CYRET_BAD_PARAM;
1080:Generated_Source\PSoC4/Input_Capsense_Structure.c ****                 }
1081:Generated_Source\PSoC4/Input_Capsense_Structure.c **** 
1082:Generated_Source\PSoC4/Input_Capsense_Structure.c ****                 /* Check if it is marked as Read Only */
1083:Generated_Source\PSoC4/Input_Capsense_Structure.c ****                 if (0u != pData->rw)
1084:Generated_Source\PSoC4/Input_Capsense_Structure.c ****                 {
1085:Generated_Source\PSoC4/Input_Capsense_Structure.c ****                     result = CYRET_BAD_PARAM;
1086:Generated_Source\PSoC4/Input_Capsense_Structure.c ****                 }
1087:Generated_Source\PSoC4/Input_Capsense_Structure.c ****             }
1088:Generated_Source\PSoC4/Input_Capsense_Structure.c ****         }
1089:Generated_Source\PSoC4/Input_Capsense_Structure.c ****     #else /* #if (0u != Input_Capsense_SELF_TEST_EN) */
1090:Generated_Source\PSoC4/Input_Capsense_Structure.c ****         /* Check offset value range */
1091:Generated_Source\PSoC4/Input_Capsense_Structure.c ****         if (0u == pData->flash)
  69              		.loc 1 1091 0
  70 002e 002B     		cmp	r3, #0
  71 0030 05D1     		bne	.L2
1092:Generated_Source\PSoC4/Input_Capsense_Structure.c ****         {
1093:Generated_Source\PSoC4/Input_Capsense_Structure.c ****             /* Check offset for RAM Data Structure range */
1094:Generated_Source\PSoC4/Input_Capsense_Structure.c ****             if (pData->offset >= sizeof(Input_Capsense_dsRam))
  72              		.loc 1 1094 0
  73 0032 B823     		movs	r3, #184
  74 0034 FF33     		adds	r3, r3, #255
  75 0036 9D42     		cmp	r5, r3
  76 0038 0BD8     		bhi	.L9
1006:Generated_Source\PSoC4/Input_Capsense_Structure.c **** 
  77              		.loc 1 1006 0
  78 003a 0020     		movs	r0, #0
  79 003c 0CE0     		b	.L3
  80              	.L2:
1095:Generated_Source\PSoC4/Input_Capsense_Structure.c ****             {
1096:Generated_Source\PSoC4/Input_Capsense_Structure.c ****                 result = CYRET_BAD_PARAM;
1097:Generated_Source\PSoC4/Input_Capsense_Structure.c ****             }
1098:Generated_Source\PSoC4/Input_Capsense_Structure.c ****         }
1099:Generated_Source\PSoC4/Input_Capsense_Structure.c ****         else
1100:Generated_Source\PSoC4/Input_Capsense_Structure.c ****         {
1101:Generated_Source\PSoC4/Input_Capsense_Structure.c ****             /* Check offset for Flash Data Structure range */
1102:Generated_Source\PSoC4/Input_Capsense_Structure.c ****             if (pData->offset >= sizeof(Input_Capsense_dsFlash))
  81              		.loc 1 1102 0
  82 003e A023     		movs	r3, #160
  83 0040 FF33     		adds	r3, r3, #255
  84 0042 9D42     		cmp	r5, r3
  85 0044 01D8     		bhi	.L10
1006:Generated_Source\PSoC4/Input_Capsense_Structure.c **** 
  86              		.loc 1 1006 0
  87 0046 0020     		movs	r0, #0
  88 0048 00E0     		b	.L4
  89              	.L10:
1103:Generated_Source\PSoC4/Input_Capsense_Structure.c ****             {
1104:Generated_Source\PSoC4/Input_Capsense_Structure.c ****                 result = CYRET_BAD_PARAM;
  90              		.loc 1 1104 0
  91 004a 0120     		movs	r0, #1
ARM GAS  C:\Users\doita\AppData\Local\Temp\ccsDJsU6.s 			page 22


  92              	.L4:
  93              	.LVL3:
1105:Generated_Source\PSoC4/Input_Capsense_Structure.c ****             }
1106:Generated_Source\PSoC4/Input_Capsense_Structure.c **** 
1107:Generated_Source\PSoC4/Input_Capsense_Structure.c ****             /* Check if it is marked as Read Only */
1108:Generated_Source\PSoC4/Input_Capsense_Structure.c ****             if (0u != pData->rw)
  94              		.loc 1 1108 0
  95 004c 002A     		cmp	r2, #0
  96 004e 02D1     		bne	.L11
  97 0050 02E0     		b	.L3
  98              	.LVL4:
  99              	.L9:
1096:Generated_Source\PSoC4/Input_Capsense_Structure.c ****             }
 100              		.loc 1 1096 0
 101 0052 0120     		movs	r0, #1
 102 0054 00E0     		b	.L3
 103              	.LVL5:
 104              	.L11:
1109:Generated_Source\PSoC4/Input_Capsense_Structure.c ****             {
1110:Generated_Source\PSoC4/Input_Capsense_Structure.c ****                 result = CYRET_BAD_PARAM;
 105              		.loc 1 1110 0
 106 0056 0120     		movs	r0, #1
 107              	.LVL6:
 108              	.L3:
1111:Generated_Source\PSoC4/Input_Capsense_Structure.c ****             }
1112:Generated_Source\PSoC4/Input_Capsense_Structure.c ****         }
1113:Generated_Source\PSoC4/Input_Capsense_Structure.c ****     #endif /* #if (0u != Input_Capsense_SELF_TEST_EN) */
1114:Generated_Source\PSoC4/Input_Capsense_Structure.c **** 
1115:Generated_Source\PSoC4/Input_Capsense_Structure.c ****     if (CYRET_SUCCESS == result)
 109              		.loc 1 1115 0
 110 0058 0028     		cmp	r0, #0
 111 005a 11D1     		bne	.L5
1116:Generated_Source\PSoC4/Input_Capsense_Structure.c ****     {
1117:Generated_Source\PSoC4/Input_Capsense_Structure.c ****         /* Check parameter type, offset alignment */
1118:Generated_Source\PSoC4/Input_Capsense_Structure.c ****         switch (pData->type)
 112              		.loc 1 1118 0
 113 005c 022E     		cmp	r6, #2
 114 005e 04D0     		beq	.L6
 115 0060 032E     		cmp	r6, #3
 116 0062 05D0     		beq	.L7
 117 0064 012E     		cmp	r6, #1
 118 0066 06D1     		bne	.L15
 119 0068 0AE0     		b	.L5
 120              	.L6:
1119:Generated_Source\PSoC4/Input_Capsense_Structure.c ****         {
1120:Generated_Source\PSoC4/Input_Capsense_Structure.c ****         case DS_PARAM_TYPE_UINT16:
1121:Generated_Source\PSoC4/Input_Capsense_Structure.c ****             if (0u != (pData->offset & UINT16_ALIGN_MASK))
 121              		.loc 1 1121 0
 122 006a EB07     		lsls	r3, r5, #31
 123 006c 05D4     		bmi	.L13
 124 006e 07E0     		b	.L5
 125              	.L7:
1122:Generated_Source\PSoC4/Input_Capsense_Structure.c ****             {
1123:Generated_Source\PSoC4/Input_Capsense_Structure.c ****                 result = CYRET_BAD_PARAM;
1124:Generated_Source\PSoC4/Input_Capsense_Structure.c ****             }
1125:Generated_Source\PSoC4/Input_Capsense_Structure.c ****             break;
1126:Generated_Source\PSoC4/Input_Capsense_Structure.c **** 
ARM GAS  C:\Users\doita\AppData\Local\Temp\ccsDJsU6.s 			page 23


1127:Generated_Source\PSoC4/Input_Capsense_Structure.c ****         case DS_PARAM_TYPE_UINT32:
1128:Generated_Source\PSoC4/Input_Capsense_Structure.c ****             if (0u != (pData->offset & UINT32_ALIGN_MASK))
 126              		.loc 1 1128 0
 127 0070 AB07     		lsls	r3, r5, #30
 128 0072 04D1     		bne	.L14
 129 0074 04E0     		b	.L5
 130              	.L15:
1129:Generated_Source\PSoC4/Input_Capsense_Structure.c ****             {
1130:Generated_Source\PSoC4/Input_Capsense_Structure.c ****                 result = CYRET_BAD_PARAM;
1131:Generated_Source\PSoC4/Input_Capsense_Structure.c ****             }
1132:Generated_Source\PSoC4/Input_Capsense_Structure.c ****             break;
1133:Generated_Source\PSoC4/Input_Capsense_Structure.c **** 
1134:Generated_Source\PSoC4/Input_Capsense_Structure.c ****         case DS_PARAM_TYPE_UINT8:
1135:Generated_Source\PSoC4/Input_Capsense_Structure.c ****             break;
1136:Generated_Source\PSoC4/Input_Capsense_Structure.c **** 
1137:Generated_Source\PSoC4/Input_Capsense_Structure.c ****         default:
1138:Generated_Source\PSoC4/Input_Capsense_Structure.c ****             result = CYRET_BAD_PARAM;
 131              		.loc 1 1138 0
 132 0076 0120     		movs	r0, #1
 133              	.LVL7:
 134 0078 02E0     		b	.L5
 135              	.LVL8:
 136              	.L13:
1123:Generated_Source\PSoC4/Input_Capsense_Structure.c ****             }
 137              		.loc 1 1123 0
 138 007a 0120     		movs	r0, #1
 139              	.LVL9:
 140 007c 00E0     		b	.L5
 141              	.LVL10:
 142              	.L14:
1130:Generated_Source\PSoC4/Input_Capsense_Structure.c ****             }
 143              		.loc 1 1130 0
 144 007e 0120     		movs	r0, #1
 145              	.LVL11:
 146              	.L5:
1139:Generated_Source\PSoC4/Input_Capsense_Structure.c ****             break;
1140:Generated_Source\PSoC4/Input_Capsense_Structure.c ****         }
1141:Generated_Source\PSoC4/Input_Capsense_Structure.c ****     }
1142:Generated_Source\PSoC4/Input_Capsense_Structure.c **** 
1143:Generated_Source\PSoC4/Input_Capsense_Structure.c ****     return result;
1144:Generated_Source\PSoC4/Input_Capsense_Structure.c **** }
 147              		.loc 1 1144 0
 148              		@ sp needed
 149 0080 70BD     		pop	{r4, r5, r6, pc}
 150              		.cfi_endproc
 151              	.LFE2:
 152              		.size	DsParseParamId, .-DsParseParamId
 153 0082 C046     		.section	.text.Input_Capsense_DsInitialize,"ax",%progbits
 154              		.align	2
 155              		.global	Input_Capsense_DsInitialize
 156              		.code	16
 157              		.thumb_func
 158              		.type	Input_Capsense_DsInitialize, %function
 159              	Input_Capsense_DsInitialize:
 160              	.LFB1:
 788:Generated_Source\PSoC4/Input_Capsense_Structure.c ****     #if ((Input_Capsense_ENABLE == Input_Capsense_CSX_EN) || \
 161              		.loc 1 788 0
ARM GAS  C:\Users\doita\AppData\Local\Temp\ccsDJsU6.s 			page 24


 162              		.cfi_startproc
 163              		@ args = 0, pretend = 0, frame = 0
 164              		@ frame_needed = 0, uses_anonymous_args = 0
 165 0000 70B5     		push	{r4, r5, r6, lr}
 166              		.cfi_def_cfa_offset 16
 167              		.cfi_offset 4, -16
 168              		.cfi_offset 5, -12
 169              		.cfi_offset 6, -8
 170              		.cfi_offset 14, -4
 171              	.LVL12:
 809:Generated_Source\PSoC4/Input_Capsense_Structure.c **** 
 172              		.loc 1 809 0
 173 0002 1B4C     		ldr	r4, .L21
 174 0004 DC22     		movs	r2, #220
 175 0006 5200     		lsls	r2, r2, #1
 176 0008 0021     		movs	r1, #0
 177 000a 2000     		movs	r0, r4
 178 000c FFF7FEFF 		bl	memset
 179              	.LVL13:
 812:Generated_Source\PSoC4/Input_Capsense_Structure.c ****     Input_Capsense_dsRam.deviceId = Input_Capsense_DEVICE_ID;
 180              		.loc 1 812 0
 181 0010 184B     		ldr	r3, .L21+4
 182 0012 2380     		strh	r3, [r4]
 813:Generated_Source\PSoC4/Input_Capsense_Structure.c ****     Input_Capsense_dsRam.hwClock = Input_Capsense_HW_CLOCK;
 183              		.loc 1 813 0
 184 0014 8023     		movs	r3, #128
 185 0016 5B00     		lsls	r3, r3, #1
 186 0018 6380     		strh	r3, [r4, #2]
 814:Generated_Source\PSoC4/Input_Capsense_Structure.c **** 
 187              		.loc 1 814 0
 188 001a 174B     		ldr	r3, .L21+8
 189 001c A380     		strh	r3, [r4, #4]
 817:Generated_Source\PSoC4/Input_Capsense_Structure.c **** 
 190              		.loc 1 817 0
 191 001e 0823     		movs	r3, #8
 192 0020 E384     		strh	r3, [r4, #38]
 819:Generated_Source\PSoC4/Input_Capsense_Structure.c ****     #if (0u != Input_Capsense_TOTAL_CSD_WIDGETS)
 193              		.loc 1 819 0
 194 0022 0322     		movs	r2, #3
 195 0024 B823     		movs	r3, #184
 196 0026 FF33     		adds	r3, r3, #255
 197 0028 E254     		strb	r2, [r4, r3]
 821:Generated_Source\PSoC4/Input_Capsense_Structure.c ****         Input_Capsense_dsRam.scanCsdISC = Input_Capsense_CSD_INACTIVE_SNS_CONNECTION;
 198              		.loc 1 821 0
 199 002a 023A     		subs	r2, r2, #2
 200 002c 903B     		subs	r3, r3, #144
 201 002e FF3B     		subs	r3, r3, #255
 202 0030 E254     		strb	r2, [r4, r3]
 895:Generated_Source\PSoC4/Input_Capsense_Structure.c **** 
 203              		.loc 1 895 0
 204 0032 2000     		movs	r0, r4
 205 0034 2A30     		adds	r0, r0, #42
 206 0036 0432     		adds	r2, r2, #4
 207 0038 FF32     		adds	r2, r2, #255
 208 003a 1049     		ldr	r1, .L21+12
 209 003c 3031     		adds	r1, r1, #48
 210 003e FFF7FEFF 		bl	memcpy
ARM GAS  C:\Users\doita\AppData\Local\Temp\ccsDJsU6.s 			page 25


 211              	.LVL14:
 805:Generated_Source\PSoC4/Input_Capsense_Structure.c ****     #endif
 212              		.loc 1 805 0
 213 0042 0F49     		ldr	r1, .L21+16
 912:Generated_Source\PSoC4/Input_Capsense_Structure.c **** 
 214              		.loc 1 912 0
 215 0044 0C00     		movs	r4, r1
 216 0046 1034     		adds	r4, r4, #16
 914:Generated_Source\PSoC4/Input_Capsense_Structure.c ****         {
 217              		.loc 1 914 0
 218 0048 0D23     		movs	r3, #13
 219 004a 0CE0     		b	.L17
 220              	.LVL15:
 221              	.L20:
 916:Generated_Source\PSoC4/Input_Capsense_Structure.c **** 
 222              		.loc 1 916 0
 223 004c A268     		ldr	r2, [r4, #8]
 224              	.LVL16:
 918:Generated_Source\PSoC4/Input_Capsense_Structure.c ****             {
 225              		.loc 1 918 0
 226 004e 238B     		ldrh	r3, [r4, #24]
 227              	.LVL17:
 228 0050 04E0     		b	.L18
 229              	.LVL18:
 230              	.L19:
 920:Generated_Source\PSoC4/Input_Capsense_Structure.c ****                 ptrIdacInit++;
 231              		.loc 1 920 0
 232 0052 0B78     		ldrb	r3, [r1]
 233 0054 5372     		strb	r3, [r2, #9]
 921:Generated_Source\PSoC4/Input_Capsense_Structure.c **** 
 234              		.loc 1 921 0
 235 0056 0131     		adds	r1, r1, #1
 236              	.LVL19:
 931:Generated_Source\PSoC4/Input_Capsense_Structure.c ****             }
 237              		.loc 1 931 0
 238 0058 0A32     		adds	r2, r2, #10
 239              	.LVL20:
 918:Generated_Source\PSoC4/Input_Capsense_Structure.c ****             {
 240              		.loc 1 918 0
 241 005a 0300     		movs	r3, r0
 242              	.LVL21:
 243              	.L18:
 918:Generated_Source\PSoC4/Input_Capsense_Structure.c ****             {
 244              		.loc 1 918 0 is_stmt 0 discriminator 1
 245 005c 581E     		subs	r0, r3, #1
 246              	.LVL22:
 247 005e 002B     		cmp	r3, #0
 248 0060 F7D1     		bne	.L19
 934:Generated_Source\PSoC4/Input_Capsense_Structure.c ****         }
 249              		.loc 1 934 0 is_stmt 1
 250 0062 2034     		adds	r4, r4, #32
 251              	.LVL23:
 914:Generated_Source\PSoC4/Input_Capsense_Structure.c ****         {
 252              		.loc 1 914 0
 253 0064 2B00     		movs	r3, r5
 254              	.LVL24:
 255              	.L17:
ARM GAS  C:\Users\doita\AppData\Local\Temp\ccsDJsU6.s 			page 26


 914:Generated_Source\PSoC4/Input_Capsense_Structure.c ****         {
 256              		.loc 1 914 0 is_stmt 0 discriminator 1
 257 0066 5D1E     		subs	r5, r3, #1
 258              	.LVL25:
 259 0068 002B     		cmp	r3, #0
 260 006a EFD1     		bne	.L20
 965:Generated_Source\PSoC4/Input_Capsense_Structure.c **** 
 261              		.loc 1 965 0 is_stmt 1
 262              		@ sp needed
 263              	.LVL26:
 264              	.LVL27:
 265 006c 70BD     		pop	{r4, r5, r6, pc}
 266              	.L22:
 267 006e C046     		.align	2
 268              	.L21:
 269 0070 00000000 		.word	Input_Capsense_dsRam
 270 0074 E2A9FFFF 		.word	-22046
 271 0078 B80B0000 		.word	3000
 272 007c 80010000 		.word	.LANCHOR1
 273 0080 00000000 		.word	.LANCHOR0
 274              		.cfi_endproc
 275              	.LFE1:
 276              		.size	Input_Capsense_DsInitialize, .-Input_Capsense_DsInitialize
 277              		.section	.text.Input_Capsense_GetParam,"ax",%progbits
 278              		.align	2
 279              		.global	Input_Capsense_GetParam
 280              		.code	16
 281              		.thumb_func
 282              		.type	Input_Capsense_GetParam, %function
 283              	Input_Capsense_GetParam:
 284              	.LFB3:
1145:Generated_Source\PSoC4/Input_Capsense_Structure.c **** 
1146:Generated_Source\PSoC4/Input_Capsense_Structure.c **** /*******************************************************************************
1147:Generated_Source\PSoC4/Input_Capsense_Structure.c **** * Function Name: Input_Capsense_GetParam
1148:Generated_Source\PSoC4/Input_Capsense_Structure.c **** ****************************************************************************//**
1149:Generated_Source\PSoC4/Input_Capsense_Structure.c **** *
1150:Generated_Source\PSoC4/Input_Capsense_Structure.c **** * \brief
1151:Generated_Source\PSoC4/Input_Capsense_Structure.c **** *  Gets the specified parameter value from the \ref group_structures.
1152:Generated_Source\PSoC4/Input_Capsense_Structure.c **** *
1153:Generated_Source\PSoC4/Input_Capsense_Structure.c **** * \details
1154:Generated_Source\PSoC4/Input_Capsense_Structure.c **** *  This function gets the value of the specified parameter by the paramId
1155:Generated_Source\PSoC4/Input_Capsense_Structure.c **** *  argument. The paramId for each register is available in the
1156:Generated_Source\PSoC4/Input_Capsense_Structure.c **** *  Input_Capsense RegisterMap header file as
1157:Generated_Source\PSoC4/Input_Capsense_Structure.c **** *  Input_Capsense_<ParameterName>_PARAM_ID. The paramId is a special
1158:Generated_Source\PSoC4/Input_Capsense_Structure.c **** *  enumerated value generated by the customizer. The format of paramId is as
1159:Generated_Source\PSoC4/Input_Capsense_Structure.c **** *  follows:
1160:Generated_Source\PSoC4/Input_Capsense_Structure.c **** *    1. [ byte 3 byte 2 byte 1 byte 0 ]
1161:Generated_Source\PSoC4/Input_Capsense_Structure.c **** *    2. [ TTWFCCCC UIIIIIII MMMMMMMM LLLLLLLL ]
1162:Generated_Source\PSoC4/Input_Capsense_Structure.c **** *    3. T - encodes the parameter type:
1163:Generated_Source\PSoC4/Input_Capsense_Structure.c **** *      - 01b: uint8
1164:Generated_Source\PSoC4/Input_Capsense_Structure.c **** *      - 10b: uint16
1165:Generated_Source\PSoC4/Input_Capsense_Structure.c **** *      - 11b: uint32
1166:Generated_Source\PSoC4/Input_Capsense_Structure.c **** *    4. W - indicates whether the parameter is writable:
1167:Generated_Source\PSoC4/Input_Capsense_Structure.c **** *      - 0: ReadOnly
1168:Generated_Source\PSoC4/Input_Capsense_Structure.c **** *      - 1: Read/Write
1169:Generated_Source\PSoC4/Input_Capsense_Structure.c **** *    5. C - 4 bit CRC (X^3 + 1) of the whole paramId word, the C bits are
1170:Generated_Source\PSoC4/Input_Capsense_Structure.c **** *       filled with 0s when the CRC is calculated.
ARM GAS  C:\Users\doita\AppData\Local\Temp\ccsDJsU6.s 			page 27


1171:Generated_Source\PSoC4/Input_Capsense_Structure.c **** *    6. U - indicates if the parameter affects the RAM Widget Object CRC.
1172:Generated_Source\PSoC4/Input_Capsense_Structure.c **** *    7. I - specifies that the widgetId parameter belongs to
1173:Generated_Source\PSoC4/Input_Capsense_Structure.c **** *    8. M,L - the parameter offset MSB and LSB accordingly in:
1174:Generated_Source\PSoC4/Input_Capsense_Structure.c **** *      - Flash Data Structure if W bit is 0.
1175:Generated_Source\PSoC4/Input_Capsense_Structure.c **** *      - RAM Data Structure if W bit is 1.
1176:Generated_Source\PSoC4/Input_Capsense_Structure.c **** *
1177:Generated_Source\PSoC4/Input_Capsense_Structure.c **** *  Refer to the \ref group_structures section for details of the data structure
1178:Generated_Source\PSoC4/Input_Capsense_Structure.c **** *  organization and examples of its register access.
1179:Generated_Source\PSoC4/Input_Capsense_Structure.c **** *
1180:Generated_Source\PSoC4/Input_Capsense_Structure.c **** * \param paramId
1181:Generated_Source\PSoC4/Input_Capsense_Structure.c **** *  Specifies the ID of parameter to get its value.
1182:Generated_Source\PSoC4/Input_Capsense_Structure.c **** *  A macro for the parameter ID can be found in the Input_Capsense RegisterMap header
1183:Generated_Source\PSoC4/Input_Capsense_Structure.c **** *  file defined as Input_Capsense_<ParameterName>_PARAM_ID.
1184:Generated_Source\PSoC4/Input_Capsense_Structure.c **** *
1185:Generated_Source\PSoC4/Input_Capsense_Structure.c **** * \param value
1186:Generated_Source\PSoC4/Input_Capsense_Structure.c **** *  The pointer to a variable to be updated with the obtained value.
1187:Generated_Source\PSoC4/Input_Capsense_Structure.c **** *
1188:Generated_Source\PSoC4/Input_Capsense_Structure.c **** * \return
1189:Generated_Source\PSoC4/Input_Capsense_Structure.c **** *  Returns the status of the operation:
1190:Generated_Source\PSoC4/Input_Capsense_Structure.c **** *    - CYRET_SUCCESS - The operation is successfully completed.
1191:Generated_Source\PSoC4/Input_Capsense_Structure.c **** *    - CYRET_BAD_PARAM - The input parameter is invalid.
1192:Generated_Source\PSoC4/Input_Capsense_Structure.c **** *
1193:Generated_Source\PSoC4/Input_Capsense_Structure.c **** *******************************************************************************/
1194:Generated_Source\PSoC4/Input_Capsense_Structure.c **** cystatus Input_Capsense_GetParam(uint32 paramId, uint32 *value)
1195:Generated_Source\PSoC4/Input_Capsense_Structure.c **** {
 285              		.loc 1 1195 0
 286              		.cfi_startproc
 287              		@ args = 0, pretend = 0, frame = 8
 288              		@ frame_needed = 0, uses_anonymous_args = 0
 289              	.LVL28:
 290 0000 30B5     		push	{r4, r5, lr}
 291              		.cfi_def_cfa_offset 12
 292              		.cfi_offset 4, -12
 293              		.cfi_offset 5, -8
 294              		.cfi_offset 14, -4
 295 0002 83B0     		sub	sp, sp, #12
 296              		.cfi_def_cfa_offset 24
 297 0004 0D00     		movs	r5, r1
1196:Generated_Source\PSoC4/Input_Capsense_Structure.c ****     PARAM_ID_STRUCT pData;
1197:Generated_Source\PSoC4/Input_Capsense_Structure.c ****     cystatus result;
1198:Generated_Source\PSoC4/Input_Capsense_Structure.c **** 
1199:Generated_Source\PSoC4/Input_Capsense_Structure.c ****     union
1200:Generated_Source\PSoC4/Input_Capsense_Structure.c ****     {
1201:Generated_Source\PSoC4/Input_Capsense_Structure.c ****         volatile void   const * ptr;
1202:Generated_Source\PSoC4/Input_Capsense_Structure.c ****         volatile uint8  const * ptrUint8;
1203:Generated_Source\PSoC4/Input_Capsense_Structure.c ****         volatile uint16 const * ptrUint16;
1204:Generated_Source\PSoC4/Input_Capsense_Structure.c ****         volatile uint32 const * ptrUint32;
1205:Generated_Source\PSoC4/Input_Capsense_Structure.c ****     } ptrData;
1206:Generated_Source\PSoC4/Input_Capsense_Structure.c **** 
1207:Generated_Source\PSoC4/Input_Capsense_Structure.c ****     result = DsParseParamId(paramId, &pData);
 298              		.loc 1 1207 0
 299 0006 6946     		mov	r1, sp
 300              	.LVL29:
 301 0008 FFF7FEFF 		bl	DsParseParamId
 302              	.LVL30:
 303 000c 041E     		subs	r4, r0, #0
 304              	.LVL31:
ARM GAS  C:\Users\doita\AppData\Local\Temp\ccsDJsU6.s 			page 28


1208:Generated_Source\PSoC4/Input_Capsense_Structure.c **** 
1209:Generated_Source\PSoC4/Input_Capsense_Structure.c ****     /* Parse and validate paramId */
1210:Generated_Source\PSoC4/Input_Capsense_Structure.c ****     if (CYRET_SUCCESS == result)
 305              		.loc 1 1210 0
 306 000e 1FD1     		bne	.L24
1211:Generated_Source\PSoC4/Input_Capsense_Structure.c ****     {
1212:Generated_Source\PSoC4/Input_Capsense_Structure.c ****         /* Get base address of parameter */
1213:Generated_Source\PSoC4/Input_Capsense_Structure.c ****         if (0u == pData.flash)
 307              		.loc 1 1213 0
 308 0010 6B46     		mov	r3, sp
 309 0012 5B79     		ldrb	r3, [r3, #5]
 310 0014 002B     		cmp	r3, #0
 311 0016 01D1     		bne	.L25
1214:Generated_Source\PSoC4/Input_Capsense_Structure.c ****         {
1215:Generated_Source\PSoC4/Input_Capsense_Structure.c ****             ptrData.ptr = &Input_Capsense_dsRam;
 312              		.loc 1 1215 0
 313 0018 0F4A     		ldr	r2, .L30
 314              	.LVL32:
 315 001a 02E0     		b	.L26
 316              	.L25:
1216:Generated_Source\PSoC4/Input_Capsense_Structure.c ****         }
1217:Generated_Source\PSoC4/Input_Capsense_Structure.c ****         else
1218:Generated_Source\PSoC4/Input_Capsense_Structure.c ****         {
1219:Generated_Source\PSoC4/Input_Capsense_Structure.c ****             ptrData.ptr = &Input_Capsense_dsFlash;
 317              		.loc 1 1219 0
 318 001c 0F4B     		ldr	r3, .L30+4
 319 001e 1033     		adds	r3, r3, #16
 320 0020 1A00     		movs	r2, r3
 321              	.L26:
1220:Generated_Source\PSoC4/Input_Capsense_Structure.c ****         }
1221:Generated_Source\PSoC4/Input_Capsense_Structure.c **** 
1222:Generated_Source\PSoC4/Input_Capsense_Structure.c ****         /* Add offset to base address */
1223:Generated_Source\PSoC4/Input_Capsense_Structure.c ****         ptrData.ptrUint8 += pData.offset;
 322              		.loc 1 1223 0
 323 0022 6B46     		mov	r3, sp
 324 0024 1B88     		ldrh	r3, [r3]
 325              	.LVL33:
 326 0026 D318     		adds	r3, r2, r3
1224:Generated_Source\PSoC4/Input_Capsense_Structure.c **** 
1225:Generated_Source\PSoC4/Input_Capsense_Structure.c ****         /* Read data */
1226:Generated_Source\PSoC4/Input_Capsense_Structure.c ****         if (DS_PARAM_TYPE_UINT8 == pData.type)
 327              		.loc 1 1226 0
 328 0028 6A46     		mov	r2, sp
 329              	.LVL34:
 330 002a D279     		ldrb	r2, [r2, #7]
 331 002c 012A     		cmp	r2, #1
 332 002e 02D1     		bne	.L27
1227:Generated_Source\PSoC4/Input_Capsense_Structure.c ****         {
1228:Generated_Source\PSoC4/Input_Capsense_Structure.c ****             *value = (uint32) (*ptrData.ptrUint8);
 333              		.loc 1 1228 0
 334 0030 1B78     		ldrb	r3, [r3]
 335 0032 2B60     		str	r3, [r5]
 336 0034 0CE0     		b	.L24
 337              	.L27:
1229:Generated_Source\PSoC4/Input_Capsense_Structure.c ****         }
1230:Generated_Source\PSoC4/Input_Capsense_Structure.c ****         else if (DS_PARAM_TYPE_UINT16 == pData.type)
 338              		.loc 1 1230 0
ARM GAS  C:\Users\doita\AppData\Local\Temp\ccsDJsU6.s 			page 29


 339 0036 022A     		cmp	r2, #2
 340 0038 02D1     		bne	.L28
1231:Generated_Source\PSoC4/Input_Capsense_Structure.c ****         {
1232:Generated_Source\PSoC4/Input_Capsense_Structure.c ****             *value = (uint32) (*ptrData.ptrUint16);
 341              		.loc 1 1232 0
 342 003a 1B88     		ldrh	r3, [r3]
 343 003c 2B60     		str	r3, [r5]
 344 003e 07E0     		b	.L24
 345              	.L28:
1233:Generated_Source\PSoC4/Input_Capsense_Structure.c ****         }
1234:Generated_Source\PSoC4/Input_Capsense_Structure.c ****         else if (DS_PARAM_TYPE_UINT32 == pData.type)
 346              		.loc 1 1234 0
 347 0040 032A     		cmp	r2, #3
 348 0042 02D1     		bne	.L29
1235:Generated_Source\PSoC4/Input_Capsense_Structure.c ****         {
1236:Generated_Source\PSoC4/Input_Capsense_Structure.c ****             *value = *ptrData.ptrUint32;
 349              		.loc 1 1236 0
 350 0044 1B68     		ldr	r3, [r3]
 351 0046 2B60     		str	r3, [r5]
 352 0048 02E0     		b	.L24
 353              	.L29:
1237:Generated_Source\PSoC4/Input_Capsense_Structure.c ****         }
1238:Generated_Source\PSoC4/Input_Capsense_Structure.c ****         else
1239:Generated_Source\PSoC4/Input_Capsense_Structure.c ****         {
1240:Generated_Source\PSoC4/Input_Capsense_Structure.c ****             /* Parameter comes here already validated. */
1241:Generated_Source\PSoC4/Input_Capsense_Structure.c ****             CYASSERT(0u);
 354              		.loc 1 1241 0 discriminator 1
 355 004a 0020     		movs	r0, #0
 356              	.LVL35:
 357 004c FFF7FEFF 		bl	CyHalt
 358              	.LVL36:
 359              	.L24:
1242:Generated_Source\PSoC4/Input_Capsense_Structure.c ****         }
1243:Generated_Source\PSoC4/Input_Capsense_Structure.c ****     }
1244:Generated_Source\PSoC4/Input_Capsense_Structure.c **** 
1245:Generated_Source\PSoC4/Input_Capsense_Structure.c ****     return result;
1246:Generated_Source\PSoC4/Input_Capsense_Structure.c **** }
 360              		.loc 1 1246 0
 361 0050 2000     		movs	r0, r4
 362 0052 03B0     		add	sp, sp, #12
 363              		@ sp needed
 364              	.LVL37:
 365              	.LVL38:
 366 0054 30BD     		pop	{r4, r5, pc}
 367              	.L31:
 368 0056 C046     		.align	2
 369              	.L30:
 370 0058 00000000 		.word	Input_Capsense_dsRam
 371 005c 00000000 		.word	.LANCHOR0
 372              		.cfi_endproc
 373              	.LFE3:
 374              		.size	Input_Capsense_GetParam, .-Input_Capsense_GetParam
 375              		.section	.text.Input_Capsense_SetParam,"ax",%progbits
 376              		.align	2
 377              		.global	Input_Capsense_SetParam
 378              		.code	16
 379              		.thumb_func
ARM GAS  C:\Users\doita\AppData\Local\Temp\ccsDJsU6.s 			page 30


 380              		.type	Input_Capsense_SetParam, %function
 381              	Input_Capsense_SetParam:
 382              	.LFB4:
1247:Generated_Source\PSoC4/Input_Capsense_Structure.c **** 
1248:Generated_Source\PSoC4/Input_Capsense_Structure.c **** 
1249:Generated_Source\PSoC4/Input_Capsense_Structure.c **** /*******************************************************************************
1250:Generated_Source\PSoC4/Input_Capsense_Structure.c **** * Function Name: Input_Capsense_SetParam
1251:Generated_Source\PSoC4/Input_Capsense_Structure.c **** ****************************************************************************//**
1252:Generated_Source\PSoC4/Input_Capsense_Structure.c **** *
1253:Generated_Source\PSoC4/Input_Capsense_Structure.c **** * \brief
1254:Generated_Source\PSoC4/Input_Capsense_Structure.c **** *  Sets a new value for the specified parameter in the \ref group_structures.
1255:Generated_Source\PSoC4/Input_Capsense_Structure.c **** *
1256:Generated_Source\PSoC4/Input_Capsense_Structure.c **** * \details
1257:Generated_Source\PSoC4/Input_Capsense_Structure.c **** *  This function sets the value of the specified parameter by the paramId
1258:Generated_Source\PSoC4/Input_Capsense_Structure.c **** *  argument. The paramId for each register is available in the
1259:Generated_Source\PSoC4/Input_Capsense_Structure.c **** *  Input_Capsense RegisterMap header file as
1260:Generated_Source\PSoC4/Input_Capsense_Structure.c **** *  Input_Capsense_<ParameterName>_PARAM_ID. The paramId is a special
1261:Generated_Source\PSoC4/Input_Capsense_Structure.c **** *  enumerated value generated by the customizer. The format of paramId is as
1262:Generated_Source\PSoC4/Input_Capsense_Structure.c **** *  follows:
1263:Generated_Source\PSoC4/Input_Capsense_Structure.c **** *    1. [ byte 3 byte 2 byte 1 byte 0 ]
1264:Generated_Source\PSoC4/Input_Capsense_Structure.c **** *    2. [ TTWFCCCC UIIIIIII MMMMMMMM LLLLLLLL ]
1265:Generated_Source\PSoC4/Input_Capsense_Structure.c **** *    3. T - encodes the parameter type:
1266:Generated_Source\PSoC4/Input_Capsense_Structure.c **** *      - 01b: uint8
1267:Generated_Source\PSoC4/Input_Capsense_Structure.c **** *      - 10b: uint16
1268:Generated_Source\PSoC4/Input_Capsense_Structure.c **** *      - 11b: uint32
1269:Generated_Source\PSoC4/Input_Capsense_Structure.c **** *    4. W - indicates whether the parameter is writable:
1270:Generated_Source\PSoC4/Input_Capsense_Structure.c **** *      - 0: ReadOnly
1271:Generated_Source\PSoC4/Input_Capsense_Structure.c **** *      - 1: Read/Write
1272:Generated_Source\PSoC4/Input_Capsense_Structure.c **** *    5. C - 4 bit CRC (X^3 + 1) of the whole paramId word, the C bits are
1273:Generated_Source\PSoC4/Input_Capsense_Structure.c **** *       filled with 0s when the CRC is calculated.
1274:Generated_Source\PSoC4/Input_Capsense_Structure.c **** *    6. U - indicates if the parameter affects the RAM Widget Object CRC.
1275:Generated_Source\PSoC4/Input_Capsense_Structure.c **** *    7. I - specifies that the widgetId parameter belongs to
1276:Generated_Source\PSoC4/Input_Capsense_Structure.c **** *    8. M,L - the parameter offset MSB and LSB accordingly in:
1277:Generated_Source\PSoC4/Input_Capsense_Structure.c **** *      - Flash Data Structure if W bit is 0.
1278:Generated_Source\PSoC4/Input_Capsense_Structure.c **** *      - RAM Data Structure if W bit is 1.
1279:Generated_Source\PSoC4/Input_Capsense_Structure.c **** *
1280:Generated_Source\PSoC4/Input_Capsense_Structure.c **** *  Refer to the \ref group_structures section for details of the data structure
1281:Generated_Source\PSoC4/Input_Capsense_Structure.c **** *  organization and examples of its register access.
1282:Generated_Source\PSoC4/Input_Capsense_Structure.c **** *
1283:Generated_Source\PSoC4/Input_Capsense_Structure.c **** *  This function writes specified value into the desired register without
1284:Generated_Source\PSoC4/Input_Capsense_Structure.c **** *  other registers update. It is application layer responsibility to keep all
1285:Generated_Source\PSoC4/Input_Capsense_Structure.c **** *  the data structure registers aligned. Repeated call of
1286:Generated_Source\PSoC4/Input_Capsense_Structure.c **** *  Input_Capsense_Start() function helps aligning dependent register values.
1287:Generated_Source\PSoC4/Input_Capsense_Structure.c **** *
1288:Generated_Source\PSoC4/Input_Capsense_Structure.c **** * \param paramId
1289:Generated_Source\PSoC4/Input_Capsense_Structure.c **** *  Specifies the ID of parameter to set its value.
1290:Generated_Source\PSoC4/Input_Capsense_Structure.c **** *  A macro for the parameter ID can be found in the Input_Capsense RegisterMap header
1291:Generated_Source\PSoC4/Input_Capsense_Structure.c **** *  file defined as Input_Capsense_<ParameterName>_PARAM_ID.
1292:Generated_Source\PSoC4/Input_Capsense_Structure.c **** 
1293:Generated_Source\PSoC4/Input_Capsense_Structure.c **** * \param value
1294:Generated_Source\PSoC4/Input_Capsense_Structure.c **** *  Specifies the new parameter's value.
1295:Generated_Source\PSoC4/Input_Capsense_Structure.c **** *
1296:Generated_Source\PSoC4/Input_Capsense_Structure.c **** * \return
1297:Generated_Source\PSoC4/Input_Capsense_Structure.c **** *  Returns the status of the operation:
1298:Generated_Source\PSoC4/Input_Capsense_Structure.c **** *    - CYRET_SUCCESS - The operation is successfully completed.
1299:Generated_Source\PSoC4/Input_Capsense_Structure.c **** *    - CYRET_BAD_PARAM - The input parameter is invalid.
1300:Generated_Source\PSoC4/Input_Capsense_Structure.c **** *
ARM GAS  C:\Users\doita\AppData\Local\Temp\ccsDJsU6.s 			page 31


1301:Generated_Source\PSoC4/Input_Capsense_Structure.c **** *******************************************************************************/
1302:Generated_Source\PSoC4/Input_Capsense_Structure.c **** cystatus Input_Capsense_SetParam(uint32 paramId, uint32 value)
1303:Generated_Source\PSoC4/Input_Capsense_Structure.c **** {
 383              		.loc 1 1303 0
 384              		.cfi_startproc
 385              		@ args = 0, pretend = 0, frame = 8
 386              		@ frame_needed = 0, uses_anonymous_args = 0
 387              	.LVL39:
 388 0000 30B5     		push	{r4, r5, lr}
 389              		.cfi_def_cfa_offset 12
 390              		.cfi_offset 4, -12
 391              		.cfi_offset 5, -8
 392              		.cfi_offset 14, -4
 393 0002 83B0     		sub	sp, sp, #12
 394              		.cfi_def_cfa_offset 24
 395 0004 0D00     		movs	r5, r1
1304:Generated_Source\PSoC4/Input_Capsense_Structure.c ****     cystatus result;
1305:Generated_Source\PSoC4/Input_Capsense_Structure.c ****     PARAM_ID_STRUCT pData;
1306:Generated_Source\PSoC4/Input_Capsense_Structure.c **** 
1307:Generated_Source\PSoC4/Input_Capsense_Structure.c ****     union
1308:Generated_Source\PSoC4/Input_Capsense_Structure.c ****     {
1309:Generated_Source\PSoC4/Input_Capsense_Structure.c ****         volatile void   * ptr;
1310:Generated_Source\PSoC4/Input_Capsense_Structure.c ****         volatile uint8  * ptrUint8;
1311:Generated_Source\PSoC4/Input_Capsense_Structure.c ****         volatile uint16 * ptrUint16;
1312:Generated_Source\PSoC4/Input_Capsense_Structure.c ****         volatile uint32 * ptrUint32;
1313:Generated_Source\PSoC4/Input_Capsense_Structure.c ****     } ptrData;
1314:Generated_Source\PSoC4/Input_Capsense_Structure.c **** 
1315:Generated_Source\PSoC4/Input_Capsense_Structure.c ****     result = DsParseParamId(paramId, &pData);
 396              		.loc 1 1315 0
 397 0006 6946     		mov	r1, sp
 398              	.LVL40:
 399 0008 FFF7FEFF 		bl	DsParseParamId
 400              	.LVL41:
 401 000c 041E     		subs	r4, r0, #0
 402              	.LVL42:
1316:Generated_Source\PSoC4/Input_Capsense_Structure.c **** 
1317:Generated_Source\PSoC4/Input_Capsense_Structure.c ****     /* verify if parameter is writable */
1318:Generated_Source\PSoC4/Input_Capsense_Structure.c ****     if (CYRET_SUCCESS == result)
 403              		.loc 1 1318 0
 404 000e 04D1     		bne	.L33
1319:Generated_Source\PSoC4/Input_Capsense_Structure.c ****     {
1320:Generated_Source\PSoC4/Input_Capsense_Structure.c ****         if (0u == pData.rw)
 405              		.loc 1 1320 0
 406 0010 6B46     		mov	r3, sp
 407 0012 9B79     		ldrb	r3, [r3, #6]
 408 0014 002B     		cmp	r3, #0
 409 0016 00D1     		bne	.L33
1321:Generated_Source\PSoC4/Input_Capsense_Structure.c ****         {
1322:Generated_Source\PSoC4/Input_Capsense_Structure.c ****             result = CYRET_BAD_PARAM;
 410              		.loc 1 1322 0
 411 0018 0134     		adds	r4, r4, #1
 412              	.L33:
 413              	.LVL43:
1323:Generated_Source\PSoC4/Input_Capsense_Structure.c ****         }
1324:Generated_Source\PSoC4/Input_Capsense_Structure.c ****     }
1325:Generated_Source\PSoC4/Input_Capsense_Structure.c **** 
1326:Generated_Source\PSoC4/Input_Capsense_Structure.c ****     /* Parse and validate paramId */
ARM GAS  C:\Users\doita\AppData\Local\Temp\ccsDJsU6.s 			page 32


1327:Generated_Source\PSoC4/Input_Capsense_Structure.c ****     if (CYRET_SUCCESS == result)
 414              		.loc 1 1327 0
 415 001a 002C     		cmp	r4, #0
 416 001c 16D1     		bne	.L34
1328:Generated_Source\PSoC4/Input_Capsense_Structure.c ****     {
1329:Generated_Source\PSoC4/Input_Capsense_Structure.c ****         /* Get base address of parameter */
1330:Generated_Source\PSoC4/Input_Capsense_Structure.c ****         ptrData.ptr = &Input_Capsense_dsRam;
1331:Generated_Source\PSoC4/Input_Capsense_Structure.c **** 
1332:Generated_Source\PSoC4/Input_Capsense_Structure.c ****         /* Add offset to base address */
1333:Generated_Source\PSoC4/Input_Capsense_Structure.c ****         ptrData.ptrUint8 += pData.offset;
 417              		.loc 1 1333 0
 418 001e 6B46     		mov	r3, sp
 419 0020 1A88     		ldrh	r2, [r3]
 420 0022 0C4B     		ldr	r3, .L39
 421 0024 D318     		adds	r3, r2, r3
1334:Generated_Source\PSoC4/Input_Capsense_Structure.c **** 
1335:Generated_Source\PSoC4/Input_Capsense_Structure.c ****         /* Write data */
1336:Generated_Source\PSoC4/Input_Capsense_Structure.c ****         if (DS_PARAM_TYPE_UINT8 == pData.type)
 422              		.loc 1 1336 0
 423 0026 6A46     		mov	r2, sp
 424 0028 D279     		ldrb	r2, [r2, #7]
 425 002a 012A     		cmp	r2, #1
 426 002c 02D1     		bne	.L35
1337:Generated_Source\PSoC4/Input_Capsense_Structure.c ****         {
1338:Generated_Source\PSoC4/Input_Capsense_Structure.c ****             *ptrData.ptrUint8 = LO8(value);
 427              		.loc 1 1338 0
 428 002e EDB2     		uxtb	r5, r5
 429              	.LVL44:
 430 0030 1D70     		strb	r5, [r3]
 431 0032 0BE0     		b	.L34
 432              	.LVL45:
 433              	.L35:
1339:Generated_Source\PSoC4/Input_Capsense_Structure.c ****         }
1340:Generated_Source\PSoC4/Input_Capsense_Structure.c ****         else if (DS_PARAM_TYPE_UINT16 == pData.type)
 434              		.loc 1 1340 0
 435 0034 022A     		cmp	r2, #2
 436 0036 02D1     		bne	.L36
1341:Generated_Source\PSoC4/Input_Capsense_Structure.c ****         {
1342:Generated_Source\PSoC4/Input_Capsense_Structure.c ****             *ptrData.ptrUint16 = LO16(value);
 437              		.loc 1 1342 0
 438 0038 ADB2     		uxth	r5, r5
 439              	.LVL46:
 440 003a 1D80     		strh	r5, [r3]
 441 003c 06E0     		b	.L34
 442              	.LVL47:
 443              	.L36:
1343:Generated_Source\PSoC4/Input_Capsense_Structure.c ****         }
1344:Generated_Source\PSoC4/Input_Capsense_Structure.c ****         else if (DS_PARAM_TYPE_UINT32 == pData.type)
 444              		.loc 1 1344 0
 445 003e 032A     		cmp	r2, #3
 446 0040 01D1     		bne	.L37
1345:Generated_Source\PSoC4/Input_Capsense_Structure.c ****         {
1346:Generated_Source\PSoC4/Input_Capsense_Structure.c ****             *ptrData.ptrUint32 = value;
 447              		.loc 1 1346 0
 448 0042 1D60     		str	r5, [r3]
 449 0044 02E0     		b	.L34
 450              	.L37:
ARM GAS  C:\Users\doita\AppData\Local\Temp\ccsDJsU6.s 			page 33


1347:Generated_Source\PSoC4/Input_Capsense_Structure.c ****         }
1348:Generated_Source\PSoC4/Input_Capsense_Structure.c ****         else
1349:Generated_Source\PSoC4/Input_Capsense_Structure.c ****         {
1350:Generated_Source\PSoC4/Input_Capsense_Structure.c ****             /* Parameter comes here already validated. */
1351:Generated_Source\PSoC4/Input_Capsense_Structure.c ****             CYASSERT(0u);
 451              		.loc 1 1351 0 discriminator 1
 452 0046 0020     		movs	r0, #0
 453 0048 FFF7FEFF 		bl	CyHalt
 454              	.LVL48:
 455              	.L34:
1352:Generated_Source\PSoC4/Input_Capsense_Structure.c ****         }
1353:Generated_Source\PSoC4/Input_Capsense_Structure.c **** 
1354:Generated_Source\PSoC4/Input_Capsense_Structure.c ****         #if (Input_Capsense_ENABLE == (Input_Capsense_TST_WDGT_CRC_EN || Input_Capsense_TST_GLOBAL_
1355:Generated_Source\PSoC4/Input_Capsense_Structure.c ****             /* Update widget or global CRC if self-test is enabled and parameter affects it */
1356:Generated_Source\PSoC4/Input_Capsense_Structure.c ****             if (0u != pData.affectsCrc)
1357:Generated_Source\PSoC4/Input_Capsense_Structure.c ****             {
1358:Generated_Source\PSoC4/Input_Capsense_Structure.c ****                 if ((ptrData.ptrUint16 >= &Input_Capsense_dsRam.csd0Config) &&
1359:Generated_Source\PSoC4/Input_Capsense_Structure.c ****                     (ptrData.ptrUint16 <  &Input_Capsense_dsRam.glbCrc))
1360:Generated_Source\PSoC4/Input_Capsense_Structure.c ****                 {
1361:Generated_Source\PSoC4/Input_Capsense_Structure.c **** 
1362:Generated_Source\PSoC4/Input_Capsense_Structure.c ****                     #if (Input_Capsense_ENABLE == Input_Capsense_TST_GLOBAL_CRC_EN)
1363:Generated_Source\PSoC4/Input_Capsense_Structure.c ****                         Input_Capsense_DsUpdateGlobalCrc();
1364:Generated_Source\PSoC4/Input_Capsense_Structure.c ****                     #endif /* (Input_Capsense_ENABLE == Input_Capsense_TST_GLOBAL_CRC_EN) */
1365:Generated_Source\PSoC4/Input_Capsense_Structure.c **** 
1366:Generated_Source\PSoC4/Input_Capsense_Structure.c ****                 }
1367:Generated_Source\PSoC4/Input_Capsense_Structure.c ****                 else
1368:Generated_Source\PSoC4/Input_Capsense_Structure.c ****                 {
1369:Generated_Source\PSoC4/Input_Capsense_Structure.c ****                     #if (Input_Capsense_ENABLE == Input_Capsense_TST_WDGT_CRC_EN)
1370:Generated_Source\PSoC4/Input_Capsense_Structure.c ****                         Input_Capsense_DsUpdateWidgetCrc((uint32)pData.widgetId);
1371:Generated_Source\PSoC4/Input_Capsense_Structure.c ****                     #endif /* (Input_Capsense_ENABLE == Input_Capsense_TST_WDGT_CRC_EN) */
1372:Generated_Source\PSoC4/Input_Capsense_Structure.c ****                 }
1373:Generated_Source\PSoC4/Input_Capsense_Structure.c ****             }
1374:Generated_Source\PSoC4/Input_Capsense_Structure.c ****         #endif /* (Input_Capsense_ENABLE == (Input_Capsense_TST_WDGT_CRC_EN || Input_Capsense_TST_G
1375:Generated_Source\PSoC4/Input_Capsense_Structure.c ****     }
1376:Generated_Source\PSoC4/Input_Capsense_Structure.c **** 
1377:Generated_Source\PSoC4/Input_Capsense_Structure.c ****     return result;
1378:Generated_Source\PSoC4/Input_Capsense_Structure.c **** }
 456              		.loc 1 1378 0
 457 004c 2000     		movs	r0, r4
 458 004e 03B0     		add	sp, sp, #12
 459              		@ sp needed
 460              	.LVL49:
 461 0050 30BD     		pop	{r4, r5, pc}
 462              	.L40:
 463 0052 C046     		.align	2
 464              	.L39:
 465 0054 00000000 		.word	Input_Capsense_dsRam
 466              		.cfi_endproc
 467              	.LFE4:
 468              		.size	Input_Capsense_SetParam, .-Input_Capsense_SetParam
 469              		.section	.text.Input_Capsense_IsAnyWidgetActive,"ax",%progbits
 470              		.align	2
 471              		.global	Input_Capsense_IsAnyWidgetActive
 472              		.code	16
 473              		.thumb_func
 474              		.type	Input_Capsense_IsAnyWidgetActive, %function
 475              	Input_Capsense_IsAnyWidgetActive:
ARM GAS  C:\Users\doita\AppData\Local\Temp\ccsDJsU6.s 			page 34


 476              	.LFB5:
1379:Generated_Source\PSoC4/Input_Capsense_Structure.c **** 
1380:Generated_Source\PSoC4/Input_Capsense_Structure.c **** /*******************************************************************************
1381:Generated_Source\PSoC4/Input_Capsense_Structure.c **** * Function Name: Input_Capsense_IsAnyWidgetActive
1382:Generated_Source\PSoC4/Input_Capsense_Structure.c **** ****************************************************************************//**
1383:Generated_Source\PSoC4/Input_Capsense_Structure.c **** *
1384:Generated_Source\PSoC4/Input_Capsense_Structure.c **** * \brief
1385:Generated_Source\PSoC4/Input_Capsense_Structure.c **** *  Reports if any widget has detected a touch.
1386:Generated_Source\PSoC4/Input_Capsense_Structure.c **** *
1387:Generated_Source\PSoC4/Input_Capsense_Structure.c **** * \details
1388:Generated_Source\PSoC4/Input_Capsense_Structure.c **** *  This function reports if any widget has detected a touch or not by extracting
1389:Generated_Source\PSoC4/Input_Capsense_Structure.c **** *  information from the wdgtStatus registers
1390:Generated_Source\PSoC4/Input_Capsense_Structure.c **** *  (Input_Capsense_WDGT_STATUS<X>_VALUE). This function does not process a
1391:Generated_Source\PSoC4/Input_Capsense_Structure.c **** *  widget but extracts processed results from the \ref group_structures.
1392:Generated_Source\PSoC4/Input_Capsense_Structure.c **** *
1393:Generated_Source\PSoC4/Input_Capsense_Structure.c **** * \return
1394:Generated_Source\PSoC4/Input_Capsense_Structure.c **** *   Returns the touch detection status of all the widgets:
1395:Generated_Source\PSoC4/Input_Capsense_Structure.c **** *     - Zero - No touch is detected in all the widgets or sensors.
1396:Generated_Source\PSoC4/Input_Capsense_Structure.c **** *     - Non-zero - At least one widget or sensor detected a touch.
1397:Generated_Source\PSoC4/Input_Capsense_Structure.c **** *
1398:Generated_Source\PSoC4/Input_Capsense_Structure.c **** *******************************************************************************/
1399:Generated_Source\PSoC4/Input_Capsense_Structure.c **** uint32 Input_Capsense_IsAnyWidgetActive(void)
1400:Generated_Source\PSoC4/Input_Capsense_Structure.c **** {
 477              		.loc 1 1400 0
 478              		.cfi_startproc
 479              		@ args = 0, pretend = 0, frame = 0
 480              		@ frame_needed = 0, uses_anonymous_args = 0
 481              		@ link register save eliminated.
 482              	.LVL50:
1401:Generated_Source\PSoC4/Input_Capsense_Structure.c ****     uint32 result = 0Lu;
1402:Generated_Source\PSoC4/Input_Capsense_Structure.c ****     uint32 wdWord;
1403:Generated_Source\PSoC4/Input_Capsense_Structure.c **** 
1404:Generated_Source\PSoC4/Input_Capsense_Structure.c ****     for (wdWord = Input_Capsense_WDGT_STATUS_WORDS; wdWord-- > 0u;)
 483              		.loc 1 1404 0
 484 0000 0123     		movs	r3, #1
1401:Generated_Source\PSoC4/Input_Capsense_Structure.c ****     uint32 result = 0Lu;
 485              		.loc 1 1401 0
 486 0002 0020     		movs	r0, #0
 487              		.loc 1 1404 0
 488 0004 06E0     		b	.L42
 489              	.LVL51:
 490              	.L43:
1405:Generated_Source\PSoC4/Input_Capsense_Structure.c ****     {
1406:Generated_Source\PSoC4/Input_Capsense_Structure.c ****         result |= Input_Capsense_dsRam.wdgtStatus[wdWord];
 491              		.loc 1 1406 0
 492 0006 131D     		adds	r3, r2, #4
 493 0008 9B00     		lsls	r3, r3, #2
 494 000a 0449     		ldr	r1, .L44
 495 000c CB18     		adds	r3, r1, r3
 496 000e 5B68     		ldr	r3, [r3, #4]
 497 0010 1843     		orrs	r0, r3
 498              	.LVL52:
1404:Generated_Source\PSoC4/Input_Capsense_Structure.c ****     {
 499              		.loc 1 1404 0
 500 0012 1300     		movs	r3, r2
 501              	.LVL53:
 502              	.L42:
ARM GAS  C:\Users\doita\AppData\Local\Temp\ccsDJsU6.s 			page 35


1404:Generated_Source\PSoC4/Input_Capsense_Structure.c ****     {
 503              		.loc 1 1404 0 is_stmt 0 discriminator 1
 504 0014 5A1E     		subs	r2, r3, #1
 505              	.LVL54:
 506 0016 002B     		cmp	r3, #0
 507 0018 F5D1     		bne	.L43
1407:Generated_Source\PSoC4/Input_Capsense_Structure.c ****     }
1408:Generated_Source\PSoC4/Input_Capsense_Structure.c **** 
1409:Generated_Source\PSoC4/Input_Capsense_Structure.c ****     return result;
1410:Generated_Source\PSoC4/Input_Capsense_Structure.c **** }
 508              		.loc 1 1410 0 is_stmt 1
 509              		@ sp needed
 510 001a 7047     		bx	lr
 511              	.L45:
 512              		.align	2
 513              	.L44:
 514 001c 00000000 		.word	Input_Capsense_dsRam
 515              		.cfi_endproc
 516              	.LFE5:
 517              		.size	Input_Capsense_IsAnyWidgetActive, .-Input_Capsense_IsAnyWidgetActive
 518              		.section	.text.Input_Capsense_IsWidgetActive,"ax",%progbits
 519              		.align	2
 520              		.global	Input_Capsense_IsWidgetActive
 521              		.code	16
 522              		.thumb_func
 523              		.type	Input_Capsense_IsWidgetActive, %function
 524              	Input_Capsense_IsWidgetActive:
 525              	.LFB6:
1411:Generated_Source\PSoC4/Input_Capsense_Structure.c **** 
1412:Generated_Source\PSoC4/Input_Capsense_Structure.c **** 
1413:Generated_Source\PSoC4/Input_Capsense_Structure.c **** /*******************************************************************************
1414:Generated_Source\PSoC4/Input_Capsense_Structure.c **** * Function Name: Input_Capsense_IsWidgetActive
1415:Generated_Source\PSoC4/Input_Capsense_Structure.c **** ****************************************************************************//**
1416:Generated_Source\PSoC4/Input_Capsense_Structure.c **** *
1417:Generated_Source\PSoC4/Input_Capsense_Structure.c **** * \brief
1418:Generated_Source\PSoC4/Input_Capsense_Structure.c **** *  Reports if the specified widget detects a touch on any of its sensors.
1419:Generated_Source\PSoC4/Input_Capsense_Structure.c **** *
1420:Generated_Source\PSoC4/Input_Capsense_Structure.c **** * \details
1421:Generated_Source\PSoC4/Input_Capsense_Structure.c **** *  This function reports if the specified widget has detected a touch or not by
1422:Generated_Source\PSoC4/Input_Capsense_Structure.c **** *  extracting information from the wdgtStatus registers
1423:Generated_Source\PSoC4/Input_Capsense_Structure.c **** *  (Input_Capsense_WDGT_STATUS<X>_VALUE). This function does not process the
1424:Generated_Source\PSoC4/Input_Capsense_Structure.c **** *  widget but extracts processed results from the \ref group_structures.
1425:Generated_Source\PSoC4/Input_Capsense_Structure.c **** *
1426:Generated_Source\PSoC4/Input_Capsense_Structure.c **** * \param widgetId
1427:Generated_Source\PSoC4/Input_Capsense_Structure.c **** *  Specifies the ID number of the widget to get its status.
1428:Generated_Source\PSoC4/Input_Capsense_Structure.c **** *  A macro for the widget ID can be found in the Input_Capsense Configuration header
1429:Generated_Source\PSoC4/Input_Capsense_Structure.c **** *  file defined as Input_Capsense_<WidgetName>_WDGT_ID.
1430:Generated_Source\PSoC4/Input_Capsense_Structure.c **** *
1431:Generated_Source\PSoC4/Input_Capsense_Structure.c **** * \return
1432:Generated_Source\PSoC4/Input_Capsense_Structure.c **** *  Returns the touch detection status of the specified widgets:
1433:Generated_Source\PSoC4/Input_Capsense_Structure.c **** *    - Zero - No touch is detected in the specified widget or a wrong widgetId
1434:Generated_Source\PSoC4/Input_Capsense_Structure.c **** *      is specified.
1435:Generated_Source\PSoC4/Input_Capsense_Structure.c **** *    - Non-zero if at least one sensor of the specified widget is active, i.e.
1436:Generated_Source\PSoC4/Input_Capsense_Structure.c **** *      a touch is detected.
1437:Generated_Source\PSoC4/Input_Capsense_Structure.c **** *
1438:Generated_Source\PSoC4/Input_Capsense_Structure.c **** *******************************************************************************/
1439:Generated_Source\PSoC4/Input_Capsense_Structure.c **** uint32 Input_Capsense_IsWidgetActive(uint32 widgetId)
ARM GAS  C:\Users\doita\AppData\Local\Temp\ccsDJsU6.s 			page 36


1440:Generated_Source\PSoC4/Input_Capsense_Structure.c **** {
 526              		.loc 1 1440 0
 527              		.cfi_startproc
 528              		@ args = 0, pretend = 0, frame = 0
 529              		@ frame_needed = 0, uses_anonymous_args = 0
 530              		@ link register save eliminated.
 531              	.LVL55:
1441:Generated_Source\PSoC4/Input_Capsense_Structure.c ****     uint32 result = 0Lu;
1442:Generated_Source\PSoC4/Input_Capsense_Structure.c **** 
1443:Generated_Source\PSoC4/Input_Capsense_Structure.c ****     if (widgetId < Input_Capsense_TOTAL_WIDGETS)
 532              		.loc 1 1443 0
 533 0000 0C28     		cmp	r0, #12
 534 0002 0BD8     		bhi	.L48
1444:Generated_Source\PSoC4/Input_Capsense_Structure.c ****     {
1445:Generated_Source\PSoC4/Input_Capsense_Structure.c ****         result = Input_Capsense_GET_WIDGET_ACTIVE_STATUS(widgetId);
 535              		.loc 1 1445 0
 536 0004 1F23     		movs	r3, #31
 537 0006 0340     		ands	r3, r0
 538 0008 0122     		movs	r2, #1
 539 000a 9A40     		lsls	r2, r2, r3
 540 000c 4009     		lsrs	r0, r0, #5
 541              	.LVL56:
 542 000e 031D     		adds	r3, r0, #4
 543 0010 9B00     		lsls	r3, r3, #2
 544 0012 0348     		ldr	r0, .L49
 545 0014 C318     		adds	r3, r0, r3
 546 0016 5868     		ldr	r0, [r3, #4]
 547 0018 1040     		ands	r0, r2
 548              	.LVL57:
 549 001a 00E0     		b	.L47
 550              	.LVL58:
 551              	.L48:
1441:Generated_Source\PSoC4/Input_Capsense_Structure.c ****     uint32 result = 0Lu;
 552              		.loc 1 1441 0
 553 001c 0020     		movs	r0, #0
 554              	.LVL59:
 555              	.L47:
1446:Generated_Source\PSoC4/Input_Capsense_Structure.c ****     }
1447:Generated_Source\PSoC4/Input_Capsense_Structure.c ****     return result;
1448:Generated_Source\PSoC4/Input_Capsense_Structure.c **** }
 556              		.loc 1 1448 0
 557              		@ sp needed
 558 001e 7047     		bx	lr
 559              	.L50:
 560              		.align	2
 561              	.L49:
 562 0020 00000000 		.word	Input_Capsense_dsRam
 563              		.cfi_endproc
 564              	.LFE6:
 565              		.size	Input_Capsense_IsWidgetActive, .-Input_Capsense_IsWidgetActive
 566              		.section	.text.Input_Capsense_IsSensorActive,"ax",%progbits
 567              		.align	2
 568              		.global	Input_Capsense_IsSensorActive
 569              		.code	16
 570              		.thumb_func
 571              		.type	Input_Capsense_IsSensorActive, %function
 572              	Input_Capsense_IsSensorActive:
ARM GAS  C:\Users\doita\AppData\Local\Temp\ccsDJsU6.s 			page 37


 573              	.LFB7:
1449:Generated_Source\PSoC4/Input_Capsense_Structure.c **** 
1450:Generated_Source\PSoC4/Input_Capsense_Structure.c **** 
1451:Generated_Source\PSoC4/Input_Capsense_Structure.c **** /*******************************************************************************
1452:Generated_Source\PSoC4/Input_Capsense_Structure.c **** * Function Name: Input_Capsense_IsSensorActive
1453:Generated_Source\PSoC4/Input_Capsense_Structure.c **** ****************************************************************************//**
1454:Generated_Source\PSoC4/Input_Capsense_Structure.c **** *
1455:Generated_Source\PSoC4/Input_Capsense_Structure.c **** * \brief
1456:Generated_Source\PSoC4/Input_Capsense_Structure.c **** *  Reports if the specified sensor in the widget detects a touch.
1457:Generated_Source\PSoC4/Input_Capsense_Structure.c **** *
1458:Generated_Source\PSoC4/Input_Capsense_Structure.c **** * \details
1459:Generated_Source\PSoC4/Input_Capsense_Structure.c **** *  This function reports if the specified sensor in the widget has detected a
1460:Generated_Source\PSoC4/Input_Capsense_Structure.c **** *  touch or not by extracting information from the wdgtStatus registers
1461:Generated_Source\PSoC4/Input_Capsense_Structure.c **** *  (Input_Capsense_WDGT_STATUS<X>_VALUE). This function does not process the
1462:Generated_Source\PSoC4/Input_Capsense_Structure.c **** *  widget or sensor but extracts processed results from the \ref group_structures.
1463:Generated_Source\PSoC4/Input_Capsense_Structure.c **** *
1464:Generated_Source\PSoC4/Input_Capsense_Structure.c **** *  For proximity sensors, this function returns the proximity detection status. To
1465:Generated_Source\PSoC4/Input_Capsense_Structure.c **** *  get the finger touch status of proximity sensors, use the
1466:Generated_Source\PSoC4/Input_Capsense_Structure.c **** *  Input_Capsense_IsProximitySensorActive() function.
1467:Generated_Source\PSoC4/Input_Capsense_Structure.c **** *
1468:Generated_Source\PSoC4/Input_Capsense_Structure.c **** * \param widgetId
1469:Generated_Source\PSoC4/Input_Capsense_Structure.c **** *  Specifies the ID number of the widget.
1470:Generated_Source\PSoC4/Input_Capsense_Structure.c **** *  A macro for the widget ID can be found in the Input_Capsense Configuration header
1471:Generated_Source\PSoC4/Input_Capsense_Structure.c **** *  file defined as Input_Capsense_<WidgetName>_WDGT_ID.
1472:Generated_Source\PSoC4/Input_Capsense_Structure.c **** 
1473:Generated_Source\PSoC4/Input_Capsense_Structure.c **** * \param sensorId
1474:Generated_Source\PSoC4/Input_Capsense_Structure.c **** *  Specifies the ID number of the sensor within the widget to get its touch
1475:Generated_Source\PSoC4/Input_Capsense_Structure.c **** *  detection status.
1476:Generated_Source\PSoC4/Input_Capsense_Structure.c **** *  A macro for the sensor ID within the specified widget can be found in the
1477:Generated_Source\PSoC4/Input_Capsense_Structure.c **** *  Input_Capsense Configuration header file defined as
1478:Generated_Source\PSoC4/Input_Capsense_Structure.c **** *  Input_Capsense_<WidgetName>_SNS<SensorNumber>_ID.
1479:Generated_Source\PSoC4/Input_Capsense_Structure.c **** *
1480:Generated_Source\PSoC4/Input_Capsense_Structure.c **** * \return
1481:Generated_Source\PSoC4/Input_Capsense_Structure.c **** *  Returns the touch detection status of the specified sensor / widget:
1482:Generated_Source\PSoC4/Input_Capsense_Structure.c **** *    - Zero if no touch is detected in the specified sensor / widget or a wrong
1483:Generated_Source\PSoC4/Input_Capsense_Structure.c **** *      widget ID / sensor ID is specified.
1484:Generated_Source\PSoC4/Input_Capsense_Structure.c **** *    - Non-zero if the specified sensor is active i.e. touch is detected. If the
1485:Generated_Source\PSoC4/Input_Capsense_Structure.c **** *      specific sensor belongs to a proximity widget, the proximity detection
1486:Generated_Source\PSoC4/Input_Capsense_Structure.c **** *      status is returned.
1487:Generated_Source\PSoC4/Input_Capsense_Structure.c **** *
1488:Generated_Source\PSoC4/Input_Capsense_Structure.c **** *******************************************************************************/
1489:Generated_Source\PSoC4/Input_Capsense_Structure.c **** uint32 Input_Capsense_IsSensorActive(uint32 widgetId, uint32 sensorId)
1490:Generated_Source\PSoC4/Input_Capsense_Structure.c **** {
 574              		.loc 1 1490 0
 575              		.cfi_startproc
 576              		@ args = 0, pretend = 0, frame = 0
 577              		@ frame_needed = 0, uses_anonymous_args = 0
 578              		@ link register save eliminated.
 579              	.LVL60:
1491:Generated_Source\PSoC4/Input_Capsense_Structure.c ****     uint32 result = 0Lu;
1492:Generated_Source\PSoC4/Input_Capsense_Structure.c **** 
1493:Generated_Source\PSoC4/Input_Capsense_Structure.c ****     if ((widgetId < Input_Capsense_TOTAL_WIDGETS) &&
 580              		.loc 1 1493 0
 581 0000 0C28     		cmp	r0, #12
 582 0002 0CD8     		bhi	.L53
1494:Generated_Source\PSoC4/Input_Capsense_Structure.c ****         (sensorId < Input_Capsense_GET_SENSOR_COUNT(widgetId)))
 583              		.loc 1 1494 0 discriminator 1
ARM GAS  C:\Users\doita\AppData\Local\Temp\ccsDJsU6.s 			page 38


 584 0004 4301     		lsls	r3, r0, #5
 585 0006 084A     		ldr	r2, .L55
 586 0008 D318     		adds	r3, r2, r3
 587 000a 1B8D     		ldrh	r3, [r3, #40]
1493:Generated_Source\PSoC4/Input_Capsense_Structure.c ****         (sensorId < Input_Capsense_GET_SENSOR_COUNT(widgetId)))
 588              		.loc 1 1493 0 discriminator 1
 589 000c 8B42     		cmp	r3, r1
 590 000e 08D9     		bls	.L54
1495:Generated_Source\PSoC4/Input_Capsense_Structure.c ****     {
1496:Generated_Source\PSoC4/Input_Capsense_Structure.c ****         #if (Input_Capsense_ENABLE == Input_Capsense_PROXIMITY_WIDGET_EN)
1497:Generated_Source\PSoC4/Input_Capsense_Structure.c ****             if (Input_Capsense_WD_PROXIMITY_E ==
1498:Generated_Source\PSoC4/Input_Capsense_Structure.c ****                 (Input_Capsense_WD_TYPE_ENUM)Input_Capsense_dsFlash.wdgtArray[widgetId].wdgtType)
1499:Generated_Source\PSoC4/Input_Capsense_Structure.c ****             {
1500:Generated_Source\PSoC4/Input_Capsense_Structure.c ****                 sensorId = Input_Capsense_PROX_STS_OFFSET(sensorId);
1501:Generated_Source\PSoC4/Input_Capsense_Structure.c ****             }
1502:Generated_Source\PSoC4/Input_Capsense_Structure.c ****         #endif /* (Input_Capsense_ENABLE != Input_Capsense_PROXIMITY_WIDGET_EN) */
1503:Generated_Source\PSoC4/Input_Capsense_Structure.c ****         result = Input_Capsense_dsRam.snsStatus[widgetId] & (1Lu << sensorId);
 591              		.loc 1 1503 0
 592 0010 064B     		ldr	r3, .L55+4
 593 0012 1818     		adds	r0, r3, r0
 594              	.LVL61:
 595 0014 037E     		ldrb	r3, [r0, #24]
 596 0016 0120     		movs	r0, #1
 597 0018 8840     		lsls	r0, r0, r1
 598 001a 1840     		ands	r0, r3
 599              	.LVL62:
 600 001c 02E0     		b	.L52
 601              	.LVL63:
 602              	.L53:
1491:Generated_Source\PSoC4/Input_Capsense_Structure.c **** 
 603              		.loc 1 1491 0
 604 001e 0020     		movs	r0, #0
 605              	.LVL64:
 606 0020 00E0     		b	.L52
 607              	.LVL65:
 608              	.L54:
 609 0022 0020     		movs	r0, #0
 610              	.LVL66:
 611              	.L52:
1504:Generated_Source\PSoC4/Input_Capsense_Structure.c ****     }
1505:Generated_Source\PSoC4/Input_Capsense_Structure.c **** 
1506:Generated_Source\PSoC4/Input_Capsense_Structure.c ****     return result;
1507:Generated_Source\PSoC4/Input_Capsense_Structure.c **** }
 612              		.loc 1 1507 0
 613              		@ sp needed
 614 0024 7047     		bx	lr
 615              	.L56:
 616 0026 C046     		.align	2
 617              	.L55:
 618 0028 00000000 		.word	.LANCHOR0
 619 002c 00000000 		.word	Input_Capsense_dsRam
 620              		.cfi_endproc
 621              	.LFE7:
 622              		.size	Input_Capsense_IsSensorActive, .-Input_Capsense_IsSensorActive
 623              		.global	Input_Capsense_ramIdacInit
 624              		.global	Input_Capsense_ramWidgetInit
 625              		.global	Input_Capsense_ioList
ARM GAS  C:\Users\doita\AppData\Local\Temp\ccsDJsU6.s 			page 39


 626              		.global	Input_Capsense_dsFlash
 627              		.comm	Input_Capsense_dsRam,440,4
 628              		.section	.rodata
 629              		.align	2
 630              		.set	.LANCHOR0,. + 0
 631              		.set	.LANCHOR1,. + 384
 632              		.type	Input_Capsense_ramIdacInit, %object
 633              		.size	Input_Capsense_ramIdacInit, 13
 634              	Input_Capsense_ramIdacInit:
 635 0000 20       		.byte	32
 636 0001 20       		.byte	32
 637 0002 20       		.byte	32
 638 0003 20       		.byte	32
 639 0004 20       		.byte	32
 640 0005 20       		.byte	32
 641 0006 20       		.byte	32
 642 0007 20       		.byte	32
 643 0008 20       		.byte	32
 644 0009 20       		.byte	32
 645 000a 20       		.byte	32
 646 000b 20       		.byte	32
 647 000c 20       		.byte	32
 648 000d 000000   		.space	3
 649              		.type	Input_Capsense_dsFlash, %object
 650              		.size	Input_Capsense_dsFlash, 416
 651              	Input_Capsense_dsFlash:
 652 0010 00000000 		.word	Input_Capsense_ioList
 653 0014 2A000000 		.word	Input_Capsense_dsRam+42
 654 0018 2E010000 		.word	Input_Capsense_dsRam+302
 655 001c 00000000 		.word	0
 656 0020 CC000000 		.word	Input_Capsense_debouncesw100
 657 0024 01280000 		.word	10241
 658 0028 0100     		.short	1
 659 002a 01       		.byte	1
 660 002b 01       		.byte	1
 661 002c 90000000 		.word	Input_Capsense_noiseEnvlpsw100
 662 0030 1C000000 		.word	Input_Capsense_ioList+28
 663 0034 3E000000 		.word	Input_Capsense_dsRam+62
 664 0038 38010000 		.word	Input_Capsense_dsRam+312
 665 003c 00000000 		.word	0
 666 0040 C8000000 		.word	Input_Capsense_debouncesw101
 667 0044 01280000 		.word	10241
 668 0048 0100     		.short	1
 669 004a 01       		.byte	1
 670 004b 01       		.byte	1
 671 004c 84000000 		.word	Input_Capsense_noiseEnvlpsw101
 672 0050 38000000 		.word	Input_Capsense_ioList+56
 673 0054 52000000 		.word	Input_Capsense_dsRam+82
 674 0058 42010000 		.word	Input_Capsense_dsRam+322
 675 005c 00000000 		.word	0
 676 0060 C4000000 		.word	Input_Capsense_debouncesw102
 677 0064 01280000 		.word	10241
 678 0068 0100     		.short	1
 679 006a 01       		.byte	1
 680 006b 01       		.byte	1
 681 006c 78000000 		.word	Input_Capsense_noiseEnvlpsw102
 682 0070 54000000 		.word	Input_Capsense_ioList+84
ARM GAS  C:\Users\doita\AppData\Local\Temp\ccsDJsU6.s 			page 40


 683 0074 66000000 		.word	Input_Capsense_dsRam+102
 684 0078 4C010000 		.word	Input_Capsense_dsRam+332
 685 007c 00000000 		.word	0
 686 0080 C0000000 		.word	Input_Capsense_debouncesw103
 687 0084 01280000 		.word	10241
 688 0088 0100     		.short	1
 689 008a 01       		.byte	1
 690 008b 01       		.byte	1
 691 008c 6C000000 		.word	Input_Capsense_noiseEnvlpsw103
 692 0090 70000000 		.word	Input_Capsense_ioList+112
 693 0094 7A000000 		.word	Input_Capsense_dsRam+122
 694 0098 56010000 		.word	Input_Capsense_dsRam+342
 695 009c 00000000 		.word	0
 696 00a0 BC000000 		.word	Input_Capsense_debouncesw104
 697 00a4 01280000 		.word	10241
 698 00a8 0100     		.short	1
 699 00aa 01       		.byte	1
 700 00ab 01       		.byte	1
 701 00ac 60000000 		.word	Input_Capsense_noiseEnvlpsw104
 702 00b0 8C000000 		.word	Input_Capsense_ioList+140
 703 00b4 8E000000 		.word	Input_Capsense_dsRam+142
 704 00b8 60010000 		.word	Input_Capsense_dsRam+352
 705 00bc 00000000 		.word	0
 706 00c0 B8000000 		.word	Input_Capsense_debouncesw105
 707 00c4 01280000 		.word	10241
 708 00c8 0100     		.short	1
 709 00ca 01       		.byte	1
 710 00cb 01       		.byte	1
 711 00cc 54000000 		.word	Input_Capsense_noiseEnvlpsw105
 712 00d0 A8000000 		.word	Input_Capsense_ioList+168
 713 00d4 A2000000 		.word	Input_Capsense_dsRam+162
 714 00d8 6A010000 		.word	Input_Capsense_dsRam+362
 715 00dc 00000000 		.word	0
 716 00e0 B4000000 		.word	Input_Capsense_debouncesw106
 717 00e4 01280000 		.word	10241
 718 00e8 0100     		.short	1
 719 00ea 01       		.byte	1
 720 00eb 01       		.byte	1
 721 00ec 48000000 		.word	Input_Capsense_noiseEnvlpsw106
 722 00f0 C4000000 		.word	Input_Capsense_ioList+196
 723 00f4 B6000000 		.word	Input_Capsense_dsRam+182
 724 00f8 74010000 		.word	Input_Capsense_dsRam+372
 725 00fc 00000000 		.word	0
 726 0100 B0000000 		.word	Input_Capsense_debouncesw107
 727 0104 01280000 		.word	10241
 728 0108 0100     		.short	1
 729 010a 01       		.byte	1
 730 010b 01       		.byte	1
 731 010c 3C000000 		.word	Input_Capsense_noiseEnvlpsw107
 732 0110 E0000000 		.word	Input_Capsense_ioList+224
 733 0114 CA000000 		.word	Input_Capsense_dsRam+202
 734 0118 7E010000 		.word	Input_Capsense_dsRam+382
 735 011c 00000000 		.word	0
 736 0120 AC000000 		.word	Input_Capsense_debouncesw108
 737 0124 01280000 		.word	10241
 738 0128 0100     		.short	1
 739 012a 01       		.byte	1
ARM GAS  C:\Users\doita\AppData\Local\Temp\ccsDJsU6.s 			page 41


 740 012b 01       		.byte	1
 741 012c 30000000 		.word	Input_Capsense_noiseEnvlpsw108
 742 0130 FC000000 		.word	Input_Capsense_ioList+252
 743 0134 DE000000 		.word	Input_Capsense_dsRam+222
 744 0138 88010000 		.word	Input_Capsense_dsRam+392
 745 013c 00000000 		.word	0
 746 0140 A8000000 		.word	Input_Capsense_debouncesw109
 747 0144 01280000 		.word	10241
 748 0148 0100     		.short	1
 749 014a 01       		.byte	1
 750 014b 01       		.byte	1
 751 014c 24000000 		.word	Input_Capsense_noiseEnvlpsw109
 752 0150 18010000 		.word	Input_Capsense_ioList+280
 753 0154 F2000000 		.word	Input_Capsense_dsRam+242
 754 0158 92010000 		.word	Input_Capsense_dsRam+402
 755 015c 00000000 		.word	0
 756 0160 A4000000 		.word	Input_Capsense_debouncesw110
 757 0164 01280000 		.word	10241
 758 0168 0100     		.short	1
 759 016a 01       		.byte	1
 760 016b 01       		.byte	1
 761 016c 18000000 		.word	Input_Capsense_noiseEnvlpsw110
 762 0170 34010000 		.word	Input_Capsense_ioList+308
 763 0174 06010000 		.word	Input_Capsense_dsRam+262
 764 0178 9C010000 		.word	Input_Capsense_dsRam+412
 765 017c 00000000 		.word	0
 766 0180 A0000000 		.word	Input_Capsense_debouncesw111
 767 0184 01280000 		.word	10241
 768 0188 0100     		.short	1
 769 018a 01       		.byte	1
 770 018b 01       		.byte	1
 771 018c 0C000000 		.word	Input_Capsense_noiseEnvlpsw111
 772 0190 50010000 		.word	Input_Capsense_ioList+336
 773 0194 1A010000 		.word	Input_Capsense_dsRam+282
 774 0198 A6010000 		.word	Input_Capsense_dsRam+422
 775 019c 00000000 		.word	0
 776 01a0 9C000000 		.word	Input_Capsense_debouncesw112
 777 01a4 01280000 		.word	10241
 778 01a8 0100     		.short	1
 779 01aa 01       		.byte	1
 780 01ab 01       		.byte	1
 781 01ac 00000000 		.word	Input_Capsense_noiseEnvlpsw112
 782              		.type	Input_Capsense_ramWidgetInit, %object
 783              		.size	Input_Capsense_ramWidgetInit, 260
 784              	Input_Capsense_ramWidgetInit:
 785 01b0 0C00     		.short	12
 786 01b2 6400     		.short	100
 787 01b4 28       		.byte	40
 788 01b5 28       		.byte	40
 789 01b6 0A       		.byte	10
 790 01b7 03       		.byte	3
 791 01b8 1E       		.byte	30
 792 01b9 20       		.byte	32
 793 01ba 05       		.byte	5
 794 01bb 00       		.space	1
 795 01bc 0400     		.short	4
 796 01be 00       		.byte	0
ARM GAS  C:\Users\doita\AppData\Local\Temp\ccsDJsU6.s 			page 42


 797 01bf 00       		.space	1
 798 01c0 A000     		.short	160
 799 01c2 0000     		.short	0
 800 01c4 0C00     		.short	12
 801 01c6 6400     		.short	100
 802 01c8 28       		.byte	40
 803 01c9 28       		.byte	40
 804 01ca 0A       		.byte	10
 805 01cb 03       		.byte	3
 806 01cc 1E       		.byte	30
 807 01cd 20       		.byte	32
 808 01ce 05       		.byte	5
 809 01cf 00       		.space	1
 810 01d0 0400     		.short	4
 811 01d2 00       		.byte	0
 812 01d3 00       		.space	1
 813 01d4 A000     		.short	160
 814 01d6 0000     		.short	0
 815 01d8 0C00     		.short	12
 816 01da 6400     		.short	100
 817 01dc 28       		.byte	40
 818 01dd 28       		.byte	40
 819 01de 0A       		.byte	10
 820 01df 03       		.byte	3
 821 01e0 1E       		.byte	30
 822 01e1 20       		.byte	32
 823 01e2 05       		.byte	5
 824 01e3 00       		.space	1
 825 01e4 0400     		.short	4
 826 01e6 00       		.byte	0
 827 01e7 00       		.space	1
 828 01e8 A000     		.short	160
 829 01ea 0000     		.short	0
 830 01ec 0C00     		.short	12
 831 01ee 6400     		.short	100
 832 01f0 28       		.byte	40
 833 01f1 28       		.byte	40
 834 01f2 0A       		.byte	10
 835 01f3 03       		.byte	3
 836 01f4 1E       		.byte	30
 837 01f5 20       		.byte	32
 838 01f6 05       		.byte	5
 839 01f7 00       		.space	1
 840 01f8 0400     		.short	4
 841 01fa 00       		.byte	0
 842 01fb 00       		.space	1
 843 01fc A000     		.short	160
 844 01fe 0000     		.short	0
 845 0200 0C00     		.short	12
 846 0202 6400     		.short	100
 847 0204 28       		.byte	40
 848 0205 28       		.byte	40
 849 0206 0A       		.byte	10
 850 0207 03       		.byte	3
 851 0208 1E       		.byte	30
 852 0209 20       		.byte	32
 853 020a 05       		.byte	5
ARM GAS  C:\Users\doita\AppData\Local\Temp\ccsDJsU6.s 			page 43


 854 020b 00       		.space	1
 855 020c 0400     		.short	4
 856 020e 00       		.byte	0
 857 020f 00       		.space	1
 858 0210 A000     		.short	160
 859 0212 0000     		.short	0
 860 0214 0C00     		.short	12
 861 0216 6400     		.short	100
 862 0218 28       		.byte	40
 863 0219 28       		.byte	40
 864 021a 0A       		.byte	10
 865 021b 03       		.byte	3
 866 021c 1E       		.byte	30
 867 021d 20       		.byte	32
 868 021e 05       		.byte	5
 869 021f 00       		.space	1
 870 0220 0400     		.short	4
 871 0222 00       		.byte	0
 872 0223 00       		.space	1
 873 0224 A000     		.short	160
 874 0226 0000     		.short	0
 875 0228 0C00     		.short	12
 876 022a 6400     		.short	100
 877 022c 28       		.byte	40
 878 022d 28       		.byte	40
 879 022e 0A       		.byte	10
 880 022f 03       		.byte	3
 881 0230 1E       		.byte	30
 882 0231 20       		.byte	32
 883 0232 05       		.byte	5
 884 0233 00       		.space	1
 885 0234 0400     		.short	4
 886 0236 00       		.byte	0
 887 0237 00       		.space	1
 888 0238 A000     		.short	160
 889 023a 0000     		.short	0
 890 023c 0C00     		.short	12
 891 023e 6400     		.short	100
 892 0240 28       		.byte	40
 893 0241 28       		.byte	40
 894 0242 0A       		.byte	10
 895 0243 03       		.byte	3
 896 0244 1E       		.byte	30
 897 0245 20       		.byte	32
 898 0246 05       		.byte	5
 899 0247 00       		.space	1
 900 0248 0400     		.short	4
 901 024a 00       		.byte	0
 902 024b 00       		.space	1
 903 024c A000     		.short	160
 904 024e 0000     		.short	0
 905 0250 0C00     		.short	12
 906 0252 6400     		.short	100
 907 0254 28       		.byte	40
 908 0255 28       		.byte	40
 909 0256 0A       		.byte	10
 910 0257 03       		.byte	3
ARM GAS  C:\Users\doita\AppData\Local\Temp\ccsDJsU6.s 			page 44


 911 0258 1E       		.byte	30
 912 0259 20       		.byte	32
 913 025a 05       		.byte	5
 914 025b 00       		.space	1
 915 025c 0400     		.short	4
 916 025e 00       		.byte	0
 917 025f 00       		.space	1
 918 0260 A000     		.short	160
 919 0262 0000     		.short	0
 920 0264 0C00     		.short	12
 921 0266 6400     		.short	100
 922 0268 28       		.byte	40
 923 0269 28       		.byte	40
 924 026a 0A       		.byte	10
 925 026b 03       		.byte	3
 926 026c 1E       		.byte	30
 927 026d 20       		.byte	32
 928 026e 05       		.byte	5
 929 026f 00       		.space	1
 930 0270 0400     		.short	4
 931 0272 00       		.byte	0
 932 0273 00       		.space	1
 933 0274 A000     		.short	160
 934 0276 0000     		.short	0
 935 0278 0C00     		.short	12
 936 027a 6400     		.short	100
 937 027c 28       		.byte	40
 938 027d 28       		.byte	40
 939 027e 0A       		.byte	10
 940 027f 03       		.byte	3
 941 0280 1E       		.byte	30
 942 0281 20       		.byte	32
 943 0282 05       		.byte	5
 944 0283 00       		.space	1
 945 0284 0400     		.short	4
 946 0286 00       		.byte	0
 947 0287 00       		.space	1
 948 0288 A000     		.short	160
 949 028a 0000     		.short	0
 950 028c 0C00     		.short	12
 951 028e 6400     		.short	100
 952 0290 28       		.byte	40
 953 0291 28       		.byte	40
 954 0292 0A       		.byte	10
 955 0293 03       		.byte	3
 956 0294 1E       		.byte	30
 957 0295 20       		.byte	32
 958 0296 05       		.byte	5
 959 0297 00       		.space	1
 960 0298 0400     		.short	4
 961 029a 00       		.byte	0
 962 029b 00       		.space	1
 963 029c A000     		.short	160
 964 029e 0000     		.short	0
 965 02a0 0C00     		.short	12
 966 02a2 6400     		.short	100
 967 02a4 28       		.byte	40
ARM GAS  C:\Users\doita\AppData\Local\Temp\ccsDJsU6.s 			page 45


 968 02a5 28       		.byte	40
 969 02a6 0A       		.byte	10
 970 02a7 03       		.byte	3
 971 02a8 1E       		.byte	30
 972 02a9 20       		.byte	32
 973 02aa 05       		.byte	5
 974 02ab 00       		.space	1
 975 02ac 0400     		.short	4
 976 02ae 00       		.byte	0
 977 02af 00       		.space	1
 978 02b0 A000     		.short	160
 979 02b2 0000     		.short	0
 980              		.type	Input_Capsense_ioList, %object
 981              		.size	Input_Capsense_ioList, 364
 982              	Input_Capsense_ioList:
 983 02b4 00020240 		.word	1073873408
 984 02b8 08020440 		.word	1074004488
 985 02bc 00020440 		.word	1074004480
 986 02c0 04020440 		.word	1074004484
 987 02c4 0F000000 		.word	15
 988 02c8 01000000 		.word	1
 989 02cc 00       		.byte	0
 990 02cd 00       		.byte	0
 991 02ce 00       		.byte	0
 992 02cf 00       		.space	1
 993 02d0 00020240 		.word	1073873408
 994 02d4 08020440 		.word	1074004488
 995 02d8 00020440 		.word	1074004480
 996 02dc 04020440 		.word	1074004484
 997 02e0 F0000000 		.word	240
 998 02e4 02000000 		.word	2
 999 02e8 04       		.byte	4
 1000 02e9 01       		.byte	1
 1001 02ea 03       		.byte	3
 1002 02eb 00       		.space	1
 1003 02ec 00020240 		.word	1073873408
 1004 02f0 08020440 		.word	1074004488
 1005 02f4 00020440 		.word	1074004480
 1006 02f8 04020440 		.word	1074004484
 1007 02fc 000F0000 		.word	3840
 1008 0300 04000000 		.word	4
 1009 0304 08       		.byte	8
 1010 0305 02       		.byte	2
 1011 0306 06       		.byte	6
 1012 0307 00       		.space	1
 1013 0308 00020240 		.word	1073873408
 1014 030c 08020440 		.word	1074004488
 1015 0310 00020440 		.word	1074004480
 1016 0314 04020440 		.word	1074004484
 1017 0318 00F00000 		.word	61440
 1018 031c 08000000 		.word	8
 1019 0320 0C       		.byte	12
 1020 0321 03       		.byte	3
 1021 0322 09       		.byte	9
 1022 0323 00       		.space	1
 1023 0324 00020240 		.word	1073873408
 1024 0328 08020440 		.word	1074004488
ARM GAS  C:\Users\doita\AppData\Local\Temp\ccsDJsU6.s 			page 46


 1025 032c 00020440 		.word	1074004480
 1026 0330 04020440 		.word	1074004484
 1027 0334 00000F00 		.word	983040
 1028 0338 10000000 		.word	16
 1029 033c 10       		.byte	16
 1030 033d 04       		.byte	4
 1031 033e 0C       		.byte	12
 1032 033f 00       		.space	1
 1033 0340 00020240 		.word	1073873408
 1034 0344 08020440 		.word	1074004488
 1035 0348 00020440 		.word	1074004480
 1036 034c 04020440 		.word	1074004484
 1037 0350 0000F000 		.word	15728640
 1038 0354 20000000 		.word	32
 1039 0358 14       		.byte	20
 1040 0359 05       		.byte	5
 1041 035a 0F       		.byte	15
 1042 035b 00       		.space	1
 1043 035c 00020240 		.word	1073873408
 1044 0360 08020440 		.word	1074004488
 1045 0364 00020440 		.word	1074004480
 1046 0368 04020440 		.word	1074004484
 1047 036c 0000000F 		.word	251658240
 1048 0370 40000000 		.word	64
 1049 0374 18       		.byte	24
 1050 0375 06       		.byte	6
 1051 0376 12       		.byte	18
 1052 0377 00       		.space	1
 1053 0378 00020240 		.word	1073873408
 1054 037c 08020440 		.word	1074004488
 1055 0380 00020440 		.word	1074004480
 1056 0384 04020440 		.word	1074004484
 1057 0388 000000F0 		.word	-268435456
 1058 038c 80000000 		.word	128
 1059 0390 1C       		.byte	28
 1060 0391 07       		.byte	7
 1061 0392 15       		.byte	21
 1062 0393 00       		.space	1
 1063 0394 00060240 		.word	1073874432
 1064 0398 08060440 		.word	1074005512
 1065 039c 00060440 		.word	1074005504
 1066 03a0 04060440 		.word	1074005508
 1067 03a4 0F000000 		.word	15
 1068 03a8 01000000 		.word	1
 1069 03ac 00       		.byte	0
 1070 03ad 00       		.byte	0
 1071 03ae 00       		.byte	0
 1072 03af 00       		.space	1
 1073 03b0 00060240 		.word	1073874432
 1074 03b4 08060440 		.word	1074005512
 1075 03b8 00060440 		.word	1074005504
 1076 03bc 04060440 		.word	1074005508
 1077 03c0 F0000000 		.word	240
 1078 03c4 02000000 		.word	2
 1079 03c8 04       		.byte	4
 1080 03c9 01       		.byte	1
 1081 03ca 03       		.byte	3
ARM GAS  C:\Users\doita\AppData\Local\Temp\ccsDJsU6.s 			page 47


 1082 03cb 00       		.space	1
 1083 03cc 00060240 		.word	1073874432
 1084 03d0 08060440 		.word	1074005512
 1085 03d4 00060440 		.word	1074005504
 1086 03d8 04060440 		.word	1074005508
 1087 03dc 000F0000 		.word	3840
 1088 03e0 04000000 		.word	4
 1089 03e4 08       		.byte	8
 1090 03e5 02       		.byte	2
 1091 03e6 06       		.byte	6
 1092 03e7 00       		.space	1
 1093 03e8 00060240 		.word	1073874432
 1094 03ec 08060440 		.word	1074005512
 1095 03f0 00060440 		.word	1074005504
 1096 03f4 04060440 		.word	1074005508
 1097 03f8 00000F00 		.word	983040
 1098 03fc 10000000 		.word	16
 1099 0400 10       		.byte	16
 1100 0401 04       		.byte	4
 1101 0402 0C       		.byte	12
 1102 0403 00       		.space	1
 1103 0404 00030240 		.word	1073873664
 1104 0408 08030440 		.word	1074004744
 1105 040c 00030440 		.word	1074004736
 1106 0410 04030440 		.word	1074004740
 1107 0414 0F000000 		.word	15
 1108 0418 01000000 		.word	1
 1109 041c 00       		.byte	0
 1110 041d 00       		.byte	0
 1111 041e 00       		.byte	0
 1112 041f 00       		.space	1
 1113              		.bss
 1114              		.align	2
 1115              		.type	Input_Capsense_noiseEnvlpsw112, %object
 1116              		.size	Input_Capsense_noiseEnvlpsw112, 12
 1117              	Input_Capsense_noiseEnvlpsw112:
 1118 0000 00000000 		.space	12
 1118      00000000 
 1118      00000000 
 1119              		.type	Input_Capsense_noiseEnvlpsw111, %object
 1120              		.size	Input_Capsense_noiseEnvlpsw111, 12
 1121              	Input_Capsense_noiseEnvlpsw111:
 1122 000c 00000000 		.space	12
 1122      00000000 
 1122      00000000 
 1123              		.type	Input_Capsense_noiseEnvlpsw110, %object
 1124              		.size	Input_Capsense_noiseEnvlpsw110, 12
 1125              	Input_Capsense_noiseEnvlpsw110:
 1126 0018 00000000 		.space	12
 1126      00000000 
 1126      00000000 
 1127              		.type	Input_Capsense_noiseEnvlpsw109, %object
 1128              		.size	Input_Capsense_noiseEnvlpsw109, 12
 1129              	Input_Capsense_noiseEnvlpsw109:
 1130 0024 00000000 		.space	12
 1130      00000000 
 1130      00000000 
ARM GAS  C:\Users\doita\AppData\Local\Temp\ccsDJsU6.s 			page 48


 1131              		.type	Input_Capsense_noiseEnvlpsw108, %object
 1132              		.size	Input_Capsense_noiseEnvlpsw108, 12
 1133              	Input_Capsense_noiseEnvlpsw108:
 1134 0030 00000000 		.space	12
 1134      00000000 
 1134      00000000 
 1135              		.type	Input_Capsense_noiseEnvlpsw107, %object
 1136              		.size	Input_Capsense_noiseEnvlpsw107, 12
 1137              	Input_Capsense_noiseEnvlpsw107:
 1138 003c 00000000 		.space	12
 1138      00000000 
 1138      00000000 
 1139              		.type	Input_Capsense_noiseEnvlpsw106, %object
 1140              		.size	Input_Capsense_noiseEnvlpsw106, 12
 1141              	Input_Capsense_noiseEnvlpsw106:
 1142 0048 00000000 		.space	12
 1142      00000000 
 1142      00000000 
 1143              		.type	Input_Capsense_noiseEnvlpsw105, %object
 1144              		.size	Input_Capsense_noiseEnvlpsw105, 12
 1145              	Input_Capsense_noiseEnvlpsw105:
 1146 0054 00000000 		.space	12
 1146      00000000 
 1146      00000000 
 1147              		.type	Input_Capsense_noiseEnvlpsw104, %object
 1148              		.size	Input_Capsense_noiseEnvlpsw104, 12
 1149              	Input_Capsense_noiseEnvlpsw104:
 1150 0060 00000000 		.space	12
 1150      00000000 
 1150      00000000 
 1151              		.type	Input_Capsense_noiseEnvlpsw103, %object
 1152              		.size	Input_Capsense_noiseEnvlpsw103, 12
 1153              	Input_Capsense_noiseEnvlpsw103:
 1154 006c 00000000 		.space	12
 1154      00000000 
 1154      00000000 
 1155              		.type	Input_Capsense_noiseEnvlpsw102, %object
 1156              		.size	Input_Capsense_noiseEnvlpsw102, 12
 1157              	Input_Capsense_noiseEnvlpsw102:
 1158 0078 00000000 		.space	12
 1158      00000000 
 1158      00000000 
 1159              		.type	Input_Capsense_noiseEnvlpsw101, %object
 1160              		.size	Input_Capsense_noiseEnvlpsw101, 12
 1161              	Input_Capsense_noiseEnvlpsw101:
 1162 0084 00000000 		.space	12
 1162      00000000 
 1162      00000000 
 1163              		.type	Input_Capsense_noiseEnvlpsw100, %object
 1164              		.size	Input_Capsense_noiseEnvlpsw100, 12
 1165              	Input_Capsense_noiseEnvlpsw100:
 1166 0090 00000000 		.space	12
 1166      00000000 
 1166      00000000 
 1167              		.type	Input_Capsense_debouncesw112, %object
 1168              		.size	Input_Capsense_debouncesw112, 1
 1169              	Input_Capsense_debouncesw112:
ARM GAS  C:\Users\doita\AppData\Local\Temp\ccsDJsU6.s 			page 49


 1170 009c 00       		.space	1
 1171 009d 000000   		.space	3
 1172              		.type	Input_Capsense_debouncesw111, %object
 1173              		.size	Input_Capsense_debouncesw111, 1
 1174              	Input_Capsense_debouncesw111:
 1175 00a0 00       		.space	1
 1176 00a1 000000   		.space	3
 1177              		.type	Input_Capsense_debouncesw110, %object
 1178              		.size	Input_Capsense_debouncesw110, 1
 1179              	Input_Capsense_debouncesw110:
 1180 00a4 00       		.space	1
 1181 00a5 000000   		.space	3
 1182              		.type	Input_Capsense_debouncesw109, %object
 1183              		.size	Input_Capsense_debouncesw109, 1
 1184              	Input_Capsense_debouncesw109:
 1185 00a8 00       		.space	1
 1186 00a9 000000   		.space	3
 1187              		.type	Input_Capsense_debouncesw108, %object
 1188              		.size	Input_Capsense_debouncesw108, 1
 1189              	Input_Capsense_debouncesw108:
 1190 00ac 00       		.space	1
 1191 00ad 000000   		.space	3
 1192              		.type	Input_Capsense_debouncesw107, %object
 1193              		.size	Input_Capsense_debouncesw107, 1
 1194              	Input_Capsense_debouncesw107:
 1195 00b0 00       		.space	1
 1196 00b1 000000   		.space	3
 1197              		.type	Input_Capsense_debouncesw106, %object
 1198              		.size	Input_Capsense_debouncesw106, 1
 1199              	Input_Capsense_debouncesw106:
 1200 00b4 00       		.space	1
 1201 00b5 000000   		.space	3
 1202              		.type	Input_Capsense_debouncesw105, %object
 1203              		.size	Input_Capsense_debouncesw105, 1
 1204              	Input_Capsense_debouncesw105:
 1205 00b8 00       		.space	1
 1206 00b9 000000   		.space	3
 1207              		.type	Input_Capsense_debouncesw104, %object
 1208              		.size	Input_Capsense_debouncesw104, 1
 1209              	Input_Capsense_debouncesw104:
 1210 00bc 00       		.space	1
 1211 00bd 000000   		.space	3
 1212              		.type	Input_Capsense_debouncesw103, %object
 1213              		.size	Input_Capsense_debouncesw103, 1
 1214              	Input_Capsense_debouncesw103:
 1215 00c0 00       		.space	1
 1216 00c1 000000   		.space	3
 1217              		.type	Input_Capsense_debouncesw102, %object
 1218              		.size	Input_Capsense_debouncesw102, 1
 1219              	Input_Capsense_debouncesw102:
 1220 00c4 00       		.space	1
 1221 00c5 000000   		.space	3
 1222              		.type	Input_Capsense_debouncesw101, %object
 1223              		.size	Input_Capsense_debouncesw101, 1
 1224              	Input_Capsense_debouncesw101:
 1225 00c8 00       		.space	1
 1226 00c9 000000   		.space	3
ARM GAS  C:\Users\doita\AppData\Local\Temp\ccsDJsU6.s 			page 50


 1227              		.type	Input_Capsense_debouncesw100, %object
 1228              		.size	Input_Capsense_debouncesw100, 1
 1229              	Input_Capsense_debouncesw100:
 1230 00cc 00       		.space	1
 1231              		.text
 1232              	.Letext0:
 1233              		.file 2 "Generated_Source\\PSoC4/cytypes.h"
 1234              		.file 3 "Generated_Source\\PSoC4\\Input_Capsense_Configuration.h"
 1235              		.file 4 "Generated_Source\\PSoC4\\Input_Capsense_SmartSense_LL.h"
 1236              		.file 5 "Generated_Source\\PSoC4\\Input_Capsense_Structure.h"
 1237              		.file 6 "Generated_Source\\PSoC4\\CyLib.h"
 1238              		.section	.debug_info,"",%progbits
 1239              	.Ldebug_info0:
 1240 0000 B60D0000 		.4byte	0xdb6
 1241 0004 0400     		.2byte	0x4
 1242 0006 00000000 		.4byte	.Ldebug_abbrev0
 1243 000a 04       		.byte	0x4
 1244 000b 01       		.uleb128 0x1
 1245 000c EA020000 		.4byte	.LASF173
 1246 0010 0C       		.byte	0xc
 1247 0011 DC080000 		.4byte	.LASF174
 1248 0015 77070000 		.4byte	.LASF175
 1249 0019 00000000 		.4byte	.Ldebug_ranges0+0
 1250 001d 00000000 		.4byte	0
 1251 0021 00000000 		.4byte	.Ldebug_line0
 1252 0025 02       		.uleb128 0x2
 1253 0026 01       		.byte	0x1
 1254 0027 06       		.byte	0x6
 1255 0028 D50A0000 		.4byte	.LASF0
 1256 002c 02       		.uleb128 0x2
 1257 002d 01       		.byte	0x1
 1258 002e 08       		.byte	0x8
 1259 002f F0090000 		.4byte	.LASF1
 1260 0033 02       		.uleb128 0x2
 1261 0034 02       		.byte	0x2
 1262 0035 05       		.byte	0x5
 1263 0036 69080000 		.4byte	.LASF2
 1264 003a 02       		.uleb128 0x2
 1265 003b 02       		.byte	0x2
 1266 003c 07       		.byte	0x7
 1267 003d E60A0000 		.4byte	.LASF3
 1268 0041 02       		.uleb128 0x2
 1269 0042 04       		.byte	0x4
 1270 0043 05       		.byte	0x5
 1271 0044 73080000 		.4byte	.LASF4
 1272 0048 02       		.uleb128 0x2
 1273 0049 04       		.byte	0x4
 1274 004a 07       		.byte	0x7
 1275 004b 52090000 		.4byte	.LASF5
 1276 004f 02       		.uleb128 0x2
 1277 0050 08       		.byte	0x8
 1278 0051 05       		.byte	0x5
 1279 0052 8C060000 		.4byte	.LASF6
 1280 0056 02       		.uleb128 0x2
 1281 0057 08       		.byte	0x8
 1282 0058 07       		.byte	0x7
 1283 0059 8B030000 		.4byte	.LASF7
ARM GAS  C:\Users\doita\AppData\Local\Temp\ccsDJsU6.s 			page 51


 1284 005d 03       		.uleb128 0x3
 1285 005e 04       		.byte	0x4
 1286 005f 05       		.byte	0x5
 1287 0060 696E7400 		.ascii	"int\000"
 1288 0064 02       		.uleb128 0x2
 1289 0065 04       		.byte	0x4
 1290 0066 07       		.byte	0x7
 1291 0067 B3000000 		.4byte	.LASF8
 1292 006b 04       		.uleb128 0x4
 1293 006c 3B0B0000 		.4byte	.LASF9
 1294 0070 02       		.byte	0x2
 1295 0071 FC01     		.2byte	0x1fc
 1296 0073 2C000000 		.4byte	0x2c
 1297 0077 04       		.uleb128 0x4
 1298 0078 42060000 		.4byte	.LASF10
 1299 007c 02       		.byte	0x2
 1300 007d FD01     		.2byte	0x1fd
 1301 007f 3A000000 		.4byte	0x3a
 1302 0083 04       		.uleb128 0x4
 1303 0084 0C070000 		.4byte	.LASF11
 1304 0088 02       		.byte	0x2
 1305 0089 FE01     		.2byte	0x1fe
 1306 008b 48000000 		.4byte	0x48
 1307 008f 02       		.uleb128 0x2
 1308 0090 04       		.byte	0x4
 1309 0091 04       		.byte	0x4
 1310 0092 DE020000 		.4byte	.LASF12
 1311 0096 02       		.uleb128 0x2
 1312 0097 08       		.byte	0x8
 1313 0098 04       		.byte	0x4
 1314 0099 410B0000 		.4byte	.LASF13
 1315 009d 02       		.uleb128 0x2
 1316 009e 01       		.byte	0x1
 1317 009f 08       		.byte	0x8
 1318 00a0 0D060000 		.4byte	.LASF14
 1319 00a4 04       		.uleb128 0x4
 1320 00a5 E2090000 		.4byte	.LASF15
 1321 00a9 02       		.byte	0x2
 1322 00aa 9E02     		.2byte	0x29e
 1323 00ac 48000000 		.4byte	0x48
 1324 00b0 05       		.uleb128 0x5
 1325 00b1 6B000000 		.4byte	0x6b
 1326 00b5 05       		.uleb128 0x5
 1327 00b6 77000000 		.4byte	0x77
 1328 00ba 04       		.uleb128 0x4
 1329 00bb F8070000 		.4byte	.LASF16
 1330 00bf 02       		.byte	0x2
 1331 00c0 A802     		.2byte	0x2a8
 1332 00c2 C6000000 		.4byte	0xc6
 1333 00c6 05       		.uleb128 0x5
 1334 00c7 83000000 		.4byte	0x83
 1335 00cb 02       		.uleb128 0x2
 1336 00cc 08       		.byte	0x8
 1337 00cd 04       		.byte	0x4
 1338 00ce CE070000 		.4byte	.LASF17
 1339 00d2 02       		.uleb128 0x2
 1340 00d3 04       		.byte	0x4
ARM GAS  C:\Users\doita\AppData\Local\Temp\ccsDJsU6.s 			page 52


 1341 00d4 07       		.byte	0x7
 1342 00d5 41090000 		.4byte	.LASF18
 1343 00d9 06       		.uleb128 0x6
 1344 00da 04       		.byte	0x4
 1345 00db 04       		.uleb128 0x4
 1346 00dc DA070000 		.4byte	.LASF19
 1347 00e0 03       		.byte	0x3
 1348 00e1 4E01     		.2byte	0x14e
 1349 00e3 77000000 		.4byte	0x77
 1350 00e7 04       		.uleb128 0x4
 1351 00e8 1F000000 		.4byte	.LASF20
 1352 00ec 03       		.byte	0x3
 1353 00ed 5201     		.2byte	0x152
 1354 00ef 6B000000 		.4byte	0x6b
 1355 00f3 07       		.uleb128 0x7
 1356 00f4 0C       		.byte	0xc
 1357 00f5 04       		.byte	0x4
 1358 00f6 75       		.byte	0x75
 1359 00f7 50010000 		.4byte	0x150
 1360 00fb 08       		.uleb128 0x8
 1361 00fc 560B0000 		.4byte	.LASF21
 1362 0100 04       		.byte	0x4
 1363 0101 7A       		.byte	0x7a
 1364 0102 77000000 		.4byte	0x77
 1365 0106 00       		.byte	0
 1366 0107 08       		.uleb128 0x8
 1367 0108 5D0B0000 		.4byte	.LASF22
 1368 010c 04       		.byte	0x4
 1369 010d 7E       		.byte	0x7e
 1370 010e 77000000 		.4byte	0x77
 1371 0112 02       		.byte	0x2
 1372 0113 08       		.uleb128 0x8
 1373 0114 640B0000 		.4byte	.LASF23
 1374 0118 04       		.byte	0x4
 1375 0119 82       		.byte	0x82
 1376 011a 77000000 		.4byte	0x77
 1377 011e 04       		.byte	0x4
 1378 011f 08       		.uleb128 0x8
 1379 0120 6B0B0000 		.4byte	.LASF24
 1380 0124 04       		.byte	0x4
 1381 0125 86       		.byte	0x86
 1382 0126 77000000 		.4byte	0x77
 1383 012a 06       		.byte	0x6
 1384 012b 08       		.uleb128 0x8
 1385 012c 720B0000 		.4byte	.LASF25
 1386 0130 04       		.byte	0x4
 1387 0131 8A       		.byte	0x8a
 1388 0132 77000000 		.4byte	0x77
 1389 0136 08       		.byte	0x8
 1390 0137 08       		.uleb128 0x8
 1391 0138 790B0000 		.4byte	.LASF26
 1392 013c 04       		.byte	0x4
 1393 013d 8E       		.byte	0x8e
 1394 013e 6B000000 		.4byte	0x6b
 1395 0142 0A       		.byte	0xa
 1396 0143 08       		.uleb128 0x8
 1397 0144 800B0000 		.4byte	.LASF27
ARM GAS  C:\Users\doita\AppData\Local\Temp\ccsDJsU6.s 			page 53


 1398 0148 04       		.byte	0x4
 1399 0149 92       		.byte	0x92
 1400 014a 6B000000 		.4byte	0x6b
 1401 014e 0B       		.byte	0xb
 1402 014f 00       		.byte	0
 1403 0150 09       		.uleb128 0x9
 1404 0151 C2050000 		.4byte	.LASF28
 1405 0155 04       		.byte	0x4
 1406 0156 93       		.byte	0x93
 1407 0157 F3000000 		.4byte	0xf3
 1408 015b 0A       		.uleb128 0xa
 1409 015c 01       		.byte	0x1
 1410 015d 2C000000 		.4byte	0x2c
 1411 0161 05       		.byte	0x5
 1412 0162 61       		.byte	0x61
 1413 0163 92010000 		.4byte	0x192
 1414 0167 0B       		.uleb128 0xb
 1415 0168 910A0000 		.4byte	.LASF29
 1416 016c 01       		.byte	0x1
 1417 016d 0B       		.uleb128 0xb
 1418 016e F2040000 		.4byte	.LASF30
 1419 0172 02       		.byte	0x2
 1420 0173 0B       		.uleb128 0xb
 1421 0174 FD000000 		.4byte	.LASF31
 1422 0178 03       		.byte	0x3
 1423 0179 0B       		.uleb128 0xb
 1424 017a CD0B0000 		.4byte	.LASF32
 1425 017e 04       		.byte	0x4
 1426 017f 0B       		.uleb128 0xb
 1427 0180 4C080000 		.4byte	.LASF33
 1428 0184 05       		.byte	0x5
 1429 0185 0B       		.uleb128 0xb
 1430 0186 23090000 		.4byte	.LASF34
 1431 018a 06       		.byte	0x6
 1432 018b 0B       		.uleb128 0xb
 1433 018c A2030000 		.4byte	.LASF35
 1434 0190 07       		.byte	0x7
 1435 0191 00       		.byte	0
 1436 0192 0C       		.uleb128 0xc
 1437 0193 6B000000 		.4byte	0x6b
 1438 0197 A2010000 		.4byte	0x1a2
 1439 019b 0D       		.uleb128 0xd
 1440 019c D2000000 		.4byte	0xd2
 1441 01a0 00       		.byte	0
 1442 01a1 00       		.byte	0
 1443 01a2 07       		.uleb128 0x7
 1444 01a3 14       		.byte	0x14
 1445 01a4 05       		.byte	0x5
 1446 01a5 FE       		.byte	0xfe
 1447 01a6 54020000 		.4byte	0x254
 1448 01aa 0E       		.uleb128 0xe
 1449 01ab 61060000 		.4byte	.LASF36
 1450 01af 05       		.byte	0x5
 1451 01b0 0301     		.2byte	0x103
 1452 01b2 77000000 		.4byte	0x77
 1453 01b6 00       		.byte	0
 1454 01b7 0E       		.uleb128 0xe
ARM GAS  C:\Users\doita\AppData\Local\Temp\ccsDJsU6.s 			page 54


 1455 01b8 94090000 		.4byte	.LASF37
 1456 01bc 05       		.byte	0x5
 1457 01bd 0801     		.2byte	0x108
 1458 01bf DB000000 		.4byte	0xdb
 1459 01c3 02       		.byte	0x2
 1460 01c4 0E       		.uleb128 0xe
 1461 01c5 05060000 		.4byte	.LASF38
 1462 01c9 05       		.byte	0x5
 1463 01ca 0D01     		.2byte	0x10d
 1464 01cc 6B000000 		.4byte	0x6b
 1465 01d0 04       		.byte	0x4
 1466 01d1 0E       		.uleb128 0xe
 1467 01d2 EF060000 		.4byte	.LASF39
 1468 01d6 05       		.byte	0x5
 1469 01d7 1201     		.2byte	0x112
 1470 01d9 6B000000 		.4byte	0x6b
 1471 01dd 05       		.byte	0x5
 1472 01de 0E       		.uleb128 0xe
 1473 01df 89050000 		.4byte	.LASF40
 1474 01e3 05       		.byte	0x5
 1475 01e4 1801     		.2byte	0x118
 1476 01e6 6B000000 		.4byte	0x6b
 1477 01ea 06       		.byte	0x6
 1478 01eb 0E       		.uleb128 0xe
 1479 01ec A2060000 		.4byte	.LASF41
 1480 01f0 05       		.byte	0x5
 1481 01f1 1E01     		.2byte	0x11e
 1482 01f3 6B000000 		.4byte	0x6b
 1483 01f7 07       		.byte	0x7
 1484 01f8 0E       		.uleb128 0xe
 1485 01f9 AB050000 		.4byte	.LASF42
 1486 01fd 05       		.byte	0x5
 1487 01fe 2501     		.2byte	0x125
 1488 0200 E7000000 		.4byte	0xe7
 1489 0204 08       		.byte	0x8
 1490 0205 0E       		.uleb128 0xe
 1491 0206 64090000 		.4byte	.LASF43
 1492 020a 05       		.byte	0x5
 1493 020b 2C01     		.2byte	0x12c
 1494 020d 92010000 		.4byte	0x192
 1495 0211 09       		.byte	0x9
 1496 0212 0E       		.uleb128 0xe
 1497 0213 D0020000 		.4byte	.LASF44
 1498 0217 05       		.byte	0x5
 1499 0218 3101     		.2byte	0x131
 1500 021a 6B000000 		.4byte	0x6b
 1501 021e 0A       		.byte	0xa
 1502 021f 0E       		.uleb128 0xe
 1503 0220 AC0A0000 		.4byte	.LASF45
 1504 0224 05       		.byte	0x5
 1505 0225 3901     		.2byte	0x139
 1506 0227 77000000 		.4byte	0x77
 1507 022b 0C       		.byte	0xc
 1508 022c 0E       		.uleb128 0xe
 1509 022d 3F080000 		.4byte	.LASF46
 1510 0231 05       		.byte	0x5
 1511 0232 3E01     		.2byte	0x13e
ARM GAS  C:\Users\doita\AppData\Local\Temp\ccsDJsU6.s 			page 55


 1512 0234 6B000000 		.4byte	0x6b
 1513 0238 0E       		.byte	0xe
 1514 0239 0E       		.uleb128 0xe
 1515 023a 0E090000 		.4byte	.LASF47
 1516 023e 05       		.byte	0x5
 1517 023f 4401     		.2byte	0x144
 1518 0241 77000000 		.4byte	0x77
 1519 0245 10       		.byte	0x10
 1520 0246 0E       		.uleb128 0xe
 1521 0247 82050000 		.4byte	.LASF48
 1522 024b 05       		.byte	0x5
 1523 024c 4901     		.2byte	0x149
 1524 024e 77000000 		.4byte	0x77
 1525 0252 12       		.byte	0x12
 1526 0253 00       		.byte	0
 1527 0254 04       		.uleb128 0x4
 1528 0255 26010000 		.4byte	.LASF49
 1529 0259 05       		.byte	0x5
 1530 025a 4A01     		.2byte	0x14a
 1531 025c A2010000 		.4byte	0x1a2
 1532 0260 0F       		.uleb128 0xf
 1533 0261 0401     		.2byte	0x104
 1534 0263 05       		.byte	0x5
 1535 0264 5001     		.2byte	0x150
 1536 0266 14030000 		.4byte	0x314
 1537 026a 0E       		.uleb128 0xe
 1538 026b 61000000 		.4byte	.LASF50
 1539 026f 05       		.byte	0x5
 1540 0270 5501     		.2byte	0x155
 1541 0272 54020000 		.4byte	0x254
 1542 0276 00       		.byte	0
 1543 0277 0E       		.uleb128 0xe
 1544 0278 67000000 		.4byte	.LASF51
 1545 027c 05       		.byte	0x5
 1546 027d 5A01     		.2byte	0x15a
 1547 027f 54020000 		.4byte	0x254
 1548 0283 14       		.byte	0x14
 1549 0284 0E       		.uleb128 0xe
 1550 0285 6D000000 		.4byte	.LASF52
 1551 0289 05       		.byte	0x5
 1552 028a 5F01     		.2byte	0x15f
 1553 028c 54020000 		.4byte	0x254
 1554 0290 28       		.byte	0x28
 1555 0291 0E       		.uleb128 0xe
 1556 0292 73000000 		.4byte	.LASF53
 1557 0296 05       		.byte	0x5
 1558 0297 6401     		.2byte	0x164
 1559 0299 54020000 		.4byte	0x254
 1560 029d 3C       		.byte	0x3c
 1561 029e 0E       		.uleb128 0xe
 1562 029f 79000000 		.4byte	.LASF54
 1563 02a3 05       		.byte	0x5
 1564 02a4 6901     		.2byte	0x169
 1565 02a6 54020000 		.4byte	0x254
 1566 02aa 50       		.byte	0x50
 1567 02ab 0E       		.uleb128 0xe
 1568 02ac 7F000000 		.4byte	.LASF55
ARM GAS  C:\Users\doita\AppData\Local\Temp\ccsDJsU6.s 			page 56


 1569 02b0 05       		.byte	0x5
 1570 02b1 6E01     		.2byte	0x16e
 1571 02b3 54020000 		.4byte	0x254
 1572 02b7 64       		.byte	0x64
 1573 02b8 0E       		.uleb128 0xe
 1574 02b9 85000000 		.4byte	.LASF56
 1575 02bd 05       		.byte	0x5
 1576 02be 7301     		.2byte	0x173
 1577 02c0 54020000 		.4byte	0x254
 1578 02c4 78       		.byte	0x78
 1579 02c5 0E       		.uleb128 0xe
 1580 02c6 8B000000 		.4byte	.LASF57
 1581 02ca 05       		.byte	0x5
 1582 02cb 7801     		.2byte	0x178
 1583 02cd 54020000 		.4byte	0x254
 1584 02d1 8C       		.byte	0x8c
 1585 02d2 0E       		.uleb128 0xe
 1586 02d3 91000000 		.4byte	.LASF58
 1587 02d7 05       		.byte	0x5
 1588 02d8 7D01     		.2byte	0x17d
 1589 02da 54020000 		.4byte	0x254
 1590 02de A0       		.byte	0xa0
 1591 02df 0E       		.uleb128 0xe
 1592 02e0 97000000 		.4byte	.LASF59
 1593 02e4 05       		.byte	0x5
 1594 02e5 8201     		.2byte	0x182
 1595 02e7 54020000 		.4byte	0x254
 1596 02eb B4       		.byte	0xb4
 1597 02ec 0E       		.uleb128 0xe
 1598 02ed 4A010000 		.4byte	.LASF60
 1599 02f1 05       		.byte	0x5
 1600 02f2 8701     		.2byte	0x187
 1601 02f4 54020000 		.4byte	0x254
 1602 02f8 C8       		.byte	0xc8
 1603 02f9 0E       		.uleb128 0xe
 1604 02fa 50010000 		.4byte	.LASF61
 1605 02fe 05       		.byte	0x5
 1606 02ff 8C01     		.2byte	0x18c
 1607 0301 54020000 		.4byte	0x254
 1608 0305 DC       		.byte	0xdc
 1609 0306 0E       		.uleb128 0xe
 1610 0307 56010000 		.4byte	.LASF62
 1611 030b 05       		.byte	0x5
 1612 030c 9101     		.2byte	0x191
 1613 030e 54020000 		.4byte	0x254
 1614 0312 F0       		.byte	0xf0
 1615 0313 00       		.byte	0
 1616 0314 04       		.uleb128 0x4
 1617 0315 B30A0000 		.4byte	.LASF63
 1618 0319 05       		.byte	0x5
 1619 031a 9201     		.2byte	0x192
 1620 031c 60020000 		.4byte	0x260
 1621 0320 10       		.uleb128 0x10
 1622 0321 0A       		.byte	0xa
 1623 0322 05       		.byte	0x5
 1624 0323 9801     		.2byte	0x198
 1625 0325 78030000 		.4byte	0x378
ARM GAS  C:\Users\doita\AppData\Local\Temp\ccsDJsU6.s 			page 57


 1626 0329 11       		.uleb128 0x11
 1627 032a 72617700 		.ascii	"raw\000"
 1628 032e 05       		.byte	0x5
 1629 032f 9D01     		.2byte	0x19d
 1630 0331 78030000 		.4byte	0x378
 1631 0335 00       		.byte	0
 1632 0336 0E       		.uleb128 0xe
 1633 0337 E10A0000 		.4byte	.LASF64
 1634 033b 05       		.byte	0x5
 1635 033c A201     		.2byte	0x1a2
 1636 033e 78030000 		.4byte	0x378
 1637 0342 02       		.byte	0x2
 1638 0343 0E       		.uleb128 0xe
 1639 0344 9D090000 		.4byte	.LASF65
 1640 0348 05       		.byte	0x5
 1641 0349 A801     		.2byte	0x1a8
 1642 034b 92010000 		.4byte	0x192
 1643 034f 04       		.byte	0x4
 1644 0350 0E       		.uleb128 0xe
 1645 0351 97080000 		.4byte	.LASF66
 1646 0355 05       		.byte	0x5
 1647 0356 AD01     		.2byte	0x1ad
 1648 0358 DB000000 		.4byte	0xdb
 1649 035c 06       		.byte	0x6
 1650 035d 0E       		.uleb128 0xe
 1651 035e 480B0000 		.4byte	.LASF67
 1652 0362 05       		.byte	0x5
 1653 0363 B201     		.2byte	0x1b2
 1654 0365 88030000 		.4byte	0x388
 1655 0369 08       		.byte	0x8
 1656 036a 0E       		.uleb128 0xe
 1657 036b 7D060000 		.4byte	.LASF68
 1658 036f 05       		.byte	0x5
 1659 0370 B701     		.2byte	0x1b7
 1660 0372 92010000 		.4byte	0x192
 1661 0376 09       		.byte	0x9
 1662 0377 00       		.byte	0
 1663 0378 0C       		.uleb128 0xc
 1664 0379 77000000 		.4byte	0x77
 1665 037d 88030000 		.4byte	0x388
 1666 0381 0D       		.uleb128 0xd
 1667 0382 D2000000 		.4byte	0xd2
 1668 0386 00       		.byte	0
 1669 0387 00       		.byte	0
 1670 0388 0C       		.uleb128 0xc
 1671 0389 E7000000 		.4byte	0xe7
 1672 038d 98030000 		.4byte	0x398
 1673 0391 0D       		.uleb128 0xd
 1674 0392 D2000000 		.4byte	0xd2
 1675 0396 00       		.byte	0
 1676 0397 00       		.byte	0
 1677 0398 04       		.uleb128 0x4
 1678 0399 CC000000 		.4byte	.LASF69
 1679 039d 05       		.byte	0x5
 1680 039e B801     		.2byte	0x1b8
 1681 03a0 20030000 		.4byte	0x320
 1682 03a4 10       		.uleb128 0x10
ARM GAS  C:\Users\doita\AppData\Local\Temp\ccsDJsU6.s 			page 58


 1683 03a5 82       		.byte	0x82
 1684 03a6 05       		.byte	0x5
 1685 03a7 BE01     		.2byte	0x1be
 1686 03a9 57040000 		.4byte	0x457
 1687 03ad 0E       		.uleb128 0xe
 1688 03ae 61000000 		.4byte	.LASF50
 1689 03b2 05       		.byte	0x5
 1690 03b3 C301     		.2byte	0x1c3
 1691 03b5 57040000 		.4byte	0x457
 1692 03b9 00       		.byte	0
 1693 03ba 0E       		.uleb128 0xe
 1694 03bb 67000000 		.4byte	.LASF51
 1695 03bf 05       		.byte	0x5
 1696 03c0 C801     		.2byte	0x1c8
 1697 03c2 57040000 		.4byte	0x457
 1698 03c6 0A       		.byte	0xa
 1699 03c7 0E       		.uleb128 0xe
 1700 03c8 6D000000 		.4byte	.LASF52
 1701 03cc 05       		.byte	0x5
 1702 03cd CD01     		.2byte	0x1cd
 1703 03cf 57040000 		.4byte	0x457
 1704 03d3 14       		.byte	0x14
 1705 03d4 0E       		.uleb128 0xe
 1706 03d5 73000000 		.4byte	.LASF53
 1707 03d9 05       		.byte	0x5
 1708 03da D201     		.2byte	0x1d2
 1709 03dc 57040000 		.4byte	0x457
 1710 03e0 1E       		.byte	0x1e
 1711 03e1 0E       		.uleb128 0xe
 1712 03e2 79000000 		.4byte	.LASF54
 1713 03e6 05       		.byte	0x5
 1714 03e7 D701     		.2byte	0x1d7
 1715 03e9 57040000 		.4byte	0x457
 1716 03ed 28       		.byte	0x28
 1717 03ee 0E       		.uleb128 0xe
 1718 03ef 7F000000 		.4byte	.LASF55
 1719 03f3 05       		.byte	0x5
 1720 03f4 DC01     		.2byte	0x1dc
 1721 03f6 57040000 		.4byte	0x457
 1722 03fa 32       		.byte	0x32
 1723 03fb 0E       		.uleb128 0xe
 1724 03fc 85000000 		.4byte	.LASF56
 1725 0400 05       		.byte	0x5
 1726 0401 E101     		.2byte	0x1e1
 1727 0403 57040000 		.4byte	0x457
 1728 0407 3C       		.byte	0x3c
 1729 0408 0E       		.uleb128 0xe
 1730 0409 8B000000 		.4byte	.LASF57
 1731 040d 05       		.byte	0x5
 1732 040e E601     		.2byte	0x1e6
 1733 0410 57040000 		.4byte	0x457
 1734 0414 46       		.byte	0x46
 1735 0415 0E       		.uleb128 0xe
 1736 0416 91000000 		.4byte	.LASF58
 1737 041a 05       		.byte	0x5
 1738 041b EB01     		.2byte	0x1eb
 1739 041d 57040000 		.4byte	0x457
ARM GAS  C:\Users\doita\AppData\Local\Temp\ccsDJsU6.s 			page 59


 1740 0421 50       		.byte	0x50
 1741 0422 0E       		.uleb128 0xe
 1742 0423 97000000 		.4byte	.LASF59
 1743 0427 05       		.byte	0x5
 1744 0428 F001     		.2byte	0x1f0
 1745 042a 57040000 		.4byte	0x457
 1746 042e 5A       		.byte	0x5a
 1747 042f 0E       		.uleb128 0xe
 1748 0430 4A010000 		.4byte	.LASF60
 1749 0434 05       		.byte	0x5
 1750 0435 F501     		.2byte	0x1f5
 1751 0437 57040000 		.4byte	0x457
 1752 043b 64       		.byte	0x64
 1753 043c 0E       		.uleb128 0xe
 1754 043d 50010000 		.4byte	.LASF61
 1755 0441 05       		.byte	0x5
 1756 0442 FA01     		.2byte	0x1fa
 1757 0444 57040000 		.4byte	0x457
 1758 0448 6E       		.byte	0x6e
 1759 0449 0E       		.uleb128 0xe
 1760 044a 56010000 		.4byte	.LASF62
 1761 044e 05       		.byte	0x5
 1762 044f FF01     		.2byte	0x1ff
 1763 0451 57040000 		.4byte	0x457
 1764 0455 78       		.byte	0x78
 1765 0456 00       		.byte	0
 1766 0457 0C       		.uleb128 0xc
 1767 0458 98030000 		.4byte	0x398
 1768 045c 67040000 		.4byte	0x467
 1769 0460 0D       		.uleb128 0xd
 1770 0461 D2000000 		.4byte	0xd2
 1771 0465 00       		.byte	0
 1772 0466 00       		.byte	0
 1773 0467 04       		.uleb128 0x4
 1774 0468 F90A0000 		.4byte	.LASF70
 1775 046c 05       		.byte	0x5
 1776 046d 0002     		.2byte	0x200
 1777 046f A4030000 		.4byte	0x3a4
 1778 0473 0F       		.uleb128 0xf
 1779 0474 B801     		.2byte	0x1b8
 1780 0476 05       		.byte	0x5
 1781 0477 0602     		.2byte	0x206
 1782 0479 7C050000 		.4byte	0x57c
 1783 047d 0E       		.uleb128 0xe
 1784 047e 11080000 		.4byte	.LASF71
 1785 0482 05       		.byte	0x5
 1786 0483 0D02     		.2byte	0x20d
 1787 0485 77000000 		.4byte	0x77
 1788 0489 00       		.byte	0
 1789 048a 0E       		.uleb128 0xe
 1790 048b A60B0000 		.4byte	.LASF72
 1791 048f 05       		.byte	0x5
 1792 0490 1202     		.2byte	0x212
 1793 0492 77000000 		.4byte	0x77
 1794 0496 02       		.byte	0x2
 1795 0497 0E       		.uleb128 0xe
 1796 0498 EA000000 		.4byte	.LASF73
ARM GAS  C:\Users\doita\AppData\Local\Temp\ccsDJsU6.s 			page 60


 1797 049c 05       		.byte	0x5
 1798 049d 1702     		.2byte	0x217
 1799 049f 77000000 		.4byte	0x77
 1800 04a3 04       		.byte	0x4
 1801 04a4 0E       		.uleb128 0xe
 1802 04a5 9C080000 		.4byte	.LASF74
 1803 04a9 05       		.byte	0x5
 1804 04aa 1D02     		.2byte	0x21d
 1805 04ac 77000000 		.4byte	0x77
 1806 04b0 06       		.byte	0x6
 1807 04b1 0E       		.uleb128 0xe
 1808 04b2 C0000000 		.4byte	.LASF75
 1809 04b6 05       		.byte	0x5
 1810 04b7 2202     		.2byte	0x222
 1811 04b9 77000000 		.4byte	0x77
 1812 04bd 08       		.byte	0x8
 1813 04be 0E       		.uleb128 0xe
 1814 04bf 6C060000 		.4byte	.LASF76
 1815 04c3 05       		.byte	0x5
 1816 04c4 2702     		.2byte	0x227
 1817 04c6 C6000000 		.4byte	0xc6
 1818 04ca 0C       		.byte	0xc
 1819 04cb 0E       		.uleb128 0xe
 1820 04cc 8C080000 		.4byte	.LASF77
 1821 04d0 05       		.byte	0x5
 1822 04d1 2D02     		.2byte	0x22d
 1823 04d3 7C050000 		.4byte	0x57c
 1824 04d7 10       		.byte	0x10
 1825 04d8 0E       		.uleb128 0xe
 1826 04d9 18090000 		.4byte	.LASF78
 1827 04dd 05       		.byte	0x5
 1828 04de 3402     		.2byte	0x234
 1829 04e0 7C050000 		.4byte	0x57c
 1830 04e4 14       		.byte	0x14
 1831 04e5 0E       		.uleb128 0xe
 1832 04e6 35080000 		.4byte	.LASF79
 1833 04ea 05       		.byte	0x5
 1834 04eb 4402     		.2byte	0x244
 1835 04ed 8C050000 		.4byte	0x58c
 1836 04f1 18       		.byte	0x18
 1837 04f2 0E       		.uleb128 0xe
 1838 04f3 F8060000 		.4byte	.LASF80
 1839 04f7 05       		.byte	0x5
 1840 04f8 4A02     		.2byte	0x24a
 1841 04fa 77000000 		.4byte	0x77
 1842 04fe 26       		.byte	0x26
 1843 04ff 0E       		.uleb128 0xe
 1844 0500 E8040000 		.4byte	.LASF81
 1845 0504 05       		.byte	0x5
 1846 0505 4F02     		.2byte	0x24f
 1847 0507 6B000000 		.4byte	0x6b
 1848 050b 28       		.byte	0x28
 1849 050c 0E       		.uleb128 0xe
 1850 050d CF060000 		.4byte	.LASF82
 1851 0511 05       		.byte	0x5
 1852 0512 5402     		.2byte	0x254
 1853 0514 14030000 		.4byte	0x314
ARM GAS  C:\Users\doita\AppData\Local\Temp\ccsDJsU6.s 			page 61


 1854 0518 2A       		.byte	0x2a
 1855 0519 12       		.uleb128 0x12
 1856 051a 7C030000 		.4byte	.LASF83
 1857 051e 05       		.byte	0x5
 1858 051f 5902     		.2byte	0x259
 1859 0521 67040000 		.4byte	0x467
 1860 0525 2E01     		.2byte	0x12e
 1861 0527 12       		.uleb128 0x12
 1862 0528 7C080000 		.4byte	.LASF84
 1863 052c 05       		.byte	0x5
 1864 052d 5E02     		.2byte	0x25e
 1865 052f 6B000000 		.4byte	0x6b
 1866 0533 B001     		.2byte	0x1b0
 1867 0535 12       		.uleb128 0x12
 1868 0536 3E040000 		.4byte	.LASF85
 1869 053a 05       		.byte	0x5
 1870 053b 6302     		.2byte	0x263
 1871 053d 6B000000 		.4byte	0x6b
 1872 0541 B101     		.2byte	0x1b1
 1873 0543 12       		.uleb128 0x12
 1874 0544 FE070000 		.4byte	.LASF86
 1875 0548 05       		.byte	0x5
 1876 0549 6802     		.2byte	0x268
 1877 054b 77000000 		.4byte	0x77
 1878 054f B201     		.2byte	0x1b2
 1879 0551 12       		.uleb128 0x12
 1880 0552 D8060000 		.4byte	.LASF87
 1881 0556 05       		.byte	0x5
 1882 0557 6D02     		.2byte	0x26d
 1883 0559 78030000 		.4byte	0x378
 1884 055d B401     		.2byte	0x1b4
 1885 055f 12       		.uleb128 0x12
 1886 0560 F2000000 		.4byte	.LASF88
 1887 0564 05       		.byte	0x5
 1888 0565 7202     		.2byte	0x272
 1889 0567 6B000000 		.4byte	0x6b
 1890 056b B601     		.2byte	0x1b6
 1891 056d 12       		.uleb128 0x12
 1892 056e 640A0000 		.4byte	.LASF89
 1893 0572 05       		.byte	0x5
 1894 0573 7702     		.2byte	0x277
 1895 0575 6B000000 		.4byte	0x6b
 1896 0579 B701     		.2byte	0x1b7
 1897 057b 00       		.byte	0
 1898 057c 0C       		.uleb128 0xc
 1899 057d 83000000 		.4byte	0x83
 1900 0581 8C050000 		.4byte	0x58c
 1901 0585 0D       		.uleb128 0xd
 1902 0586 D2000000 		.4byte	0xd2
 1903 058a 00       		.byte	0
 1904 058b 00       		.byte	0
 1905 058c 0C       		.uleb128 0xc
 1906 058d 6B000000 		.4byte	0x6b
 1907 0591 9C050000 		.4byte	0x59c
 1908 0595 0D       		.uleb128 0xd
 1909 0596 D2000000 		.4byte	0xd2
 1910 059a 0C       		.byte	0xc
ARM GAS  C:\Users\doita\AppData\Local\Temp\ccsDJsU6.s 			page 62


 1911 059b 00       		.byte	0
 1912 059c 04       		.uleb128 0x4
 1913 059d 40000000 		.4byte	.LASF90
 1914 05a1 05       		.byte	0x5
 1915 05a2 7802     		.2byte	0x278
 1916 05a4 73040000 		.4byte	0x473
 1917 05a8 10       		.uleb128 0x10
 1918 05a9 1C       		.byte	0x1c
 1919 05aa 05       		.byte	0x5
 1920 05ab 7E02     		.2byte	0x27e
 1921 05ad 27060000 		.4byte	0x627
 1922 05b1 0E       		.uleb128 0xe
 1923 05b2 03070000 		.4byte	.LASF91
 1924 05b6 05       		.byte	0x5
 1925 05b7 8302     		.2byte	0x283
 1926 05b9 27060000 		.4byte	0x627
 1927 05bd 00       		.byte	0
 1928 05be 0E       		.uleb128 0xe
 1929 05bf 86060000 		.4byte	.LASF92
 1930 05c3 05       		.byte	0x5
 1931 05c4 8802     		.2byte	0x288
 1932 05c6 27060000 		.4byte	0x627
 1933 05ca 04       		.byte	0x4
 1934 05cb 0E       		.uleb128 0xe
 1935 05cc 33050000 		.4byte	.LASF93
 1936 05d0 05       		.byte	0x5
 1937 05d1 8D02     		.2byte	0x28d
 1938 05d3 27060000 		.4byte	0x627
 1939 05d7 08       		.byte	0x8
 1940 05d8 0E       		.uleb128 0xe
 1941 05d9 A5080000 		.4byte	.LASF94
 1942 05dd 05       		.byte	0x5
 1943 05de 9202     		.2byte	0x292
 1944 05e0 27060000 		.4byte	0x627
 1945 05e4 0C       		.byte	0xc
 1946 05e5 0E       		.uleb128 0xe
 1947 05e6 870A0000 		.4byte	.LASF95
 1948 05ea 05       		.byte	0x5
 1949 05eb 9702     		.2byte	0x297
 1950 05ed 83000000 		.4byte	0x83
 1951 05f1 10       		.byte	0x10
 1952 05f2 0E       		.uleb128 0xe
 1953 05f3 23070000 		.4byte	.LASF96
 1954 05f7 05       		.byte	0x5
 1955 05f8 9C02     		.2byte	0x29c
 1956 05fa 83000000 		.4byte	0x83
 1957 05fe 14       		.byte	0x14
 1958 05ff 0E       		.uleb128 0xe
 1959 0600 37060000 		.4byte	.LASF97
 1960 0604 05       		.byte	0x5
 1961 0605 A102     		.2byte	0x2a1
 1962 0607 6B000000 		.4byte	0x6b
 1963 060b 18       		.byte	0x18
 1964 060c 0E       		.uleb128 0xe
 1965 060d 4A090000 		.4byte	.LASF98
 1966 0611 05       		.byte	0x5
 1967 0612 A602     		.2byte	0x2a6
ARM GAS  C:\Users\doita\AppData\Local\Temp\ccsDJsU6.s 			page 63


 1968 0614 6B000000 		.4byte	0x6b
 1969 0618 19       		.byte	0x19
 1970 0619 0E       		.uleb128 0xe
 1971 061a E4020000 		.4byte	.LASF99
 1972 061e 05       		.byte	0x5
 1973 061f AB02     		.2byte	0x2ab
 1974 0621 6B000000 		.4byte	0x6b
 1975 0625 1A       		.byte	0x1a
 1976 0626 00       		.byte	0
 1977 0627 13       		.uleb128 0x13
 1978 0628 04       		.byte	0x4
 1979 0629 BA000000 		.4byte	0xba
 1980 062d 04       		.uleb128 0x4
 1981 062e A5090000 		.4byte	.LASF100
 1982 0632 05       		.byte	0x5
 1983 0633 AC02     		.2byte	0x2ac
 1984 0635 A8050000 		.4byte	0x5a8
 1985 0639 10       		.uleb128 0x10
 1986 063a 20       		.byte	0x20
 1987 063b 05       		.byte	0x5
 1988 063c DF02     		.2byte	0x2df
 1989 063e C5060000 		.4byte	0x6c5
 1990 0642 0E       		.uleb128 0xe
 1991 0643 2E0B0000 		.4byte	.LASF101
 1992 0647 05       		.byte	0x5
 1993 0648 E802     		.2byte	0x2e8
 1994 064a C5060000 		.4byte	0x6c5
 1995 064e 00       		.byte	0
 1996 064f 0E       		.uleb128 0xe
 1997 0650 730A0000 		.4byte	.LASF102
 1998 0654 05       		.byte	0x5
 1999 0655 EF02     		.2byte	0x2ef
 2000 0657 D9000000 		.4byte	0xd9
 2001 065b 04       		.byte	0x4
 2002 065c 0E       		.uleb128 0xe
 2003 065d 1A080000 		.4byte	.LASF103
 2004 0661 05       		.byte	0x5
 2005 0662 F502     		.2byte	0x2f5
 2006 0664 CC060000 		.4byte	0x6cc
 2007 0668 08       		.byte	0x8
 2008 0669 0E       		.uleb128 0xe
 2009 066a 13070000 		.4byte	.LASF104
 2010 066e 05       		.byte	0x5
 2011 066f FB02     		.2byte	0x2fb
 2012 0671 D9000000 		.4byte	0xd9
 2013 0675 0C       		.byte	0xc
 2014 0676 0E       		.uleb128 0xe
 2015 0677 84090000 		.4byte	.LASF105
 2016 067b 05       		.byte	0x5
 2017 067c 0203     		.2byte	0x302
 2018 067e D2060000 		.4byte	0x6d2
 2019 0682 10       		.byte	0x10
 2020 0683 0E       		.uleb128 0xe
 2021 0684 300A0000 		.4byte	.LASF106
 2022 0688 05       		.byte	0x5
 2023 0689 0703     		.2byte	0x307
 2024 068b 83000000 		.4byte	0x83
ARM GAS  C:\Users\doita\AppData\Local\Temp\ccsDJsU6.s 			page 64


 2025 068f 14       		.byte	0x14
 2026 0690 0E       		.uleb128 0xe
 2027 0691 B6050000 		.4byte	.LASF107
 2028 0695 05       		.byte	0x5
 2029 0696 0E03     		.2byte	0x30e
 2030 0698 77000000 		.4byte	0x77
 2031 069c 18       		.byte	0x18
 2032 069d 0E       		.uleb128 0xe
 2033 069e D9040000 		.4byte	.LASF108
 2034 06a2 05       		.byte	0x5
 2035 06a3 1503     		.2byte	0x315
 2036 06a5 6B000000 		.4byte	0x6b
 2037 06a9 1A       		.byte	0x1a
 2038 06aa 0E       		.uleb128 0xe
 2039 06ab 9A060000 		.4byte	.LASF109
 2040 06af 05       		.byte	0x5
 2041 06b0 1F03     		.2byte	0x31f
 2042 06b2 6B000000 		.4byte	0x6b
 2043 06b6 1B       		.byte	0x1b
 2044 06b7 0E       		.uleb128 0xe
 2045 06b8 CA040000 		.4byte	.LASF110
 2046 06bc 05       		.byte	0x5
 2047 06bd 2703     		.2byte	0x327
 2048 06bf D8060000 		.4byte	0x6d8
 2049 06c3 1C       		.byte	0x1c
 2050 06c4 00       		.byte	0
 2051 06c5 13       		.uleb128 0x13
 2052 06c6 04       		.byte	0x4
 2053 06c7 CB060000 		.4byte	0x6cb
 2054 06cb 14       		.uleb128 0x14
 2055 06cc 13       		.uleb128 0x13
 2056 06cd 04       		.byte	0x4
 2057 06ce 98030000 		.4byte	0x398
 2058 06d2 13       		.uleb128 0x13
 2059 06d3 04       		.byte	0x4
 2060 06d4 6B000000 		.4byte	0x6b
 2061 06d8 13       		.uleb128 0x13
 2062 06d9 04       		.byte	0x4
 2063 06da 50010000 		.4byte	0x150
 2064 06de 04       		.uleb128 0x4
 2065 06df 00000000 		.4byte	.LASF111
 2066 06e3 05       		.byte	0x5
 2067 06e4 2803     		.2byte	0x328
 2068 06e6 39060000 		.4byte	0x639
 2069 06ea 0F       		.uleb128 0xf
 2070 06eb A001     		.2byte	0x1a0
 2071 06ed 05       		.byte	0x5
 2072 06ee 2E03     		.2byte	0x32e
 2073 06f0 02070000 		.4byte	0x702
 2074 06f4 0E       		.uleb128 0xe
 2075 06f5 EF0B0000 		.4byte	.LASF112
 2076 06f9 05       		.byte	0x5
 2077 06fa 3303     		.2byte	0x333
 2078 06fc 02070000 		.4byte	0x702
 2079 0700 00       		.byte	0
 2080 0701 00       		.byte	0
 2081 0702 0C       		.uleb128 0xc
ARM GAS  C:\Users\doita\AppData\Local\Temp\ccsDJsU6.s 			page 65


 2082 0703 DE060000 		.4byte	0x6de
 2083 0707 12070000 		.4byte	0x712
 2084 070b 0D       		.uleb128 0xd
 2085 070c D2000000 		.4byte	0xd2
 2086 0710 0C       		.byte	0xc
 2087 0711 00       		.byte	0
 2088 0712 04       		.uleb128 0x4
 2089 0713 12060000 		.4byte	.LASF113
 2090 0717 05       		.byte	0x5
 2091 0718 3403     		.2byte	0x334
 2092 071a EA060000 		.4byte	0x6ea
 2093 071e 10       		.uleb128 0x10
 2094 071f 08       		.byte	0x8
 2095 0720 01       		.byte	0x1
 2096 0721 EA02     		.2byte	0x2ea
 2097 0723 82070000 		.4byte	0x782
 2098 0727 0E       		.uleb128 0xe
 2099 0728 58050000 		.4byte	.LASF114
 2100 072c 01       		.byte	0x1
 2101 072d EC02     		.2byte	0x2ec
 2102 072f 77000000 		.4byte	0x77
 2103 0733 00       		.byte	0
 2104 0734 0E       		.uleb128 0xe
 2105 0735 C40B0000 		.4byte	.LASF115
 2106 0739 01       		.byte	0x1
 2107 073a ED02     		.2byte	0x2ed
 2108 073c 6B000000 		.4byte	0x6b
 2109 0740 02       		.byte	0x2
 2110 0741 0E       		.uleb128 0xe
 2111 0742 1C0B0000 		.4byte	.LASF116
 2112 0746 01       		.byte	0x1
 2113 0747 EE02     		.2byte	0x2ee
 2114 0749 6B000000 		.4byte	0x6b
 2115 074d 03       		.byte	0x3
 2116 074e 11       		.uleb128 0x11
 2117 074f 63726300 		.ascii	"crc\000"
 2118 0753 01       		.byte	0x1
 2119 0754 EF02     		.2byte	0x2ef
 2120 0756 6B000000 		.4byte	0x6b
 2121 075a 04       		.byte	0x4
 2122 075b 0E       		.uleb128 0xe
 2123 075c FE090000 		.4byte	.LASF117
 2124 0760 01       		.byte	0x1
 2125 0761 F002     		.2byte	0x2f0
 2126 0763 6B000000 		.4byte	0x6b
 2127 0767 05       		.byte	0x5
 2128 0768 11       		.uleb128 0x11
 2129 0769 727700   		.ascii	"rw\000"
 2130 076c 01       		.byte	0x1
 2131 076d F102     		.2byte	0x2f1
 2132 076f 6B000000 		.4byte	0x6b
 2133 0773 06       		.byte	0x6
 2134 0774 0E       		.uleb128 0xe
 2135 0775 EB090000 		.4byte	.LASF118
 2136 0779 01       		.byte	0x1
 2137 077a F202     		.2byte	0x2f2
 2138 077c 6B000000 		.4byte	0x6b
ARM GAS  C:\Users\doita\AppData\Local\Temp\ccsDJsU6.s 			page 66


 2139 0780 07       		.byte	0x7
 2140 0781 00       		.byte	0
 2141 0782 04       		.uleb128 0x4
 2142 0783 25080000 		.4byte	.LASF119
 2143 0787 01       		.byte	0x1
 2144 0788 F302     		.2byte	0x2f3
 2145 078a 1E070000 		.4byte	0x71e
 2146 078e 15       		.uleb128 0x15
 2147 078f ED010000 		.4byte	.LASF176
 2148 0793 01       		.byte	0x1
 2149 0794 EC03     		.2byte	0x3ec
 2150 0796 A4000000 		.4byte	0xa4
 2151 079a 00000000 		.4byte	.LFB2
 2152 079e 82000000 		.4byte	.LFE2-.LFB2
 2153 07a2 01       		.uleb128 0x1
 2154 07a3 9C       		.byte	0x9c
 2155 07a4 D7070000 		.4byte	0x7d7
 2156 07a8 16       		.uleb128 0x16
 2157 07a9 3D0A0000 		.4byte	.LASF120
 2158 07ad 01       		.byte	0x1
 2159 07ae EC03     		.2byte	0x3ec
 2160 07b0 83000000 		.4byte	0x83
 2161 07b4 00000000 		.4byte	.LLST0
 2162 07b8 17       		.uleb128 0x17
 2163 07b9 5F050000 		.4byte	.LASF121
 2164 07bd 01       		.byte	0x1
 2165 07be EC03     		.2byte	0x3ec
 2166 07c0 D7070000 		.4byte	0x7d7
 2167 07c4 01       		.uleb128 0x1
 2168 07c5 51       		.byte	0x51
 2169 07c6 18       		.uleb128 0x18
 2170 07c7 84030000 		.4byte	.LASF122
 2171 07cb 01       		.byte	0x1
 2172 07cc EE03     		.2byte	0x3ee
 2173 07ce A4000000 		.4byte	0xa4
 2174 07d2 21000000 		.4byte	.LLST1
 2175 07d6 00       		.byte	0
 2176 07d7 13       		.uleb128 0x13
 2177 07d8 04       		.byte	0x4
 2178 07d9 82070000 		.4byte	0x782
 2179 07dd 19       		.uleb128 0x19
 2180 07de 28070000 		.4byte	.LASF177
 2181 07e2 01       		.byte	0x1
 2182 07e3 1303     		.2byte	0x313
 2183 07e5 00000000 		.4byte	.LFB1
 2184 07e9 84000000 		.4byte	.LFE1-.LFB1
 2185 07ed 01       		.uleb128 0x1
 2186 07ee 9C       		.byte	0x9c
 2187 07ef 84080000 		.4byte	0x884
 2188 07f3 18       		.uleb128 0x18
 2189 07f4 AB080000 		.4byte	.LASF123
 2190 07f8 01       		.byte	0x1
 2191 07f9 1903     		.2byte	0x319
 2192 07fb 83000000 		.4byte	0x83
 2193 07ff 6D000000 		.4byte	.LLST2
 2194 0803 18       		.uleb128 0x18
 2195 0804 5A000000 		.4byte	.LASF124
ARM GAS  C:\Users\doita\AppData\Local\Temp\ccsDJsU6.s 			page 67


 2196 0808 01       		.byte	0x1
 2197 0809 1A03     		.2byte	0x31a
 2198 080b 83000000 		.4byte	0x83
 2199 080f A1000000 		.4byte	.LLST3
 2200 0813 18       		.uleb128 0x18
 2201 0814 B1080000 		.4byte	.LASF125
 2202 0818 01       		.byte	0x1
 2203 0819 1B03     		.2byte	0x31b
 2204 081b CC060000 		.4byte	0x6cc
 2205 081f E3000000 		.4byte	.LLST4
 2206 0823 18       		.uleb128 0x18
 2207 0824 230A0000 		.4byte	.LASF126
 2208 0828 01       		.byte	0x1
 2209 0829 1C03     		.2byte	0x31c
 2210 082b 84080000 		.4byte	0x884
 2211 082f F6000000 		.4byte	.LLST5
 2212 0833 18       		.uleb128 0x18
 2213 0834 4E070000 		.4byte	.LASF127
 2214 0838 01       		.byte	0x1
 2215 0839 2503     		.2byte	0x325
 2216 083b 8F080000 		.4byte	0x88f
 2217 083f 19010000 		.4byte	.LLST6
 2218 0843 1A       		.uleb128 0x1a
 2219 0844 10000000 		.4byte	.LVL13
 2220 0848 9C0D0000 		.4byte	0xd9c
 2221 084c 63080000 		.4byte	0x863
 2222 0850 1B       		.uleb128 0x1b
 2223 0851 01       		.uleb128 0x1
 2224 0852 50       		.byte	0x50
 2225 0853 02       		.uleb128 0x2
 2226 0854 74       		.byte	0x74
 2227 0855 00       		.sleb128 0
 2228 0856 1B       		.uleb128 0x1b
 2229 0857 01       		.uleb128 0x1
 2230 0858 51       		.byte	0x51
 2231 0859 01       		.uleb128 0x1
 2232 085a 30       		.byte	0x30
 2233 085b 1B       		.uleb128 0x1b
 2234 085c 01       		.uleb128 0x1
 2235 085d 52       		.byte	0x52
 2236 085e 03       		.uleb128 0x3
 2237 085f 0A       		.byte	0xa
 2238 0860 B801     		.2byte	0x1b8
 2239 0862 00       		.byte	0
 2240 0863 1C       		.uleb128 0x1c
 2241 0864 42000000 		.4byte	.LVL14
 2242 0868 A50D0000 		.4byte	0xda5
 2243 086c 1B       		.uleb128 0x1b
 2244 086d 01       		.uleb128 0x1
 2245 086e 50       		.byte	0x50
 2246 086f 02       		.uleb128 0x2
 2247 0870 74       		.byte	0x74
 2248 0871 2A       		.sleb128 42
 2249 0872 1B       		.uleb128 0x1b
 2250 0873 01       		.uleb128 0x1
 2251 0874 51       		.byte	0x51
 2252 0875 05       		.uleb128 0x5
ARM GAS  C:\Users\doita\AppData\Local\Temp\ccsDJsU6.s 			page 68


 2253 0876 03       		.byte	0x3
 2254 0877 B0010000 		.4byte	.LANCHOR1+48
 2255 087b 1B       		.uleb128 0x1b
 2256 087c 01       		.uleb128 0x1
 2257 087d 52       		.byte	0x52
 2258 087e 03       		.uleb128 0x3
 2259 087f 0A       		.byte	0xa
 2260 0880 0401     		.2byte	0x104
 2261 0882 00       		.byte	0
 2262 0883 00       		.byte	0
 2263 0884 13       		.uleb128 0x13
 2264 0885 04       		.byte	0x4
 2265 0886 8A080000 		.4byte	0x88a
 2266 088a 1D       		.uleb128 0x1d
 2267 088b DE060000 		.4byte	0x6de
 2268 088f 13       		.uleb128 0x13
 2269 0890 04       		.byte	0x4
 2270 0891 95080000 		.4byte	0x895
 2271 0895 1D       		.uleb128 0x1d
 2272 0896 6B000000 		.4byte	0x6b
 2273 089a 1E       		.uleb128 0x1e
 2274 089b 6C090000 		.4byte	.LASF133
 2275 089f 01       		.byte	0x1
 2276 08a0 AA04     		.2byte	0x4aa
 2277 08a2 A4000000 		.4byte	0xa4
 2278 08a6 00000000 		.4byte	.LFB3
 2279 08aa 60000000 		.4byte	.LFE3-.LFB3
 2280 08ae 01       		.uleb128 0x1
 2281 08af 9C       		.byte	0x9c
 2282 08b0 68090000 		.4byte	0x968
 2283 08b4 16       		.uleb128 0x16
 2284 08b5 3D0A0000 		.4byte	.LASF120
 2285 08b9 01       		.byte	0x1
 2286 08ba AA04     		.2byte	0x4aa
 2287 08bc 83000000 		.4byte	0x83
 2288 08c0 3C010000 		.4byte	.LLST7
 2289 08c4 16       		.uleb128 0x16
 2290 08c5 E2040000 		.4byte	.LASF128
 2291 08c9 01       		.byte	0x1
 2292 08ca AA04     		.2byte	0x4aa
 2293 08cc 68090000 		.4byte	0x968
 2294 08d0 5D010000 		.4byte	.LLST8
 2295 08d4 1F       		.uleb128 0x1f
 2296 08d5 5F050000 		.4byte	.LASF121
 2297 08d9 01       		.byte	0x1
 2298 08da AC04     		.2byte	0x4ac
 2299 08dc 82070000 		.4byte	0x782
 2300 08e0 02       		.uleb128 0x2
 2301 08e1 91       		.byte	0x91
 2302 08e2 68       		.sleb128 -24
 2303 08e3 18       		.uleb128 0x18
 2304 08e4 84030000 		.4byte	.LASF122
 2305 08e8 01       		.byte	0x1
 2306 08e9 AD04     		.2byte	0x4ad
 2307 08eb A4000000 		.4byte	0xa4
 2308 08ef 89010000 		.4byte	.LLST9
 2309 08f3 20       		.uleb128 0x20
ARM GAS  C:\Users\doita\AppData\Local\Temp\ccsDJsU6.s 			page 69


 2310 08f4 04       		.byte	0x4
 2311 08f5 01       		.byte	0x1
 2312 08f6 AF04     		.2byte	0x4af
 2313 08f8 2D090000 		.4byte	0x92d
 2314 08fc 21       		.uleb128 0x21
 2315 08fd 70747200 		.ascii	"ptr\000"
 2316 0901 01       		.byte	0x1
 2317 0902 B104     		.2byte	0x4b1
 2318 0904 6E090000 		.4byte	0x96e
 2319 0908 22       		.uleb128 0x22
 2320 0909 2E060000 		.4byte	.LASF129
 2321 090d 01       		.byte	0x1
 2322 090e B204     		.2byte	0x4b2
 2323 0910 7A090000 		.4byte	0x97a
 2324 0914 22       		.uleb128 0x22
 2325 0915 73060000 		.4byte	.LASF130
 2326 0919 01       		.byte	0x1
 2327 091a B304     		.2byte	0x4b3
 2328 091c 85090000 		.4byte	0x985
 2329 0920 22       		.uleb128 0x22
 2330 0921 44070000 		.4byte	.LASF131
 2331 0925 01       		.byte	0x1
 2332 0926 B404     		.2byte	0x4b4
 2333 0928 95090000 		.4byte	0x995
 2334 092c 00       		.byte	0
 2335 092d 18       		.uleb128 0x18
 2336 092e 7F0A0000 		.4byte	.LASF132
 2337 0932 01       		.byte	0x1
 2338 0933 B504     		.2byte	0x4b5
 2339 0935 F3080000 		.4byte	0x8f3
 2340 0939 B2010000 		.4byte	.LLST10
 2341 093d 1A       		.uleb128 0x1a
 2342 093e 0C000000 		.4byte	.LVL30
 2343 0942 8E070000 		.4byte	0x78e
 2344 0946 58090000 		.4byte	0x958
 2345 094a 1B       		.uleb128 0x1b
 2346 094b 01       		.uleb128 0x1
 2347 094c 50       		.byte	0x50
 2348 094d 03       		.uleb128 0x3
 2349 094e F3       		.byte	0xf3
 2350 094f 01       		.uleb128 0x1
 2351 0950 50       		.byte	0x50
 2352 0951 1B       		.uleb128 0x1b
 2353 0952 01       		.uleb128 0x1
 2354 0953 51       		.byte	0x51
 2355 0954 02       		.uleb128 0x2
 2356 0955 7D       		.byte	0x7d
 2357 0956 00       		.sleb128 0
 2358 0957 00       		.byte	0
 2359 0958 1C       		.uleb128 0x1c
 2360 0959 50000000 		.4byte	.LVL36
 2361 095d AE0D0000 		.4byte	0xdae
 2362 0961 1B       		.uleb128 0x1b
 2363 0962 01       		.uleb128 0x1
 2364 0963 50       		.byte	0x50
 2365 0964 01       		.uleb128 0x1
 2366 0965 30       		.byte	0x30
ARM GAS  C:\Users\doita\AppData\Local\Temp\ccsDJsU6.s 			page 70


 2367 0966 00       		.byte	0
 2368 0967 00       		.byte	0
 2369 0968 13       		.uleb128 0x13
 2370 0969 04       		.byte	0x4
 2371 096a 83000000 		.4byte	0x83
 2372 096e 13       		.uleb128 0x13
 2373 096f 04       		.byte	0x4
 2374 0970 75090000 		.4byte	0x975
 2375 0974 23       		.uleb128 0x23
 2376 0975 1D       		.uleb128 0x1d
 2377 0976 74090000 		.4byte	0x974
 2378 097a 13       		.uleb128 0x13
 2379 097b 04       		.byte	0x4
 2380 097c 80090000 		.4byte	0x980
 2381 0980 05       		.uleb128 0x5
 2382 0981 95080000 		.4byte	0x895
 2383 0985 13       		.uleb128 0x13
 2384 0986 04       		.byte	0x4
 2385 0987 90090000 		.4byte	0x990
 2386 098b 1D       		.uleb128 0x1d
 2387 098c 77000000 		.4byte	0x77
 2388 0990 05       		.uleb128 0x5
 2389 0991 8B090000 		.4byte	0x98b
 2390 0995 13       		.uleb128 0x13
 2391 0996 04       		.byte	0x4
 2392 0997 9B090000 		.4byte	0x99b
 2393 099b 1D       		.uleb128 0x1d
 2394 099c C6000000 		.4byte	0xc6
 2395 09a0 1E       		.uleb128 0x1e
 2396 09a1 49060000 		.4byte	.LASF134
 2397 09a5 01       		.byte	0x1
 2398 09a6 1605     		.2byte	0x516
 2399 09a8 A4000000 		.4byte	0xa4
 2400 09ac 00000000 		.4byte	.LFB4
 2401 09b0 58000000 		.4byte	.LFE4-.LFB4
 2402 09b4 01       		.uleb128 0x1
 2403 09b5 9C       		.byte	0x9c
 2404 09b6 6A0A0000 		.4byte	0xa6a
 2405 09ba 16       		.uleb128 0x16
 2406 09bb 3D0A0000 		.4byte	.LASF120
 2407 09bf 01       		.byte	0x1
 2408 09c0 1605     		.2byte	0x516
 2409 09c2 83000000 		.4byte	0x83
 2410 09c6 C5010000 		.4byte	.LLST11
 2411 09ca 16       		.uleb128 0x16
 2412 09cb E2040000 		.4byte	.LASF128
 2413 09cf 01       		.byte	0x1
 2414 09d0 1605     		.2byte	0x516
 2415 09d2 83000000 		.4byte	0x83
 2416 09d6 E6010000 		.4byte	.LLST12
 2417 09da 18       		.uleb128 0x18
 2418 09db 84030000 		.4byte	.LASF122
 2419 09df 01       		.byte	0x1
 2420 09e0 1805     		.2byte	0x518
 2421 09e2 A4000000 		.4byte	0xa4
 2422 09e6 44020000 		.4byte	.LLST13
 2423 09ea 1F       		.uleb128 0x1f
ARM GAS  C:\Users\doita\AppData\Local\Temp\ccsDJsU6.s 			page 71


 2424 09eb 5F050000 		.4byte	.LASF121
 2425 09ef 01       		.byte	0x1
 2426 09f0 1905     		.2byte	0x519
 2427 09f2 82070000 		.4byte	0x782
 2428 09f6 02       		.uleb128 0x2
 2429 09f7 91       		.byte	0x91
 2430 09f8 68       		.sleb128 -24
 2431 09f9 20       		.uleb128 0x20
 2432 09fa 04       		.byte	0x4
 2433 09fb 01       		.byte	0x1
 2434 09fc 1B05     		.2byte	0x51b
 2435 09fe 330A0000 		.4byte	0xa33
 2436 0a02 21       		.uleb128 0x21
 2437 0a03 70747200 		.ascii	"ptr\000"
 2438 0a07 01       		.byte	0x1
 2439 0a08 1D05     		.2byte	0x51d
 2440 0a0a 6A0A0000 		.4byte	0xa6a
 2441 0a0e 22       		.uleb128 0x22
 2442 0a0f 2E060000 		.4byte	.LASF129
 2443 0a13 01       		.byte	0x1
 2444 0a14 1E05     		.2byte	0x51e
 2445 0a16 700A0000 		.4byte	0xa70
 2446 0a1a 22       		.uleb128 0x22
 2447 0a1b 73060000 		.4byte	.LASF130
 2448 0a1f 01       		.byte	0x1
 2449 0a20 1F05     		.2byte	0x51f
 2450 0a22 760A0000 		.4byte	0xa76
 2451 0a26 22       		.uleb128 0x22
 2452 0a27 44070000 		.4byte	.LASF131
 2453 0a2b 01       		.byte	0x1
 2454 0a2c 2005     		.2byte	0x520
 2455 0a2e 7C0A0000 		.4byte	0xa7c
 2456 0a32 00       		.byte	0
 2457 0a33 24       		.uleb128 0x24
 2458 0a34 7F0A0000 		.4byte	.LASF132
 2459 0a38 01       		.byte	0x1
 2460 0a39 2105     		.2byte	0x521
 2461 0a3b F9090000 		.4byte	0x9f9
 2462 0a3f 1A       		.uleb128 0x1a
 2463 0a40 0C000000 		.4byte	.LVL41
 2464 0a44 8E070000 		.4byte	0x78e
 2465 0a48 5A0A0000 		.4byte	0xa5a
 2466 0a4c 1B       		.uleb128 0x1b
 2467 0a4d 01       		.uleb128 0x1
 2468 0a4e 50       		.byte	0x50
 2469 0a4f 03       		.uleb128 0x3
 2470 0a50 F3       		.byte	0xf3
 2471 0a51 01       		.uleb128 0x1
 2472 0a52 50       		.byte	0x50
 2473 0a53 1B       		.uleb128 0x1b
 2474 0a54 01       		.uleb128 0x1
 2475 0a55 51       		.byte	0x51
 2476 0a56 02       		.uleb128 0x2
 2477 0a57 7D       		.byte	0x7d
 2478 0a58 00       		.sleb128 0
 2479 0a59 00       		.byte	0
 2480 0a5a 1C       		.uleb128 0x1c
ARM GAS  C:\Users\doita\AppData\Local\Temp\ccsDJsU6.s 			page 72


 2481 0a5b 4C000000 		.4byte	.LVL48
 2482 0a5f AE0D0000 		.4byte	0xdae
 2483 0a63 1B       		.uleb128 0x1b
 2484 0a64 01       		.uleb128 0x1
 2485 0a65 50       		.byte	0x50
 2486 0a66 01       		.uleb128 0x1
 2487 0a67 30       		.byte	0x30
 2488 0a68 00       		.byte	0
 2489 0a69 00       		.byte	0
 2490 0a6a 13       		.uleb128 0x13
 2491 0a6b 04       		.byte	0x4
 2492 0a6c 74090000 		.4byte	0x974
 2493 0a70 13       		.uleb128 0x13
 2494 0a71 04       		.byte	0x4
 2495 0a72 B0000000 		.4byte	0xb0
 2496 0a76 13       		.uleb128 0x13
 2497 0a77 04       		.byte	0x4
 2498 0a78 B5000000 		.4byte	0xb5
 2499 0a7c 13       		.uleb128 0x13
 2500 0a7d 04       		.byte	0x4
 2501 0a7e C6000000 		.4byte	0xc6
 2502 0a82 1E       		.uleb128 0x1e
 2503 0a83 BB080000 		.4byte	.LASF135
 2504 0a87 01       		.byte	0x1
 2505 0a88 7705     		.2byte	0x577
 2506 0a8a 83000000 		.4byte	0x83
 2507 0a8e 00000000 		.4byte	.LFB5
 2508 0a92 20000000 		.4byte	.LFE5-.LFB5
 2509 0a96 01       		.uleb128 0x1
 2510 0a97 9C       		.byte	0x9c
 2511 0a98 BD0A0000 		.4byte	0xabd
 2512 0a9c 18       		.uleb128 0x18
 2513 0a9d 84030000 		.4byte	.LASF122
 2514 0aa1 01       		.byte	0x1
 2515 0aa2 7905     		.2byte	0x579
 2516 0aa4 83000000 		.4byte	0x83
 2517 0aa8 6D020000 		.4byte	.LLST14
 2518 0aac 18       		.uleb128 0x18
 2519 0aad C8060000 		.4byte	.LASF136
 2520 0ab1 01       		.byte	0x1
 2521 0ab2 7A05     		.2byte	0x57a
 2522 0ab4 83000000 		.4byte	0x83
 2523 0ab8 8C020000 		.4byte	.LLST15
 2524 0abc 00       		.byte	0
 2525 0abd 1E       		.uleb128 0x1e
 2526 0abe C4090000 		.4byte	.LASF137
 2527 0ac2 01       		.byte	0x1
 2528 0ac3 9F05     		.2byte	0x59f
 2529 0ac5 83000000 		.4byte	0x83
 2530 0ac9 00000000 		.4byte	.LFB6
 2531 0acd 24000000 		.4byte	.LFE6-.LFB6
 2532 0ad1 01       		.uleb128 0x1
 2533 0ad2 9C       		.byte	0x9c
 2534 0ad3 F80A0000 		.4byte	0xaf8
 2535 0ad7 16       		.uleb128 0x16
 2536 0ad8 C40B0000 		.4byte	.LASF115
 2537 0adc 01       		.byte	0x1
ARM GAS  C:\Users\doita\AppData\Local\Temp\ccsDJsU6.s 			page 73


 2538 0add 9F05     		.2byte	0x59f
 2539 0adf 83000000 		.4byte	0x83
 2540 0ae3 C1020000 		.4byte	.LLST16
 2541 0ae7 18       		.uleb128 0x18
 2542 0ae8 84030000 		.4byte	.LASF122
 2543 0aec 01       		.byte	0x1
 2544 0aed A105     		.2byte	0x5a1
 2545 0aef 83000000 		.4byte	0x83
 2546 0af3 FB020000 		.4byte	.LLST17
 2547 0af7 00       		.byte	0
 2548 0af8 1E       		.uleb128 0x1e
 2549 0af9 E7050000 		.4byte	.LASF138
 2550 0afd 01       		.byte	0x1
 2551 0afe D105     		.2byte	0x5d1
 2552 0b00 83000000 		.4byte	0x83
 2553 0b04 00000000 		.4byte	.LFB7
 2554 0b08 30000000 		.4byte	.LFE7-.LFB7
 2555 0b0c 01       		.uleb128 0x1
 2556 0b0d 9C       		.byte	0x9c
 2557 0b0e 410B0000 		.4byte	0xb41
 2558 0b12 16       		.uleb128 0x16
 2559 0b13 C40B0000 		.4byte	.LASF115
 2560 0b17 01       		.byte	0x1
 2561 0b18 D105     		.2byte	0x5d1
 2562 0b1a 83000000 		.4byte	0x83
 2563 0b1e 31030000 		.4byte	.LLST18
 2564 0b22 17       		.uleb128 0x17
 2565 0b23 70020000 		.4byte	.LASF139
 2566 0b27 01       		.byte	0x1
 2567 0b28 D105     		.2byte	0x5d1
 2568 0b2a 83000000 		.4byte	0x83
 2569 0b2e 01       		.uleb128 0x1
 2570 0b2f 51       		.byte	0x51
 2571 0b30 18       		.uleb128 0x18
 2572 0b31 84030000 		.4byte	.LASF122
 2573 0b35 01       		.byte	0x1
 2574 0b36 D305     		.2byte	0x5d3
 2575 0b38 83000000 		.4byte	0x83
 2576 0b3c 84030000 		.4byte	.LLST19
 2577 0b40 00       		.byte	0
 2578 0b41 25       		.uleb128 0x25
 2579 0b42 5C010000 		.4byte	.LASF140
 2580 0b46 01       		.byte	0x1
 2581 0b47 51       		.byte	0x51
 2582 0b48 92010000 		.4byte	0x192
 2583 0b4c 05       		.uleb128 0x5
 2584 0b4d 03       		.byte	0x3
 2585 0b4e CC000000 		.4byte	Input_Capsense_debouncesw100
 2586 0b52 25       		.uleb128 0x25
 2587 0b53 79010000 		.4byte	.LASF141
 2588 0b57 01       		.byte	0x1
 2589 0b58 52       		.byte	0x52
 2590 0b59 92010000 		.4byte	0x192
 2591 0b5d 05       		.uleb128 0x5
 2592 0b5e 03       		.byte	0x3
 2593 0b5f C8000000 		.4byte	Input_Capsense_debouncesw101
 2594 0b63 25       		.uleb128 0x25
ARM GAS  C:\Users\doita\AppData\Local\Temp\ccsDJsU6.s 			page 74


 2595 0b64 96010000 		.4byte	.LASF142
 2596 0b68 01       		.byte	0x1
 2597 0b69 53       		.byte	0x53
 2598 0b6a 92010000 		.4byte	0x192
 2599 0b6e 05       		.uleb128 0x5
 2600 0b6f 03       		.byte	0x3
 2601 0b70 C4000000 		.4byte	Input_Capsense_debouncesw102
 2602 0b74 25       		.uleb128 0x25
 2603 0b75 B3010000 		.4byte	.LASF143
 2604 0b79 01       		.byte	0x1
 2605 0b7a 54       		.byte	0x54
 2606 0b7b 92010000 		.4byte	0x192
 2607 0b7f 05       		.uleb128 0x5
 2608 0b80 03       		.byte	0x3
 2609 0b81 C0000000 		.4byte	Input_Capsense_debouncesw103
 2610 0b85 25       		.uleb128 0x25
 2611 0b86 D0010000 		.4byte	.LASF144
 2612 0b8a 01       		.byte	0x1
 2613 0b8b 55       		.byte	0x55
 2614 0b8c 92010000 		.4byte	0x192
 2615 0b90 05       		.uleb128 0x5
 2616 0b91 03       		.byte	0x3
 2617 0b92 BC000000 		.4byte	Input_Capsense_debouncesw104
 2618 0b96 25       		.uleb128 0x25
 2619 0b97 5A070000 		.4byte	.LASF145
 2620 0b9b 01       		.byte	0x1
 2621 0b9c 56       		.byte	0x56
 2622 0b9d 92010000 		.4byte	0x192
 2623 0ba1 05       		.uleb128 0x5
 2624 0ba2 03       		.byte	0x3
 2625 0ba3 B8000000 		.4byte	Input_Capsense_debouncesw105
 2626 0ba7 25       		.uleb128 0x25
 2627 0ba8 FC010000 		.4byte	.LASF146
 2628 0bac 01       		.byte	0x1
 2629 0bad 57       		.byte	0x57
 2630 0bae 92010000 		.4byte	0x192
 2631 0bb2 05       		.uleb128 0x5
 2632 0bb3 03       		.byte	0x3
 2633 0bb4 B4000000 		.4byte	Input_Capsense_debouncesw106
 2634 0bb8 25       		.uleb128 0x25
 2635 0bb9 19020000 		.4byte	.LASF147
 2636 0bbd 01       		.byte	0x1
 2637 0bbe 58       		.byte	0x58
 2638 0bbf 92010000 		.4byte	0x192
 2639 0bc3 05       		.uleb128 0x5
 2640 0bc4 03       		.byte	0x3
 2641 0bc5 B0000000 		.4byte	Input_Capsense_debouncesw107
 2642 0bc9 25       		.uleb128 0x25
 2643 0bca 36020000 		.4byte	.LASF148
 2644 0bce 01       		.byte	0x1
 2645 0bcf 59       		.byte	0x59
 2646 0bd0 92010000 		.4byte	0x192
 2647 0bd4 05       		.uleb128 0x5
 2648 0bd5 03       		.byte	0x3
 2649 0bd6 AC000000 		.4byte	Input_Capsense_debouncesw108
 2650 0bda 25       		.uleb128 0x25
 2651 0bdb 53020000 		.4byte	.LASF149
ARM GAS  C:\Users\doita\AppData\Local\Temp\ccsDJsU6.s 			page 75


 2652 0bdf 01       		.byte	0x1
 2653 0be0 5A       		.byte	0x5a
 2654 0be1 92010000 		.4byte	0x192
 2655 0be5 05       		.uleb128 0x5
 2656 0be6 03       		.byte	0x3
 2657 0be7 A8000000 		.4byte	Input_Capsense_debouncesw109
 2658 0beb 25       		.uleb128 0x25
 2659 0bec 79020000 		.4byte	.LASF150
 2660 0bf0 01       		.byte	0x1
 2661 0bf1 5B       		.byte	0x5b
 2662 0bf2 92010000 		.4byte	0x192
 2663 0bf6 05       		.uleb128 0x5
 2664 0bf7 03       		.byte	0x3
 2665 0bf8 A4000000 		.4byte	Input_Capsense_debouncesw110
 2666 0bfc 25       		.uleb128 0x25
 2667 0bfd 96020000 		.4byte	.LASF151
 2668 0c01 01       		.byte	0x1
 2669 0c02 5C       		.byte	0x5c
 2670 0c03 92010000 		.4byte	0x192
 2671 0c07 05       		.uleb128 0x5
 2672 0c08 03       		.byte	0x3
 2673 0c09 A0000000 		.4byte	Input_Capsense_debouncesw111
 2674 0c0d 25       		.uleb128 0x25
 2675 0c0e B3020000 		.4byte	.LASF152
 2676 0c12 01       		.byte	0x1
 2677 0c13 5D       		.byte	0x5d
 2678 0c14 92010000 		.4byte	0x192
 2679 0c18 05       		.uleb128 0x5
 2680 0c19 03       		.byte	0x3
 2681 0c1a 9C000000 		.4byte	Input_Capsense_debouncesw112
 2682 0c1e 0C       		.uleb128 0xc
 2683 0c1f 50010000 		.4byte	0x150
 2684 0c23 2E0C0000 		.4byte	0xc2e
 2685 0c27 0D       		.uleb128 0xd
 2686 0c28 D2000000 		.4byte	0xd2
 2687 0c2c 00       		.byte	0
 2688 0c2d 00       		.byte	0
 2689 0c2e 25       		.uleb128 0x25
 2690 0c2f C2030000 		.4byte	.LASF153
 2691 0c33 01       		.byte	0x1
 2692 0c34 63       		.byte	0x63
 2693 0c35 1E0C0000 		.4byte	0xc1e
 2694 0c39 05       		.uleb128 0x5
 2695 0c3a 03       		.byte	0x3
 2696 0c3b 90000000 		.4byte	Input_Capsense_noiseEnvlpsw100
 2697 0c3f 25       		.uleb128 0x25
 2698 0c40 E1030000 		.4byte	.LASF154
 2699 0c44 01       		.byte	0x1
 2700 0c45 64       		.byte	0x64
 2701 0c46 1E0C0000 		.4byte	0xc1e
 2702 0c4a 05       		.uleb128 0x5
 2703 0c4b 03       		.byte	0x3
 2704 0c4c 84000000 		.4byte	Input_Capsense_noiseEnvlpsw101
 2705 0c50 25       		.uleb128 0x25
 2706 0c51 00040000 		.4byte	.LASF155
 2707 0c55 01       		.byte	0x1
 2708 0c56 65       		.byte	0x65
ARM GAS  C:\Users\doita\AppData\Local\Temp\ccsDJsU6.s 			page 76


 2709 0c57 1E0C0000 		.4byte	0xc1e
 2710 0c5b 05       		.uleb128 0x5
 2711 0c5c 03       		.byte	0x3
 2712 0c5d 78000000 		.4byte	Input_Capsense_noiseEnvlpsw102
 2713 0c61 25       		.uleb128 0x25
 2714 0c62 1F040000 		.4byte	.LASF156
 2715 0c66 01       		.byte	0x1
 2716 0c67 66       		.byte	0x66
 2717 0c68 1E0C0000 		.4byte	0xc1e
 2718 0c6c 05       		.uleb128 0x5
 2719 0c6d 03       		.byte	0x3
 2720 0c6e 6C000000 		.4byte	Input_Capsense_noiseEnvlpsw103
 2721 0c72 25       		.uleb128 0x25
 2722 0c73 040A0000 		.4byte	.LASF157
 2723 0c77 01       		.byte	0x1
 2724 0c78 67       		.byte	0x67
 2725 0c79 1E0C0000 		.4byte	0xc1e
 2726 0c7d 05       		.uleb128 0x5
 2727 0c7e 03       		.byte	0x3
 2728 0c7f 60000000 		.4byte	Input_Capsense_noiseEnvlpsw104
 2729 0c83 25       		.uleb128 0x25
 2730 0c84 4E040000 		.4byte	.LASF158
 2731 0c88 01       		.byte	0x1
 2732 0c89 68       		.byte	0x68
 2733 0c8a 1E0C0000 		.4byte	0xc1e
 2734 0c8e 05       		.uleb128 0x5
 2735 0c8f 03       		.byte	0x3
 2736 0c90 54000000 		.4byte	Input_Capsense_noiseEnvlpsw105
 2737 0c94 25       		.uleb128 0x25
 2738 0c95 6D040000 		.4byte	.LASF159
 2739 0c99 01       		.byte	0x1
 2740 0c9a 69       		.byte	0x69
 2741 0c9b 1E0C0000 		.4byte	0xc1e
 2742 0c9f 05       		.uleb128 0x5
 2743 0ca0 03       		.byte	0x3
 2744 0ca1 48000000 		.4byte	Input_Capsense_noiseEnvlpsw106
 2745 0ca5 25       		.uleb128 0x25
 2746 0ca6 8C040000 		.4byte	.LASF160
 2747 0caa 01       		.byte	0x1
 2748 0cab 6A       		.byte	0x6a
 2749 0cac 1E0C0000 		.4byte	0xc1e
 2750 0cb0 05       		.uleb128 0x5
 2751 0cb1 03       		.byte	0x3
 2752 0cb2 3C000000 		.4byte	Input_Capsense_noiseEnvlpsw107
 2753 0cb6 25       		.uleb128 0x25
 2754 0cb7 AB040000 		.4byte	.LASF161
 2755 0cbb 01       		.byte	0x1
 2756 0cbc 6B       		.byte	0x6b
 2757 0cbd 1E0C0000 		.4byte	0xc1e
 2758 0cc1 05       		.uleb128 0x5
 2759 0cc2 03       		.byte	0x3
 2760 0cc3 30000000 		.4byte	Input_Capsense_noiseEnvlpsw108
 2761 0cc7 25       		.uleb128 0x25
 2762 0cc8 450A0000 		.4byte	.LASF162
 2763 0ccc 01       		.byte	0x1
 2764 0ccd 6C       		.byte	0x6c
 2765 0cce 1E0C0000 		.4byte	0xc1e
ARM GAS  C:\Users\doita\AppData\Local\Temp\ccsDJsU6.s 			page 77


 2766 0cd2 05       		.uleb128 0x5
 2767 0cd3 03       		.byte	0x3
 2768 0cd4 24000000 		.4byte	Input_Capsense_noiseEnvlpsw109
 2769 0cd8 25       		.uleb128 0x25
 2770 0cd9 14050000 		.4byte	.LASF163
 2771 0cdd 01       		.byte	0x1
 2772 0cde 6D       		.byte	0x6d
 2773 0cdf 1E0C0000 		.4byte	0xc1e
 2774 0ce3 05       		.uleb128 0x5
 2775 0ce4 03       		.byte	0x3
 2776 0ce5 18000000 		.4byte	Input_Capsense_noiseEnvlpsw110
 2777 0ce9 25       		.uleb128 0x25
 2778 0cea 870B0000 		.4byte	.LASF164
 2779 0cee 01       		.byte	0x1
 2780 0cef 6E       		.byte	0x6e
 2781 0cf0 1E0C0000 		.4byte	0xc1e
 2782 0cf4 05       		.uleb128 0x5
 2783 0cf5 03       		.byte	0x3
 2784 0cf6 0C000000 		.4byte	Input_Capsense_noiseEnvlpsw111
 2785 0cfa 25       		.uleb128 0x25
 2786 0cfb 39050000 		.4byte	.LASF165
 2787 0cff 01       		.byte	0x1
 2788 0d00 6F       		.byte	0x6f
 2789 0d01 1E0C0000 		.4byte	0xc1e
 2790 0d05 05       		.uleb128 0x5
 2791 0d06 03       		.byte	0x3
 2792 0d07 00000000 		.4byte	Input_Capsense_noiseEnvlpsw112
 2793 0d0b 26       		.uleb128 0x26
 2794 0d0c AF0B0000 		.4byte	.LASF166
 2795 0d10 01       		.byte	0x1
 2796 0d11 4A       		.byte	0x4a
 2797 0d12 9C050000 		.4byte	0x59c
 2798 0d16 05       		.uleb128 0x5
 2799 0d17 03       		.byte	0x3
 2800 0d18 00000000 		.4byte	Input_Capsense_dsRam
 2801 0d1c 26       		.uleb128 0x26
 2802 0d1d 94050000 		.4byte	.LASF167
 2803 0d21 01       		.byte	0x1
 2804 0d22 7F       		.byte	0x7f
 2805 0d23 2D0D0000 		.4byte	0xd2d
 2806 0d27 05       		.uleb128 0x5
 2807 0d28 03       		.byte	0x3
 2808 0d29 00000000 		.4byte	Input_Capsense_dsFlash
 2809 0d2d 1D       		.uleb128 0x1d
 2810 0d2e 12070000 		.4byte	0x712
 2811 0d32 0C       		.uleb128 0xc
 2812 0d33 420D0000 		.4byte	0xd42
 2813 0d37 420D0000 		.4byte	0xd42
 2814 0d3b 0D       		.uleb128 0xd
 2815 0d3c D2000000 		.4byte	0xd2
 2816 0d40 0C       		.byte	0xc
 2817 0d41 00       		.byte	0
 2818 0d42 1D       		.uleb128 0x1d
 2819 0d43 2D060000 		.4byte	0x62d
 2820 0d47 27       		.uleb128 0x27
 2821 0d48 9D000000 		.4byte	.LASF168
 2822 0d4c 01       		.byte	0x1
ARM GAS  C:\Users\doita\AppData\Local\Temp\ccsDJsU6.s 			page 78


 2823 0d4d 2501     		.2byte	0x125
 2824 0d4f 590D0000 		.4byte	0xd59
 2825 0d53 05       		.uleb128 0x5
 2826 0d54 03       		.byte	0x3
 2827 0d55 00000000 		.4byte	Input_Capsense_ioList
 2828 0d59 1D       		.uleb128 0x1d
 2829 0d5a 320D0000 		.4byte	0xd32
 2830 0d5e 27       		.uleb128 0x27
 2831 0d5f 65050000 		.4byte	.LASF169
 2832 0d63 01       		.byte	0x1
 2833 0d64 BE01     		.2byte	0x1be
 2834 0d66 700D0000 		.4byte	0xd70
 2835 0d6a 05       		.uleb128 0x5
 2836 0d6b 03       		.byte	0x3
 2837 0d6c 00000000 		.4byte	Input_Capsense_ramWidgetInit
 2838 0d70 1D       		.uleb128 0x1d
 2839 0d71 14030000 		.4byte	0x314
 2840 0d75 0C       		.uleb128 0xc
 2841 0d76 95080000 		.4byte	0x895
 2842 0d7a 850D0000 		.4byte	0xd85
 2843 0d7e 0D       		.uleb128 0xd
 2844 0d7f D2000000 		.4byte	0xd2
 2845 0d83 0C       		.byte	0xc
 2846 0d84 00       		.byte	0
 2847 0d85 27       		.uleb128 0x27
 2848 0d86 AD060000 		.4byte	.LASF170
 2849 0d8a 01       		.byte	0x1
 2850 0d8b A102     		.2byte	0x2a1
 2851 0d8d 970D0000 		.4byte	0xd97
 2852 0d91 05       		.uleb128 0x5
 2853 0d92 03       		.byte	0x3
 2854 0d93 00000000 		.4byte	Input_Capsense_ramIdacInit
 2855 0d97 1D       		.uleb128 0x1d
 2856 0d98 750D0000 		.4byte	0xd75
 2857 0d9c 28       		.uleb128 0x28
 2858 0d9d E8060000 		.4byte	.LASF171
 2859 0da1 E8060000 		.4byte	.LASF171
 2860 0da5 28       		.uleb128 0x28
 2861 0da6 270B0000 		.4byte	.LASF172
 2862 0daa 270B0000 		.4byte	.LASF172
 2863 0dae 29       		.uleb128 0x29
 2864 0daf 1F010000 		.4byte	.LASF178
 2865 0db3 1F010000 		.4byte	.LASF178
 2866 0db7 06       		.byte	0x6
 2867 0db8 FA       		.byte	0xfa
 2868 0db9 00       		.byte	0
 2869              		.section	.debug_abbrev,"",%progbits
 2870              	.Ldebug_abbrev0:
 2871 0000 01       		.uleb128 0x1
 2872 0001 11       		.uleb128 0x11
 2873 0002 01       		.byte	0x1
 2874 0003 25       		.uleb128 0x25
 2875 0004 0E       		.uleb128 0xe
 2876 0005 13       		.uleb128 0x13
 2877 0006 0B       		.uleb128 0xb
 2878 0007 03       		.uleb128 0x3
 2879 0008 0E       		.uleb128 0xe
ARM GAS  C:\Users\doita\AppData\Local\Temp\ccsDJsU6.s 			page 79


 2880 0009 1B       		.uleb128 0x1b
 2881 000a 0E       		.uleb128 0xe
 2882 000b 55       		.uleb128 0x55
 2883 000c 17       		.uleb128 0x17
 2884 000d 11       		.uleb128 0x11
 2885 000e 01       		.uleb128 0x1
 2886 000f 10       		.uleb128 0x10
 2887 0010 17       		.uleb128 0x17
 2888 0011 00       		.byte	0
 2889 0012 00       		.byte	0
 2890 0013 02       		.uleb128 0x2
 2891 0014 24       		.uleb128 0x24
 2892 0015 00       		.byte	0
 2893 0016 0B       		.uleb128 0xb
 2894 0017 0B       		.uleb128 0xb
 2895 0018 3E       		.uleb128 0x3e
 2896 0019 0B       		.uleb128 0xb
 2897 001a 03       		.uleb128 0x3
 2898 001b 0E       		.uleb128 0xe
 2899 001c 00       		.byte	0
 2900 001d 00       		.byte	0
 2901 001e 03       		.uleb128 0x3
 2902 001f 24       		.uleb128 0x24
 2903 0020 00       		.byte	0
 2904 0021 0B       		.uleb128 0xb
 2905 0022 0B       		.uleb128 0xb
 2906 0023 3E       		.uleb128 0x3e
 2907 0024 0B       		.uleb128 0xb
 2908 0025 03       		.uleb128 0x3
 2909 0026 08       		.uleb128 0x8
 2910 0027 00       		.byte	0
 2911 0028 00       		.byte	0
 2912 0029 04       		.uleb128 0x4
 2913 002a 16       		.uleb128 0x16
 2914 002b 00       		.byte	0
 2915 002c 03       		.uleb128 0x3
 2916 002d 0E       		.uleb128 0xe
 2917 002e 3A       		.uleb128 0x3a
 2918 002f 0B       		.uleb128 0xb
 2919 0030 3B       		.uleb128 0x3b
 2920 0031 05       		.uleb128 0x5
 2921 0032 49       		.uleb128 0x49
 2922 0033 13       		.uleb128 0x13
 2923 0034 00       		.byte	0
 2924 0035 00       		.byte	0
 2925 0036 05       		.uleb128 0x5
 2926 0037 35       		.uleb128 0x35
 2927 0038 00       		.byte	0
 2928 0039 49       		.uleb128 0x49
 2929 003a 13       		.uleb128 0x13
 2930 003b 00       		.byte	0
 2931 003c 00       		.byte	0
 2932 003d 06       		.uleb128 0x6
 2933 003e 0F       		.uleb128 0xf
 2934 003f 00       		.byte	0
 2935 0040 0B       		.uleb128 0xb
 2936 0041 0B       		.uleb128 0xb
ARM GAS  C:\Users\doita\AppData\Local\Temp\ccsDJsU6.s 			page 80


 2937 0042 00       		.byte	0
 2938 0043 00       		.byte	0
 2939 0044 07       		.uleb128 0x7
 2940 0045 13       		.uleb128 0x13
 2941 0046 01       		.byte	0x1
 2942 0047 0B       		.uleb128 0xb
 2943 0048 0B       		.uleb128 0xb
 2944 0049 3A       		.uleb128 0x3a
 2945 004a 0B       		.uleb128 0xb
 2946 004b 3B       		.uleb128 0x3b
 2947 004c 0B       		.uleb128 0xb
 2948 004d 01       		.uleb128 0x1
 2949 004e 13       		.uleb128 0x13
 2950 004f 00       		.byte	0
 2951 0050 00       		.byte	0
 2952 0051 08       		.uleb128 0x8
 2953 0052 0D       		.uleb128 0xd
 2954 0053 00       		.byte	0
 2955 0054 03       		.uleb128 0x3
 2956 0055 0E       		.uleb128 0xe
 2957 0056 3A       		.uleb128 0x3a
 2958 0057 0B       		.uleb128 0xb
 2959 0058 3B       		.uleb128 0x3b
 2960 0059 0B       		.uleb128 0xb
 2961 005a 49       		.uleb128 0x49
 2962 005b 13       		.uleb128 0x13
 2963 005c 38       		.uleb128 0x38
 2964 005d 0B       		.uleb128 0xb
 2965 005e 00       		.byte	0
 2966 005f 00       		.byte	0
 2967 0060 09       		.uleb128 0x9
 2968 0061 16       		.uleb128 0x16
 2969 0062 00       		.byte	0
 2970 0063 03       		.uleb128 0x3
 2971 0064 0E       		.uleb128 0xe
 2972 0065 3A       		.uleb128 0x3a
 2973 0066 0B       		.uleb128 0xb
 2974 0067 3B       		.uleb128 0x3b
 2975 0068 0B       		.uleb128 0xb
 2976 0069 49       		.uleb128 0x49
 2977 006a 13       		.uleb128 0x13
 2978 006b 00       		.byte	0
 2979 006c 00       		.byte	0
 2980 006d 0A       		.uleb128 0xa
 2981 006e 04       		.uleb128 0x4
 2982 006f 01       		.byte	0x1
 2983 0070 0B       		.uleb128 0xb
 2984 0071 0B       		.uleb128 0xb
 2985 0072 49       		.uleb128 0x49
 2986 0073 13       		.uleb128 0x13
 2987 0074 3A       		.uleb128 0x3a
 2988 0075 0B       		.uleb128 0xb
 2989 0076 3B       		.uleb128 0x3b
 2990 0077 0B       		.uleb128 0xb
 2991 0078 01       		.uleb128 0x1
 2992 0079 13       		.uleb128 0x13
 2993 007a 00       		.byte	0
ARM GAS  C:\Users\doita\AppData\Local\Temp\ccsDJsU6.s 			page 81


 2994 007b 00       		.byte	0
 2995 007c 0B       		.uleb128 0xb
 2996 007d 28       		.uleb128 0x28
 2997 007e 00       		.byte	0
 2998 007f 03       		.uleb128 0x3
 2999 0080 0E       		.uleb128 0xe
 3000 0081 1C       		.uleb128 0x1c
 3001 0082 0B       		.uleb128 0xb
 3002 0083 00       		.byte	0
 3003 0084 00       		.byte	0
 3004 0085 0C       		.uleb128 0xc
 3005 0086 01       		.uleb128 0x1
 3006 0087 01       		.byte	0x1
 3007 0088 49       		.uleb128 0x49
 3008 0089 13       		.uleb128 0x13
 3009 008a 01       		.uleb128 0x1
 3010 008b 13       		.uleb128 0x13
 3011 008c 00       		.byte	0
 3012 008d 00       		.byte	0
 3013 008e 0D       		.uleb128 0xd
 3014 008f 21       		.uleb128 0x21
 3015 0090 00       		.byte	0
 3016 0091 49       		.uleb128 0x49
 3017 0092 13       		.uleb128 0x13
 3018 0093 2F       		.uleb128 0x2f
 3019 0094 0B       		.uleb128 0xb
 3020 0095 00       		.byte	0
 3021 0096 00       		.byte	0
 3022 0097 0E       		.uleb128 0xe
 3023 0098 0D       		.uleb128 0xd
 3024 0099 00       		.byte	0
 3025 009a 03       		.uleb128 0x3
 3026 009b 0E       		.uleb128 0xe
 3027 009c 3A       		.uleb128 0x3a
 3028 009d 0B       		.uleb128 0xb
 3029 009e 3B       		.uleb128 0x3b
 3030 009f 05       		.uleb128 0x5
 3031 00a0 49       		.uleb128 0x49
 3032 00a1 13       		.uleb128 0x13
 3033 00a2 38       		.uleb128 0x38
 3034 00a3 0B       		.uleb128 0xb
 3035 00a4 00       		.byte	0
 3036 00a5 00       		.byte	0
 3037 00a6 0F       		.uleb128 0xf
 3038 00a7 13       		.uleb128 0x13
 3039 00a8 01       		.byte	0x1
 3040 00a9 0B       		.uleb128 0xb
 3041 00aa 05       		.uleb128 0x5
 3042 00ab 3A       		.uleb128 0x3a
 3043 00ac 0B       		.uleb128 0xb
 3044 00ad 3B       		.uleb128 0x3b
 3045 00ae 05       		.uleb128 0x5
 3046 00af 01       		.uleb128 0x1
 3047 00b0 13       		.uleb128 0x13
 3048 00b1 00       		.byte	0
 3049 00b2 00       		.byte	0
 3050 00b3 10       		.uleb128 0x10
ARM GAS  C:\Users\doita\AppData\Local\Temp\ccsDJsU6.s 			page 82


 3051 00b4 13       		.uleb128 0x13
 3052 00b5 01       		.byte	0x1
 3053 00b6 0B       		.uleb128 0xb
 3054 00b7 0B       		.uleb128 0xb
 3055 00b8 3A       		.uleb128 0x3a
 3056 00b9 0B       		.uleb128 0xb
 3057 00ba 3B       		.uleb128 0x3b
 3058 00bb 05       		.uleb128 0x5
 3059 00bc 01       		.uleb128 0x1
 3060 00bd 13       		.uleb128 0x13
 3061 00be 00       		.byte	0
 3062 00bf 00       		.byte	0
 3063 00c0 11       		.uleb128 0x11
 3064 00c1 0D       		.uleb128 0xd
 3065 00c2 00       		.byte	0
 3066 00c3 03       		.uleb128 0x3
 3067 00c4 08       		.uleb128 0x8
 3068 00c5 3A       		.uleb128 0x3a
 3069 00c6 0B       		.uleb128 0xb
 3070 00c7 3B       		.uleb128 0x3b
 3071 00c8 05       		.uleb128 0x5
 3072 00c9 49       		.uleb128 0x49
 3073 00ca 13       		.uleb128 0x13
 3074 00cb 38       		.uleb128 0x38
 3075 00cc 0B       		.uleb128 0xb
 3076 00cd 00       		.byte	0
 3077 00ce 00       		.byte	0
 3078 00cf 12       		.uleb128 0x12
 3079 00d0 0D       		.uleb128 0xd
 3080 00d1 00       		.byte	0
 3081 00d2 03       		.uleb128 0x3
 3082 00d3 0E       		.uleb128 0xe
 3083 00d4 3A       		.uleb128 0x3a
 3084 00d5 0B       		.uleb128 0xb
 3085 00d6 3B       		.uleb128 0x3b
 3086 00d7 05       		.uleb128 0x5
 3087 00d8 49       		.uleb128 0x49
 3088 00d9 13       		.uleb128 0x13
 3089 00da 38       		.uleb128 0x38
 3090 00db 05       		.uleb128 0x5
 3091 00dc 00       		.byte	0
 3092 00dd 00       		.byte	0
 3093 00de 13       		.uleb128 0x13
 3094 00df 0F       		.uleb128 0xf
 3095 00e0 00       		.byte	0
 3096 00e1 0B       		.uleb128 0xb
 3097 00e2 0B       		.uleb128 0xb
 3098 00e3 49       		.uleb128 0x49
 3099 00e4 13       		.uleb128 0x13
 3100 00e5 00       		.byte	0
 3101 00e6 00       		.byte	0
 3102 00e7 14       		.uleb128 0x14
 3103 00e8 26       		.uleb128 0x26
 3104 00e9 00       		.byte	0
 3105 00ea 00       		.byte	0
 3106 00eb 00       		.byte	0
 3107 00ec 15       		.uleb128 0x15
ARM GAS  C:\Users\doita\AppData\Local\Temp\ccsDJsU6.s 			page 83


 3108 00ed 2E       		.uleb128 0x2e
 3109 00ee 01       		.byte	0x1
 3110 00ef 03       		.uleb128 0x3
 3111 00f0 0E       		.uleb128 0xe
 3112 00f1 3A       		.uleb128 0x3a
 3113 00f2 0B       		.uleb128 0xb
 3114 00f3 3B       		.uleb128 0x3b
 3115 00f4 05       		.uleb128 0x5
 3116 00f5 27       		.uleb128 0x27
 3117 00f6 19       		.uleb128 0x19
 3118 00f7 49       		.uleb128 0x49
 3119 00f8 13       		.uleb128 0x13
 3120 00f9 11       		.uleb128 0x11
 3121 00fa 01       		.uleb128 0x1
 3122 00fb 12       		.uleb128 0x12
 3123 00fc 06       		.uleb128 0x6
 3124 00fd 40       		.uleb128 0x40
 3125 00fe 18       		.uleb128 0x18
 3126 00ff 9742     		.uleb128 0x2117
 3127 0101 19       		.uleb128 0x19
 3128 0102 01       		.uleb128 0x1
 3129 0103 13       		.uleb128 0x13
 3130 0104 00       		.byte	0
 3131 0105 00       		.byte	0
 3132 0106 16       		.uleb128 0x16
 3133 0107 05       		.uleb128 0x5
 3134 0108 00       		.byte	0
 3135 0109 03       		.uleb128 0x3
 3136 010a 0E       		.uleb128 0xe
 3137 010b 3A       		.uleb128 0x3a
 3138 010c 0B       		.uleb128 0xb
 3139 010d 3B       		.uleb128 0x3b
 3140 010e 05       		.uleb128 0x5
 3141 010f 49       		.uleb128 0x49
 3142 0110 13       		.uleb128 0x13
 3143 0111 02       		.uleb128 0x2
 3144 0112 17       		.uleb128 0x17
 3145 0113 00       		.byte	0
 3146 0114 00       		.byte	0
 3147 0115 17       		.uleb128 0x17
 3148 0116 05       		.uleb128 0x5
 3149 0117 00       		.byte	0
 3150 0118 03       		.uleb128 0x3
 3151 0119 0E       		.uleb128 0xe
 3152 011a 3A       		.uleb128 0x3a
 3153 011b 0B       		.uleb128 0xb
 3154 011c 3B       		.uleb128 0x3b
 3155 011d 05       		.uleb128 0x5
 3156 011e 49       		.uleb128 0x49
 3157 011f 13       		.uleb128 0x13
 3158 0120 02       		.uleb128 0x2
 3159 0121 18       		.uleb128 0x18
 3160 0122 00       		.byte	0
 3161 0123 00       		.byte	0
 3162 0124 18       		.uleb128 0x18
 3163 0125 34       		.uleb128 0x34
 3164 0126 00       		.byte	0
ARM GAS  C:\Users\doita\AppData\Local\Temp\ccsDJsU6.s 			page 84


 3165 0127 03       		.uleb128 0x3
 3166 0128 0E       		.uleb128 0xe
 3167 0129 3A       		.uleb128 0x3a
 3168 012a 0B       		.uleb128 0xb
 3169 012b 3B       		.uleb128 0x3b
 3170 012c 05       		.uleb128 0x5
 3171 012d 49       		.uleb128 0x49
 3172 012e 13       		.uleb128 0x13
 3173 012f 02       		.uleb128 0x2
 3174 0130 17       		.uleb128 0x17
 3175 0131 00       		.byte	0
 3176 0132 00       		.byte	0
 3177 0133 19       		.uleb128 0x19
 3178 0134 2E       		.uleb128 0x2e
 3179 0135 01       		.byte	0x1
 3180 0136 3F       		.uleb128 0x3f
 3181 0137 19       		.uleb128 0x19
 3182 0138 03       		.uleb128 0x3
 3183 0139 0E       		.uleb128 0xe
 3184 013a 3A       		.uleb128 0x3a
 3185 013b 0B       		.uleb128 0xb
 3186 013c 3B       		.uleb128 0x3b
 3187 013d 05       		.uleb128 0x5
 3188 013e 27       		.uleb128 0x27
 3189 013f 19       		.uleb128 0x19
 3190 0140 11       		.uleb128 0x11
 3191 0141 01       		.uleb128 0x1
 3192 0142 12       		.uleb128 0x12
 3193 0143 06       		.uleb128 0x6
 3194 0144 40       		.uleb128 0x40
 3195 0145 18       		.uleb128 0x18
 3196 0146 9742     		.uleb128 0x2117
 3197 0148 19       		.uleb128 0x19
 3198 0149 01       		.uleb128 0x1
 3199 014a 13       		.uleb128 0x13
 3200 014b 00       		.byte	0
 3201 014c 00       		.byte	0
 3202 014d 1A       		.uleb128 0x1a
 3203 014e 898201   		.uleb128 0x4109
 3204 0151 01       		.byte	0x1
 3205 0152 11       		.uleb128 0x11
 3206 0153 01       		.uleb128 0x1
 3207 0154 31       		.uleb128 0x31
 3208 0155 13       		.uleb128 0x13
 3209 0156 01       		.uleb128 0x1
 3210 0157 13       		.uleb128 0x13
 3211 0158 00       		.byte	0
 3212 0159 00       		.byte	0
 3213 015a 1B       		.uleb128 0x1b
 3214 015b 8A8201   		.uleb128 0x410a
 3215 015e 00       		.byte	0
 3216 015f 02       		.uleb128 0x2
 3217 0160 18       		.uleb128 0x18
 3218 0161 9142     		.uleb128 0x2111
 3219 0163 18       		.uleb128 0x18
 3220 0164 00       		.byte	0
 3221 0165 00       		.byte	0
ARM GAS  C:\Users\doita\AppData\Local\Temp\ccsDJsU6.s 			page 85


 3222 0166 1C       		.uleb128 0x1c
 3223 0167 898201   		.uleb128 0x4109
 3224 016a 01       		.byte	0x1
 3225 016b 11       		.uleb128 0x11
 3226 016c 01       		.uleb128 0x1
 3227 016d 31       		.uleb128 0x31
 3228 016e 13       		.uleb128 0x13
 3229 016f 00       		.byte	0
 3230 0170 00       		.byte	0
 3231 0171 1D       		.uleb128 0x1d
 3232 0172 26       		.uleb128 0x26
 3233 0173 00       		.byte	0
 3234 0174 49       		.uleb128 0x49
 3235 0175 13       		.uleb128 0x13
 3236 0176 00       		.byte	0
 3237 0177 00       		.byte	0
 3238 0178 1E       		.uleb128 0x1e
 3239 0179 2E       		.uleb128 0x2e
 3240 017a 01       		.byte	0x1
 3241 017b 3F       		.uleb128 0x3f
 3242 017c 19       		.uleb128 0x19
 3243 017d 03       		.uleb128 0x3
 3244 017e 0E       		.uleb128 0xe
 3245 017f 3A       		.uleb128 0x3a
 3246 0180 0B       		.uleb128 0xb
 3247 0181 3B       		.uleb128 0x3b
 3248 0182 05       		.uleb128 0x5
 3249 0183 27       		.uleb128 0x27
 3250 0184 19       		.uleb128 0x19
 3251 0185 49       		.uleb128 0x49
 3252 0186 13       		.uleb128 0x13
 3253 0187 11       		.uleb128 0x11
 3254 0188 01       		.uleb128 0x1
 3255 0189 12       		.uleb128 0x12
 3256 018a 06       		.uleb128 0x6
 3257 018b 40       		.uleb128 0x40
 3258 018c 18       		.uleb128 0x18
 3259 018d 9742     		.uleb128 0x2117
 3260 018f 19       		.uleb128 0x19
 3261 0190 01       		.uleb128 0x1
 3262 0191 13       		.uleb128 0x13
 3263 0192 00       		.byte	0
 3264 0193 00       		.byte	0
 3265 0194 1F       		.uleb128 0x1f
 3266 0195 34       		.uleb128 0x34
 3267 0196 00       		.byte	0
 3268 0197 03       		.uleb128 0x3
 3269 0198 0E       		.uleb128 0xe
 3270 0199 3A       		.uleb128 0x3a
 3271 019a 0B       		.uleb128 0xb
 3272 019b 3B       		.uleb128 0x3b
 3273 019c 05       		.uleb128 0x5
 3274 019d 49       		.uleb128 0x49
 3275 019e 13       		.uleb128 0x13
 3276 019f 02       		.uleb128 0x2
 3277 01a0 18       		.uleb128 0x18
 3278 01a1 00       		.byte	0
ARM GAS  C:\Users\doita\AppData\Local\Temp\ccsDJsU6.s 			page 86


 3279 01a2 00       		.byte	0
 3280 01a3 20       		.uleb128 0x20
 3281 01a4 17       		.uleb128 0x17
 3282 01a5 01       		.byte	0x1
 3283 01a6 0B       		.uleb128 0xb
 3284 01a7 0B       		.uleb128 0xb
 3285 01a8 3A       		.uleb128 0x3a
 3286 01a9 0B       		.uleb128 0xb
 3287 01aa 3B       		.uleb128 0x3b
 3288 01ab 05       		.uleb128 0x5
 3289 01ac 01       		.uleb128 0x1
 3290 01ad 13       		.uleb128 0x13
 3291 01ae 00       		.byte	0
 3292 01af 00       		.byte	0
 3293 01b0 21       		.uleb128 0x21
 3294 01b1 0D       		.uleb128 0xd
 3295 01b2 00       		.byte	0
 3296 01b3 03       		.uleb128 0x3
 3297 01b4 08       		.uleb128 0x8
 3298 01b5 3A       		.uleb128 0x3a
 3299 01b6 0B       		.uleb128 0xb
 3300 01b7 3B       		.uleb128 0x3b
 3301 01b8 05       		.uleb128 0x5
 3302 01b9 49       		.uleb128 0x49
 3303 01ba 13       		.uleb128 0x13
 3304 01bb 00       		.byte	0
 3305 01bc 00       		.byte	0
 3306 01bd 22       		.uleb128 0x22
 3307 01be 0D       		.uleb128 0xd
 3308 01bf 00       		.byte	0
 3309 01c0 03       		.uleb128 0x3
 3310 01c1 0E       		.uleb128 0xe
 3311 01c2 3A       		.uleb128 0x3a
 3312 01c3 0B       		.uleb128 0xb
 3313 01c4 3B       		.uleb128 0x3b
 3314 01c5 05       		.uleb128 0x5
 3315 01c6 49       		.uleb128 0x49
 3316 01c7 13       		.uleb128 0x13
 3317 01c8 00       		.byte	0
 3318 01c9 00       		.byte	0
 3319 01ca 23       		.uleb128 0x23
 3320 01cb 35       		.uleb128 0x35
 3321 01cc 00       		.byte	0
 3322 01cd 00       		.byte	0
 3323 01ce 00       		.byte	0
 3324 01cf 24       		.uleb128 0x24
 3325 01d0 34       		.uleb128 0x34
 3326 01d1 00       		.byte	0
 3327 01d2 03       		.uleb128 0x3
 3328 01d3 0E       		.uleb128 0xe
 3329 01d4 3A       		.uleb128 0x3a
 3330 01d5 0B       		.uleb128 0xb
 3331 01d6 3B       		.uleb128 0x3b
 3332 01d7 05       		.uleb128 0x5
 3333 01d8 49       		.uleb128 0x49
 3334 01d9 13       		.uleb128 0x13
 3335 01da 00       		.byte	0
ARM GAS  C:\Users\doita\AppData\Local\Temp\ccsDJsU6.s 			page 87


 3336 01db 00       		.byte	0
 3337 01dc 25       		.uleb128 0x25
 3338 01dd 34       		.uleb128 0x34
 3339 01de 00       		.byte	0
 3340 01df 03       		.uleb128 0x3
 3341 01e0 0E       		.uleb128 0xe
 3342 01e1 3A       		.uleb128 0x3a
 3343 01e2 0B       		.uleb128 0xb
 3344 01e3 3B       		.uleb128 0x3b
 3345 01e4 0B       		.uleb128 0xb
 3346 01e5 49       		.uleb128 0x49
 3347 01e6 13       		.uleb128 0x13
 3348 01e7 02       		.uleb128 0x2
 3349 01e8 18       		.uleb128 0x18
 3350 01e9 00       		.byte	0
 3351 01ea 00       		.byte	0
 3352 01eb 26       		.uleb128 0x26
 3353 01ec 34       		.uleb128 0x34
 3354 01ed 00       		.byte	0
 3355 01ee 03       		.uleb128 0x3
 3356 01ef 0E       		.uleb128 0xe
 3357 01f0 3A       		.uleb128 0x3a
 3358 01f1 0B       		.uleb128 0xb
 3359 01f2 3B       		.uleb128 0x3b
 3360 01f3 0B       		.uleb128 0xb
 3361 01f4 49       		.uleb128 0x49
 3362 01f5 13       		.uleb128 0x13
 3363 01f6 3F       		.uleb128 0x3f
 3364 01f7 19       		.uleb128 0x19
 3365 01f8 02       		.uleb128 0x2
 3366 01f9 18       		.uleb128 0x18
 3367 01fa 00       		.byte	0
 3368 01fb 00       		.byte	0
 3369 01fc 27       		.uleb128 0x27
 3370 01fd 34       		.uleb128 0x34
 3371 01fe 00       		.byte	0
 3372 01ff 03       		.uleb128 0x3
 3373 0200 0E       		.uleb128 0xe
 3374 0201 3A       		.uleb128 0x3a
 3375 0202 0B       		.uleb128 0xb
 3376 0203 3B       		.uleb128 0x3b
 3377 0204 05       		.uleb128 0x5
 3378 0205 49       		.uleb128 0x49
 3379 0206 13       		.uleb128 0x13
 3380 0207 3F       		.uleb128 0x3f
 3381 0208 19       		.uleb128 0x19
 3382 0209 02       		.uleb128 0x2
 3383 020a 18       		.uleb128 0x18
 3384 020b 00       		.byte	0
 3385 020c 00       		.byte	0
 3386 020d 28       		.uleb128 0x28
 3387 020e 2E       		.uleb128 0x2e
 3388 020f 00       		.byte	0
 3389 0210 3F       		.uleb128 0x3f
 3390 0211 19       		.uleb128 0x19
 3391 0212 3C       		.uleb128 0x3c
 3392 0213 19       		.uleb128 0x19
ARM GAS  C:\Users\doita\AppData\Local\Temp\ccsDJsU6.s 			page 88


 3393 0214 6E       		.uleb128 0x6e
 3394 0215 0E       		.uleb128 0xe
 3395 0216 03       		.uleb128 0x3
 3396 0217 0E       		.uleb128 0xe
 3397 0218 00       		.byte	0
 3398 0219 00       		.byte	0
 3399 021a 29       		.uleb128 0x29
 3400 021b 2E       		.uleb128 0x2e
 3401 021c 00       		.byte	0
 3402 021d 3F       		.uleb128 0x3f
 3403 021e 19       		.uleb128 0x19
 3404 021f 3C       		.uleb128 0x3c
 3405 0220 19       		.uleb128 0x19
 3406 0221 6E       		.uleb128 0x6e
 3407 0222 0E       		.uleb128 0xe
 3408 0223 03       		.uleb128 0x3
 3409 0224 0E       		.uleb128 0xe
 3410 0225 3A       		.uleb128 0x3a
 3411 0226 0B       		.uleb128 0xb
 3412 0227 3B       		.uleb128 0x3b
 3413 0228 0B       		.uleb128 0xb
 3414 0229 00       		.byte	0
 3415 022a 00       		.byte	0
 3416 022b 00       		.byte	0
 3417              		.section	.debug_loc,"",%progbits
 3418              	.Ldebug_loc0:
 3419              	.LLST0:
 3420 0000 00000000 		.4byte	.LVL0
 3421 0004 28000000 		.4byte	.LVL2
 3422 0008 0100     		.2byte	0x1
 3423 000a 50       		.byte	0x50
 3424 000b 28000000 		.4byte	.LVL2
 3425 000f 82000000 		.4byte	.LFE2
 3426 0013 0400     		.2byte	0x4
 3427 0015 F3       		.byte	0xf3
 3428 0016 01       		.uleb128 0x1
 3429 0017 50       		.byte	0x50
 3430 0018 9F       		.byte	0x9f
 3431 0019 00000000 		.4byte	0
 3432 001d 00000000 		.4byte	0
 3433              	.LLST1:
 3434 0021 02000000 		.4byte	.LVL1
 3435 0025 4C000000 		.4byte	.LVL3
 3436 0029 0200     		.2byte	0x2
 3437 002b 30       		.byte	0x30
 3438 002c 9F       		.byte	0x9f
 3439 002d 4C000000 		.4byte	.LVL3
 3440 0031 52000000 		.4byte	.LVL4
 3441 0035 0100     		.2byte	0x1
 3442 0037 50       		.byte	0x50
 3443 0038 52000000 		.4byte	.LVL4
 3444 003c 56000000 		.4byte	.LVL5
 3445 0040 0200     		.2byte	0x2
 3446 0042 30       		.byte	0x30
 3447 0043 9F       		.byte	0x9f
 3448 0044 56000000 		.4byte	.LVL5
 3449 0048 78000000 		.4byte	.LVL7
ARM GAS  C:\Users\doita\AppData\Local\Temp\ccsDJsU6.s 			page 89


 3450 004c 0100     		.2byte	0x1
 3451 004e 50       		.byte	0x50
 3452 004f 7A000000 		.4byte	.LVL8
 3453 0053 7C000000 		.4byte	.LVL9
 3454 0057 0100     		.2byte	0x1
 3455 0059 50       		.byte	0x50
 3456 005a 7E000000 		.4byte	.LVL10
 3457 005e 82000000 		.4byte	.LFE2
 3458 0062 0100     		.2byte	0x1
 3459 0064 50       		.byte	0x50
 3460 0065 00000000 		.4byte	0
 3461 0069 00000000 		.4byte	0
 3462              	.LLST2:
 3463 006d 50000000 		.4byte	.LVL17
 3464 0071 52000000 		.4byte	.LVL18
 3465 0075 0100     		.2byte	0x1
 3466 0077 53       		.byte	0x53
 3467 0078 52000000 		.4byte	.LVL18
 3468 007c 5C000000 		.4byte	.LVL21
 3469 0080 0100     		.2byte	0x1
 3470 0082 50       		.byte	0x50
 3471 0083 5C000000 		.4byte	.LVL21
 3472 0087 5E000000 		.4byte	.LVL22
 3473 008b 0100     		.2byte	0x1
 3474 008d 53       		.byte	0x53
 3475 008e 5E000000 		.4byte	.LVL22
 3476 0092 66000000 		.4byte	.LVL24
 3477 0096 0100     		.2byte	0x1
 3478 0098 50       		.byte	0x50
 3479 0099 00000000 		.4byte	0
 3480 009d 00000000 		.4byte	0
 3481              	.LLST3:
 3482 00a1 42000000 		.4byte	.LVL14
 3483 00a5 4C000000 		.4byte	.LVL15
 3484 00a9 0200     		.2byte	0x2
 3485 00ab 3D       		.byte	0x3d
 3486 00ac 9F       		.byte	0x9f
 3487 00ad 4C000000 		.4byte	.LVL15
 3488 00b1 66000000 		.4byte	.LVL24
 3489 00b5 0100     		.2byte	0x1
 3490 00b7 55       		.byte	0x55
 3491 00b8 66000000 		.4byte	.LVL24
 3492 00bc 68000000 		.4byte	.LVL25
 3493 00c0 0100     		.2byte	0x1
 3494 00c2 53       		.byte	0x53
 3495 00c3 68000000 		.4byte	.LVL25
 3496 00c7 6C000000 		.4byte	.LVL27
 3497 00cb 0100     		.2byte	0x1
 3498 00cd 55       		.byte	0x55
 3499 00ce 6C000000 		.4byte	.LVL27
 3500 00d2 84000000 		.4byte	.LFE1
 3501 00d6 0300     		.2byte	0x3
 3502 00d8 73       		.byte	0x73
 3503 00d9 7F       		.sleb128 -1
 3504 00da 9F       		.byte	0x9f
 3505 00db 00000000 		.4byte	0
 3506 00df 00000000 		.4byte	0
ARM GAS  C:\Users\doita\AppData\Local\Temp\ccsDJsU6.s 			page 90


 3507              	.LLST4:
 3508 00e3 4E000000 		.4byte	.LVL16
 3509 00e7 66000000 		.4byte	.LVL24
 3510 00eb 0100     		.2byte	0x1
 3511 00ed 52       		.byte	0x52
 3512 00ee 00000000 		.4byte	0
 3513 00f2 00000000 		.4byte	0
 3514              	.LLST5:
 3515 00f6 42000000 		.4byte	.LVL14
 3516 00fa 4C000000 		.4byte	.LVL15
 3517 00fe 0600     		.2byte	0x6
 3518 0100 03       		.byte	0x3
 3519 0101 00000000 		.4byte	Input_Capsense_dsFlash
 3520 0105 9F       		.byte	0x9f
 3521 0106 4C000000 		.4byte	.LVL15
 3522 010a 6C000000 		.4byte	.LVL26
 3523 010e 0100     		.2byte	0x1
 3524 0110 54       		.byte	0x54
 3525 0111 00000000 		.4byte	0
 3526 0115 00000000 		.4byte	0
 3527              	.LLST6:
 3528 0119 02000000 		.4byte	.LVL12
 3529 011d 4C000000 		.4byte	.LVL15
 3530 0121 0600     		.2byte	0x6
 3531 0123 03       		.byte	0x3
 3532 0124 00000000 		.4byte	Input_Capsense_ramIdacInit
 3533 0128 9F       		.byte	0x9f
 3534 0129 4C000000 		.4byte	.LVL15
 3535 012d 84000000 		.4byte	.LFE1
 3536 0131 0100     		.2byte	0x1
 3537 0133 51       		.byte	0x51
 3538 0134 00000000 		.4byte	0
 3539 0138 00000000 		.4byte	0
 3540              	.LLST7:
 3541 013c 00000000 		.4byte	.LVL28
 3542 0140 0B000000 		.4byte	.LVL30-1
 3543 0144 0100     		.2byte	0x1
 3544 0146 50       		.byte	0x50
 3545 0147 0B000000 		.4byte	.LVL30-1
 3546 014b 60000000 		.4byte	.LFE3
 3547 014f 0400     		.2byte	0x4
 3548 0151 F3       		.byte	0xf3
 3549 0152 01       		.uleb128 0x1
 3550 0153 50       		.byte	0x50
 3551 0154 9F       		.byte	0x9f
 3552 0155 00000000 		.4byte	0
 3553 0159 00000000 		.4byte	0
 3554              	.LLST8:
 3555 015d 00000000 		.4byte	.LVL28
 3556 0161 08000000 		.4byte	.LVL29
 3557 0165 0100     		.2byte	0x1
 3558 0167 51       		.byte	0x51
 3559 0168 08000000 		.4byte	.LVL29
 3560 016c 54000000 		.4byte	.LVL38
 3561 0170 0100     		.2byte	0x1
 3562 0172 55       		.byte	0x55
 3563 0173 54000000 		.4byte	.LVL38
ARM GAS  C:\Users\doita\AppData\Local\Temp\ccsDJsU6.s 			page 91


 3564 0177 60000000 		.4byte	.LFE3
 3565 017b 0400     		.2byte	0x4
 3566 017d F3       		.byte	0xf3
 3567 017e 01       		.uleb128 0x1
 3568 017f 51       		.byte	0x51
 3569 0180 9F       		.byte	0x9f
 3570 0181 00000000 		.4byte	0
 3571 0185 00000000 		.4byte	0
 3572              	.LLST9:
 3573 0189 0E000000 		.4byte	.LVL31
 3574 018d 4C000000 		.4byte	.LVL35
 3575 0191 0100     		.2byte	0x1
 3576 0193 50       		.byte	0x50
 3577 0194 4C000000 		.4byte	.LVL35
 3578 0198 54000000 		.4byte	.LVL37
 3579 019c 0100     		.2byte	0x1
 3580 019e 54       		.byte	0x54
 3581 019f 54000000 		.4byte	.LVL37
 3582 01a3 60000000 		.4byte	.LFE3
 3583 01a7 0100     		.2byte	0x1
 3584 01a9 50       		.byte	0x50
 3585 01aa 00000000 		.4byte	0
 3586 01ae 00000000 		.4byte	0
 3587              	.LLST10:
 3588 01b2 26000000 		.4byte	.LVL33
 3589 01b6 2A000000 		.4byte	.LVL34
 3590 01ba 0100     		.2byte	0x1
 3591 01bc 52       		.byte	0x52
 3592 01bd 00000000 		.4byte	0
 3593 01c1 00000000 		.4byte	0
 3594              	.LLST11:
 3595 01c5 00000000 		.4byte	.LVL39
 3596 01c9 0B000000 		.4byte	.LVL41-1
 3597 01cd 0100     		.2byte	0x1
 3598 01cf 50       		.byte	0x50
 3599 01d0 0B000000 		.4byte	.LVL41-1
 3600 01d4 58000000 		.4byte	.LFE4
 3601 01d8 0400     		.2byte	0x4
 3602 01da F3       		.byte	0xf3
 3603 01db 01       		.uleb128 0x1
 3604 01dc 50       		.byte	0x50
 3605 01dd 9F       		.byte	0x9f
 3606 01de 00000000 		.4byte	0
 3607 01e2 00000000 		.4byte	0
 3608              	.LLST12:
 3609 01e6 00000000 		.4byte	.LVL39
 3610 01ea 08000000 		.4byte	.LVL40
 3611 01ee 0100     		.2byte	0x1
 3612 01f0 51       		.byte	0x51
 3613 01f1 08000000 		.4byte	.LVL40
 3614 01f5 30000000 		.4byte	.LVL44
 3615 01f9 0100     		.2byte	0x1
 3616 01fb 55       		.byte	0x55
 3617 01fc 30000000 		.4byte	.LVL44
 3618 0200 34000000 		.4byte	.LVL45
 3619 0204 0400     		.2byte	0x4
 3620 0206 F3       		.byte	0xf3
ARM GAS  C:\Users\doita\AppData\Local\Temp\ccsDJsU6.s 			page 92


 3621 0207 01       		.uleb128 0x1
 3622 0208 51       		.byte	0x51
 3623 0209 9F       		.byte	0x9f
 3624 020a 34000000 		.4byte	.LVL45
 3625 020e 3A000000 		.4byte	.LVL46
 3626 0212 0100     		.2byte	0x1
 3627 0214 55       		.byte	0x55
 3628 0215 3A000000 		.4byte	.LVL46
 3629 0219 3E000000 		.4byte	.LVL47
 3630 021d 0400     		.2byte	0x4
 3631 021f F3       		.byte	0xf3
 3632 0220 01       		.uleb128 0x1
 3633 0221 51       		.byte	0x51
 3634 0222 9F       		.byte	0x9f
 3635 0223 3E000000 		.4byte	.LVL47
 3636 0227 4C000000 		.4byte	.LVL48
 3637 022b 0100     		.2byte	0x1
 3638 022d 55       		.byte	0x55
 3639 022e 4C000000 		.4byte	.LVL48
 3640 0232 58000000 		.4byte	.LFE4
 3641 0236 0400     		.2byte	0x4
 3642 0238 F3       		.byte	0xf3
 3643 0239 01       		.uleb128 0x1
 3644 023a 51       		.byte	0x51
 3645 023b 9F       		.byte	0x9f
 3646 023c 00000000 		.4byte	0
 3647 0240 00000000 		.4byte	0
 3648              	.LLST13:
 3649 0244 0E000000 		.4byte	.LVL42
 3650 0248 1A000000 		.4byte	.LVL43
 3651 024c 0100     		.2byte	0x1
 3652 024e 50       		.byte	0x50
 3653 024f 1A000000 		.4byte	.LVL43
 3654 0253 50000000 		.4byte	.LVL49
 3655 0257 0100     		.2byte	0x1
 3656 0259 54       		.byte	0x54
 3657 025a 50000000 		.4byte	.LVL49
 3658 025e 58000000 		.4byte	.LFE4
 3659 0262 0100     		.2byte	0x1
 3660 0264 50       		.byte	0x50
 3661 0265 00000000 		.4byte	0
 3662 0269 00000000 		.4byte	0
 3663              	.LLST14:
 3664 026d 00000000 		.4byte	.LVL50
 3665 0271 06000000 		.4byte	.LVL51
 3666 0275 0200     		.2byte	0x2
 3667 0277 30       		.byte	0x30
 3668 0278 9F       		.byte	0x9f
 3669 0279 06000000 		.4byte	.LVL51
 3670 027d 20000000 		.4byte	.LFE5
 3671 0281 0100     		.2byte	0x1
 3672 0283 50       		.byte	0x50
 3673 0284 00000000 		.4byte	0
 3674 0288 00000000 		.4byte	0
 3675              	.LLST15:
 3676 028c 00000000 		.4byte	.LVL50
 3677 0290 06000000 		.4byte	.LVL51
ARM GAS  C:\Users\doita\AppData\Local\Temp\ccsDJsU6.s 			page 93


 3678 0294 0200     		.2byte	0x2
 3679 0296 31       		.byte	0x31
 3680 0297 9F       		.byte	0x9f
 3681 0298 06000000 		.4byte	.LVL51
 3682 029c 14000000 		.4byte	.LVL53
 3683 02a0 0100     		.2byte	0x1
 3684 02a2 52       		.byte	0x52
 3685 02a3 14000000 		.4byte	.LVL53
 3686 02a7 16000000 		.4byte	.LVL54
 3687 02ab 0100     		.2byte	0x1
 3688 02ad 53       		.byte	0x53
 3689 02ae 16000000 		.4byte	.LVL54
 3690 02b2 20000000 		.4byte	.LFE5
 3691 02b6 0100     		.2byte	0x1
 3692 02b8 52       		.byte	0x52
 3693 02b9 00000000 		.4byte	0
 3694 02bd 00000000 		.4byte	0
 3695              	.LLST16:
 3696 02c1 00000000 		.4byte	.LVL55
 3697 02c5 0E000000 		.4byte	.LVL56
 3698 02c9 0100     		.2byte	0x1
 3699 02cb 50       		.byte	0x50
 3700 02cc 0E000000 		.4byte	.LVL56
 3701 02d0 1C000000 		.4byte	.LVL58
 3702 02d4 0400     		.2byte	0x4
 3703 02d6 F3       		.byte	0xf3
 3704 02d7 01       		.uleb128 0x1
 3705 02d8 50       		.byte	0x50
 3706 02d9 9F       		.byte	0x9f
 3707 02da 1C000000 		.4byte	.LVL58
 3708 02de 1E000000 		.4byte	.LVL59
 3709 02e2 0100     		.2byte	0x1
 3710 02e4 50       		.byte	0x50
 3711 02e5 1E000000 		.4byte	.LVL59
 3712 02e9 24000000 		.4byte	.LFE6
 3713 02ed 0400     		.2byte	0x4
 3714 02ef F3       		.byte	0xf3
 3715 02f0 01       		.uleb128 0x1
 3716 02f1 50       		.byte	0x50
 3717 02f2 9F       		.byte	0x9f
 3718 02f3 00000000 		.4byte	0
 3719 02f7 00000000 		.4byte	0
 3720              	.LLST17:
 3721 02fb 00000000 		.4byte	.LVL55
 3722 02ff 1A000000 		.4byte	.LVL57
 3723 0303 0200     		.2byte	0x2
 3724 0305 30       		.byte	0x30
 3725 0306 9F       		.byte	0x9f
 3726 0307 1A000000 		.4byte	.LVL57
 3727 030b 1C000000 		.4byte	.LVL58
 3728 030f 0100     		.2byte	0x1
 3729 0311 50       		.byte	0x50
 3730 0312 1C000000 		.4byte	.LVL58
 3731 0316 1E000000 		.4byte	.LVL59
 3732 031a 0200     		.2byte	0x2
 3733 031c 30       		.byte	0x30
 3734 031d 9F       		.byte	0x9f
ARM GAS  C:\Users\doita\AppData\Local\Temp\ccsDJsU6.s 			page 94


 3735 031e 1E000000 		.4byte	.LVL59
 3736 0322 24000000 		.4byte	.LFE6
 3737 0326 0100     		.2byte	0x1
 3738 0328 50       		.byte	0x50
 3739 0329 00000000 		.4byte	0
 3740 032d 00000000 		.4byte	0
 3741              	.LLST18:
 3742 0331 00000000 		.4byte	.LVL60
 3743 0335 14000000 		.4byte	.LVL61
 3744 0339 0100     		.2byte	0x1
 3745 033b 50       		.byte	0x50
 3746 033c 14000000 		.4byte	.LVL61
 3747 0340 1E000000 		.4byte	.LVL63
 3748 0344 0400     		.2byte	0x4
 3749 0346 F3       		.byte	0xf3
 3750 0347 01       		.uleb128 0x1
 3751 0348 50       		.byte	0x50
 3752 0349 9F       		.byte	0x9f
 3753 034a 1E000000 		.4byte	.LVL63
 3754 034e 20000000 		.4byte	.LVL64
 3755 0352 0100     		.2byte	0x1
 3756 0354 50       		.byte	0x50
 3757 0355 20000000 		.4byte	.LVL64
 3758 0359 22000000 		.4byte	.LVL65
 3759 035d 0400     		.2byte	0x4
 3760 035f F3       		.byte	0xf3
 3761 0360 01       		.uleb128 0x1
 3762 0361 50       		.byte	0x50
 3763 0362 9F       		.byte	0x9f
 3764 0363 22000000 		.4byte	.LVL65
 3765 0367 24000000 		.4byte	.LVL66
 3766 036b 0100     		.2byte	0x1
 3767 036d 50       		.byte	0x50
 3768 036e 24000000 		.4byte	.LVL66
 3769 0372 30000000 		.4byte	.LFE7
 3770 0376 0400     		.2byte	0x4
 3771 0378 F3       		.byte	0xf3
 3772 0379 01       		.uleb128 0x1
 3773 037a 50       		.byte	0x50
 3774 037b 9F       		.byte	0x9f
 3775 037c 00000000 		.4byte	0
 3776 0380 00000000 		.4byte	0
 3777              	.LLST19:
 3778 0384 00000000 		.4byte	.LVL60
 3779 0388 1C000000 		.4byte	.LVL62
 3780 038c 0200     		.2byte	0x2
 3781 038e 30       		.byte	0x30
 3782 038f 9F       		.byte	0x9f
 3783 0390 1C000000 		.4byte	.LVL62
 3784 0394 1E000000 		.4byte	.LVL63
 3785 0398 0100     		.2byte	0x1
 3786 039a 50       		.byte	0x50
 3787 039b 1E000000 		.4byte	.LVL63
 3788 039f 24000000 		.4byte	.LVL66
 3789 03a3 0200     		.2byte	0x2
 3790 03a5 30       		.byte	0x30
 3791 03a6 9F       		.byte	0x9f
ARM GAS  C:\Users\doita\AppData\Local\Temp\ccsDJsU6.s 			page 95


 3792 03a7 24000000 		.4byte	.LVL66
 3793 03ab 30000000 		.4byte	.LFE7
 3794 03af 0100     		.2byte	0x1
 3795 03b1 50       		.byte	0x50
 3796 03b2 00000000 		.4byte	0
 3797 03b6 00000000 		.4byte	0
 3798              		.section	.debug_aranges,"",%progbits
 3799 0000 4C000000 		.4byte	0x4c
 3800 0004 0200     		.2byte	0x2
 3801 0006 00000000 		.4byte	.Ldebug_info0
 3802 000a 04       		.byte	0x4
 3803 000b 00       		.byte	0
 3804 000c 0000     		.2byte	0
 3805 000e 0000     		.2byte	0
 3806 0010 00000000 		.4byte	.LFB2
 3807 0014 82000000 		.4byte	.LFE2-.LFB2
 3808 0018 00000000 		.4byte	.LFB1
 3809 001c 84000000 		.4byte	.LFE1-.LFB1
 3810 0020 00000000 		.4byte	.LFB3
 3811 0024 60000000 		.4byte	.LFE3-.LFB3
 3812 0028 00000000 		.4byte	.LFB4
 3813 002c 58000000 		.4byte	.LFE4-.LFB4
 3814 0030 00000000 		.4byte	.LFB5
 3815 0034 20000000 		.4byte	.LFE5-.LFB5
 3816 0038 00000000 		.4byte	.LFB6
 3817 003c 24000000 		.4byte	.LFE6-.LFB6
 3818 0040 00000000 		.4byte	.LFB7
 3819 0044 30000000 		.4byte	.LFE7-.LFB7
 3820 0048 00000000 		.4byte	0
 3821 004c 00000000 		.4byte	0
 3822              		.section	.debug_ranges,"",%progbits
 3823              	.Ldebug_ranges0:
 3824 0000 00000000 		.4byte	.LFB2
 3825 0004 82000000 		.4byte	.LFE2
 3826 0008 00000000 		.4byte	.LFB1
 3827 000c 84000000 		.4byte	.LFE1
 3828 0010 00000000 		.4byte	.LFB3
 3829 0014 60000000 		.4byte	.LFE3
 3830 0018 00000000 		.4byte	.LFB4
 3831 001c 58000000 		.4byte	.LFE4
 3832 0020 00000000 		.4byte	.LFB5
 3833 0024 20000000 		.4byte	.LFE5
 3834 0028 00000000 		.4byte	.LFB6
 3835 002c 24000000 		.4byte	.LFE6
 3836 0030 00000000 		.4byte	.LFB7
 3837 0034 30000000 		.4byte	.LFE7
 3838 0038 00000000 		.4byte	0
 3839 003c 00000000 		.4byte	0
 3840              		.section	.debug_line,"",%progbits
 3841              	.Ldebug_line0:
 3842 0000 F1010000 		.section	.debug_str,"MS",%progbits,1
 3842      0200C200 
 3842      00000201 
 3842      FB0E0D00 
 3842      01010101 
 3843              	.LASF111:
 3844 0000 496E7075 		.ascii	"Input_Capsense_FLASH_WD_STRUCT\000"
ARM GAS  C:\Users\doita\AppData\Local\Temp\ccsDJsU6.s 			page 96


 3844      745F4361 
 3844      7073656E 
 3844      73655F46 
 3844      4C415348 
 3845              	.LASF20:
 3846 001f 496E7075 		.ascii	"Input_Capsense_LOW_BSLN_RST_TYPE\000"
 3846      745F4361 
 3846      7073656E 
 3846      73655F4C 
 3846      4F575F42 
 3847              	.LASF90:
 3848 0040 496E7075 		.ascii	"Input_Capsense_RAM_STRUCT\000"
 3848      745F4361 
 3848      7073656E 
 3848      73655F52 
 3848      414D5F53 
 3849              	.LASF124:
 3850 005a 77646774 		.ascii	"wdgtId\000"
 3850      496400
 3851              	.LASF50:
 3852 0061 73773130 		.ascii	"sw100\000"
 3852      3000
 3853              	.LASF51:
 3854 0067 73773130 		.ascii	"sw101\000"
 3854      3100
 3855              	.LASF52:
 3856 006d 73773130 		.ascii	"sw102\000"
 3856      3200
 3857              	.LASF53:
 3858 0073 73773130 		.ascii	"sw103\000"
 3858      3300
 3859              	.LASF54:
 3860 0079 73773130 		.ascii	"sw104\000"
 3860      3400
 3861              	.LASF55:
 3862 007f 73773130 		.ascii	"sw105\000"
 3862      3500
 3863              	.LASF56:
 3864 0085 73773130 		.ascii	"sw106\000"
 3864      3600
 3865              	.LASF57:
 3866 008b 73773130 		.ascii	"sw107\000"
 3866      3700
 3867              	.LASF58:
 3868 0091 73773130 		.ascii	"sw108\000"
 3868      3800
 3869              	.LASF59:
 3870 0097 73773130 		.ascii	"sw109\000"
 3870      3900
 3871              	.LASF168:
 3872 009d 496E7075 		.ascii	"Input_Capsense_ioList\000"
 3872      745F4361 
 3872      7073656E 
 3872      73655F69 
 3872      6F4C6973 
 3873              	.LASF8:
 3874 00b3 756E7369 		.ascii	"unsigned int\000"
ARM GAS  C:\Users\doita\AppData\Local\Temp\ccsDJsU6.s 			page 97


 3874      676E6564 
 3874      20696E74 
 3874      00
 3875              	.LASF75:
 3876 00c0 7363616E 		.ascii	"scanCounter\000"
 3876      436F756E 
 3876      74657200 
 3877              	.LASF69:
 3878 00cc 496E7075 		.ascii	"Input_Capsense_RAM_SNS_STRUCT\000"
 3878      745F4361 
 3878      7073656E 
 3878      73655F52 
 3878      414D5F53 
 3879              	.LASF73:
 3880 00ea 6877436C 		.ascii	"hwClock\000"
 3880      6F636B00 
 3881              	.LASF88:
 3882 00f2 7363616E 		.ascii	"scanCsdISC\000"
 3882      43736449 
 3882      534300
 3883              	.LASF31:
 3884 00fd 496E7075 		.ascii	"Input_Capsense_WD_RADIAL_SLIDER_E\000"
 3884      745F4361 
 3884      7073656E 
 3884      73655F57 
 3884      445F5241 
 3885              	.LASF178:
 3886 011f 43794861 		.ascii	"CyHalt\000"
 3886      6C7400
 3887              	.LASF49:
 3888 0126 496E7075 		.ascii	"Input_Capsense_RAM_WD_BUTTON_STRUCT\000"
 3888      745F4361 
 3888      7073656E 
 3888      73655F52 
 3888      414D5F57 
 3889              	.LASF60:
 3890 014a 73773131 		.ascii	"sw110\000"
 3890      3000
 3891              	.LASF61:
 3892 0150 73773131 		.ascii	"sw111\000"
 3892      3100
 3893              	.LASF62:
 3894 0156 73773131 		.ascii	"sw112\000"
 3894      3200
 3895              	.LASF140:
 3896 015c 496E7075 		.ascii	"Input_Capsense_debouncesw100\000"
 3896      745F4361 
 3896      7073656E 
 3896      73655F64 
 3896      65626F75 
 3897              	.LASF141:
 3898 0179 496E7075 		.ascii	"Input_Capsense_debouncesw101\000"
 3898      745F4361 
 3898      7073656E 
 3898      73655F64 
 3898      65626F75 
 3899              	.LASF142:
ARM GAS  C:\Users\doita\AppData\Local\Temp\ccsDJsU6.s 			page 98


 3900 0196 496E7075 		.ascii	"Input_Capsense_debouncesw102\000"
 3900      745F4361 
 3900      7073656E 
 3900      73655F64 
 3900      65626F75 
 3901              	.LASF143:
 3902 01b3 496E7075 		.ascii	"Input_Capsense_debouncesw103\000"
 3902      745F4361 
 3902      7073656E 
 3902      73655F64 
 3902      65626F75 
 3903              	.LASF144:
 3904 01d0 496E7075 		.ascii	"Input_Capsense_debouncesw104\000"
 3904      745F4361 
 3904      7073656E 
 3904      73655F64 
 3904      65626F75 
 3905              	.LASF176:
 3906 01ed 44735061 		.ascii	"DsParseParamId\000"
 3906      72736550 
 3906      6172616D 
 3906      496400
 3907              	.LASF146:
 3908 01fc 496E7075 		.ascii	"Input_Capsense_debouncesw106\000"
 3908      745F4361 
 3908      7073656E 
 3908      73655F64 
 3908      65626F75 
 3909              	.LASF147:
 3910 0219 496E7075 		.ascii	"Input_Capsense_debouncesw107\000"
 3910      745F4361 
 3910      7073656E 
 3910      73655F64 
 3910      65626F75 
 3911              	.LASF148:
 3912 0236 496E7075 		.ascii	"Input_Capsense_debouncesw108\000"
 3912      745F4361 
 3912      7073656E 
 3912      73655F64 
 3912      65626F75 
 3913              	.LASF149:
 3914 0253 496E7075 		.ascii	"Input_Capsense_debouncesw109\000"
 3914      745F4361 
 3914      7073656E 
 3914      73655F64 
 3914      65626F75 
 3915              	.LASF139:
 3916 0270 73656E73 		.ascii	"sensorId\000"
 3916      6F724964 
 3916      00
 3917              	.LASF150:
 3918 0279 496E7075 		.ascii	"Input_Capsense_debouncesw110\000"
 3918      745F4361 
 3918      7073656E 
 3918      73655F64 
 3918      65626F75 
 3919              	.LASF151:
ARM GAS  C:\Users\doita\AppData\Local\Temp\ccsDJsU6.s 			page 99


 3920 0296 496E7075 		.ascii	"Input_Capsense_debouncesw111\000"
 3920      745F4361 
 3920      7073656E 
 3920      73655F64 
 3920      65626F75 
 3921              	.LASF152:
 3922 02b3 496E7075 		.ascii	"Input_Capsense_debouncesw112\000"
 3922      745F4361 
 3922      7073656E 
 3922      73655F64 
 3922      65626F75 
 3923              	.LASF44:
 3924 02d0 69646163 		.ascii	"idacGainIndex\000"
 3924      4761696E 
 3924      496E6465 
 3924      7800
 3925              	.LASF12:
 3926 02de 666C6F61 		.ascii	"float\000"
 3926      7400
 3927              	.LASF99:
 3928 02e4 73686966 		.ascii	"shift\000"
 3928      7400
 3929              	.LASF173:
 3930 02ea 474E5520 		.ascii	"GNU C11 5.4.1 20160609 (release) [ARM/embedded-5-br"
 3930      43313120 
 3930      352E342E 
 3930      31203230 
 3930      31363036 
 3931 031d 616E6368 		.ascii	"anch revision 237715] -mcpu=cortex-m0plus -mthumb -"
 3931      20726576 
 3931      6973696F 
 3931      6E203233 
 3931      37373135 
 3932 0350 67202D4F 		.ascii	"g -Og -ffunction-sections -ffat-lto-objects\000"
 3932      67202D66 
 3932      66756E63 
 3932      74696F6E 
 3932      2D736563 
 3933              	.LASF83:
 3934 037c 736E734C 		.ascii	"snsList\000"
 3934      69737400 
 3935              	.LASF122:
 3936 0384 72657375 		.ascii	"result\000"
 3936      6C7400
 3937              	.LASF7:
 3938 038b 6C6F6E67 		.ascii	"long long unsigned int\000"
 3938      206C6F6E 
 3938      6720756E 
 3938      7369676E 
 3938      65642069 
 3939              	.LASF35:
 3940 03a2 496E7075 		.ascii	"Input_Capsense_WD_ENCODERDIAL_E\000"
 3940      745F4361 
 3940      7073656E 
 3940      73655F57 
 3940      445F454E 
 3941              	.LASF153:
ARM GAS  C:\Users\doita\AppData\Local\Temp\ccsDJsU6.s 			page 100


 3942 03c2 496E7075 		.ascii	"Input_Capsense_noiseEnvlpsw100\000"
 3942      745F4361 
 3942      7073656E 
 3942      73655F6E 
 3942      6F697365 
 3943              	.LASF154:
 3944 03e1 496E7075 		.ascii	"Input_Capsense_noiseEnvlpsw101\000"
 3944      745F4361 
 3944      7073656E 
 3944      73655F6E 
 3944      6F697365 
 3945              	.LASF155:
 3946 0400 496E7075 		.ascii	"Input_Capsense_noiseEnvlpsw102\000"
 3946      745F4361 
 3946      7073656E 
 3946      73655F6E 
 3946      6F697365 
 3947              	.LASF156:
 3948 041f 496E7075 		.ascii	"Input_Capsense_noiseEnvlpsw103\000"
 3948      745F4361 
 3948      7073656E 
 3948      73655F6E 
 3948      6F697365 
 3949              	.LASF85:
 3950 043e 736E7254 		.ascii	"snrTestSensorId\000"
 3950      65737453 
 3950      656E736F 
 3950      72496400 
 3951              	.LASF158:
 3952 044e 496E7075 		.ascii	"Input_Capsense_noiseEnvlpsw105\000"
 3952      745F4361 
 3952      7073656E 
 3952      73655F6E 
 3952      6F697365 
 3953              	.LASF159:
 3954 046d 496E7075 		.ascii	"Input_Capsense_noiseEnvlpsw106\000"
 3954      745F4361 
 3954      7073656E 
 3954      73655F6E 
 3954      6F697365 
 3955              	.LASF160:
 3956 048c 496E7075 		.ascii	"Input_Capsense_noiseEnvlpsw107\000"
 3956      745F4361 
 3956      7073656E 
 3956      73655F6E 
 3956      6F697365 
 3957              	.LASF161:
 3958 04ab 496E7075 		.ascii	"Input_Capsense_noiseEnvlpsw108\000"
 3958      745F4361 
 3958      7073656E 
 3958      73655F6E 
 3958      6F697365 
 3959              	.LASF110:
 3960 04ca 70747232 		.ascii	"ptr2NoiseEnvlp\000"
 3960      4E6F6973 
 3960      65456E76 
 3960      6C7000
ARM GAS  C:\Users\doita\AppData\Local\Temp\ccsDJsU6.s 			page 101


 3961              	.LASF108:
 3962 04d9 77646774 		.ascii	"wdgtType\000"
 3962      54797065 
 3962      00
 3963              	.LASF128:
 3964 04e2 76616C75 		.ascii	"value\000"
 3964      6500
 3965              	.LASF81:
 3966 04e8 6D6F6443 		.ascii	"modCsdClk\000"
 3966      7364436C 
 3966      6B00
 3967              	.LASF30:
 3968 04f2 496E7075 		.ascii	"Input_Capsense_WD_LINEAR_SLIDER_E\000"
 3968      745F4361 
 3968      7073656E 
 3968      73655F57 
 3968      445F4C49 
 3969              	.LASF163:
 3970 0514 496E7075 		.ascii	"Input_Capsense_noiseEnvlpsw110\000"
 3970      745F4361 
 3970      7073656E 
 3970      73655F6E 
 3970      6F697365 
 3971              	.LASF93:
 3972 0533 64725074 		.ascii	"drPtr\000"
 3972      7200
 3973              	.LASF165:
 3974 0539 496E7075 		.ascii	"Input_Capsense_noiseEnvlpsw112\000"
 3974      745F4361 
 3974      7073656E 
 3974      73655F6E 
 3974      6F697365 
 3975              	.LASF114:
 3976 0558 6F666673 		.ascii	"offset\000"
 3976      657400
 3977              	.LASF121:
 3978 055f 70446174 		.ascii	"pData\000"
 3978      6100
 3979              	.LASF169:
 3980 0565 496E7075 		.ascii	"Input_Capsense_ramWidgetInit\000"
 3980      745F4361 
 3980      7073656E 
 3980      73655F72 
 3980      616D5769 
 3981              	.LASF48:
 3982 0582 73696750 		.ascii	"sigPFC\000"
 3982      464300
 3983              	.LASF40:
 3984 0589 68797374 		.ascii	"hysteresis\000"
 3984      65726573 
 3984      697300
 3985              	.LASF167:
 3986 0594 496E7075 		.ascii	"Input_Capsense_dsFlash\000"
 3986      745F4361 
 3986      7073656E 
 3986      73655F64 
 3986      73466C61 
ARM GAS  C:\Users\doita\AppData\Local\Temp\ccsDJsU6.s 			page 102


 3987              	.LASF42:
 3988 05ab 6C6F7742 		.ascii	"lowBslnRst\000"
 3988      736C6E52 
 3988      737400
 3989              	.LASF107:
 3990 05b6 746F7461 		.ascii	"totalNumSns\000"
 3990      6C4E756D 
 3990      536E7300 
 3991              	.LASF28:
 3992 05c2 534D4152 		.ascii	"SMARTSENSE_CSD_NOISE_ENVELOPE_STRUCT\000"
 3992      5453454E 
 3992      53455F43 
 3992      53445F4E 
 3992      4F495345 
 3993              	.LASF138:
 3994 05e7 496E7075 		.ascii	"Input_Capsense_IsSensorActive\000"
 3994      745F4361 
 3994      7073656E 
 3994      73655F49 
 3994      7353656E 
 3995              	.LASF38:
 3996 0605 6E6F6973 		.ascii	"noiseTh\000"
 3996      65546800 
 3997              	.LASF14:
 3998 060d 63686172 		.ascii	"char\000"
 3998      00
 3999              	.LASF113:
 4000 0612 496E7075 		.ascii	"Input_Capsense_FLASH_STRUCT\000"
 4000      745F4361 
 4000      7073656E 
 4000      73655F46 
 4000      4C415348 
 4001              	.LASF129:
 4002 062e 70747255 		.ascii	"ptrUint8\000"
 4002      696E7438 
 4002      00
 4003              	.LASF97:
 4004 0637 6873696F 		.ascii	"hsiomShift\000"
 4004      6D536869 
 4004      667400
 4005              	.LASF10:
 4006 0642 75696E74 		.ascii	"uint16\000"
 4006      313600
 4007              	.LASF134:
 4008 0649 496E7075 		.ascii	"Input_Capsense_SetParam\000"
 4008      745F4361 
 4008      7073656E 
 4008      73655F53 
 4008      65745061 
 4009              	.LASF36:
 4010 0661 7265736F 		.ascii	"resolution\000"
 4010      6C757469 
 4010      6F6E00
 4011              	.LASF76:
 4012 066c 73746174 		.ascii	"status\000"
 4012      757300
 4013              	.LASF130:
ARM GAS  C:\Users\doita\AppData\Local\Temp\ccsDJsU6.s 			page 103


 4014 0673 70747255 		.ascii	"ptrUint16\000"
 4014      696E7431 
 4014      3600
 4015              	.LASF68:
 4016 067d 69646163 		.ascii	"idacComp\000"
 4016      436F6D70 
 4016      00
 4017              	.LASF92:
 4018 0686 70635074 		.ascii	"pcPtr\000"
 4018      7200
 4019              	.LASF6:
 4020 068c 6C6F6E67 		.ascii	"long long int\000"
 4020      206C6F6E 
 4020      6720696E 
 4020      7400
 4021              	.LASF109:
 4022 069a 6E756D43 		.ascii	"numCols\000"
 4022      6F6C7300 
 4023              	.LASF41:
 4024 06a2 6F6E4465 		.ascii	"onDebounce\000"
 4024      626F756E 
 4024      636500
 4025              	.LASF170:
 4026 06ad 496E7075 		.ascii	"Input_Capsense_ramIdacInit\000"
 4026      745F4361 
 4026      7073656E 
 4026      73655F72 
 4026      616D4964 
 4027              	.LASF136:
 4028 06c8 7764576F 		.ascii	"wdWord\000"
 4028      726400
 4029              	.LASF82:
 4030 06cf 77646774 		.ascii	"wdgtList\000"
 4030      4C697374 
 4030      00
 4031              	.LASF87:
 4032 06d8 736E7254 		.ascii	"snrTestRawCount\000"
 4032      65737452 
 4032      6177436F 
 4032      756E7400 
 4033              	.LASF171:
 4034 06e8 6D656D73 		.ascii	"memset\000"
 4034      657400
 4035              	.LASF39:
 4036 06ef 6E4E6F69 		.ascii	"nNoiseTh\000"
 4036      73655468 
 4036      00
 4037              	.LASF80:
 4038 06f8 63736430 		.ascii	"csd0Config\000"
 4038      436F6E66 
 4038      696700
 4039              	.LASF91:
 4040 0703 6873696F 		.ascii	"hsiomPtr\000"
 4040      6D507472 
 4040      00
 4041              	.LASF11:
 4042 070c 75696E74 		.ascii	"uint32\000"
ARM GAS  C:\Users\doita\AppData\Local\Temp\ccsDJsU6.s 			page 104


 4042      333200
 4043              	.LASF104:
 4044 0713 70747232 		.ascii	"ptr2FltrHistory\000"
 4044      466C7472 
 4044      48697374 
 4044      6F727900 
 4045              	.LASF96:
 4046 0723 6D61736B 		.ascii	"mask\000"
 4046      00
 4047              	.LASF177:
 4048 0728 496E7075 		.ascii	"Input_Capsense_DsInitialize\000"
 4048      745F4361 
 4048      7073656E 
 4048      73655F44 
 4048      73496E69 
 4049              	.LASF131:
 4050 0744 70747255 		.ascii	"ptrUint32\000"
 4050      696E7433 
 4050      3200
 4051              	.LASF127:
 4052 074e 70747249 		.ascii	"ptrIdacInit\000"
 4052      64616349 
 4052      6E697400 
 4053              	.LASF145:
 4054 075a 496E7075 		.ascii	"Input_Capsense_debouncesw105\000"
 4054      745F4361 
 4054      7073656E 
 4054      73655F64 
 4054      65626F75 
 4055              	.LASF175:
 4056 0777 433A5C55 		.ascii	"C:\\Users\\doita\\OneDrive\\Documents\\PSoC Creator"
 4056      73657273 
 4056      5C646F69 
 4056      74615C4F 
 4056      6E654472 
 4057 07a5 5C474541 		.ascii	"\\GEA-Hacking\\laundry-captouch-demo.cydsn\000"
 4057      2D486163 
 4057      6B696E67 
 4057      5C6C6175 
 4057      6E647279 
 4058              	.LASF17:
 4059 07ce 6C6F6E67 		.ascii	"long double\000"
 4059      20646F75 
 4059      626C6500 
 4060              	.LASF19:
 4061 07da 496E7075 		.ascii	"Input_Capsense_THRESHOLD_TYPE\000"
 4061      745F4361 
 4061      7073656E 
 4061      73655F54 
 4061      48524553 
 4062              	.LASF16:
 4063 07f8 72656733 		.ascii	"reg32\000"
 4063      3200
 4064              	.LASF86:
 4065 07fe 736E7254 		.ascii	"snrTestScanCounter\000"
 4065      65737453 
 4065      63616E43 
ARM GAS  C:\Users\doita\AppData\Local\Temp\ccsDJsU6.s 			page 105


 4065      6F756E74 
 4065      657200
 4066              	.LASF71:
 4067 0811 636F6E66 		.ascii	"configId\000"
 4067      69674964 
 4067      00
 4068              	.LASF103:
 4069 081a 70747232 		.ascii	"ptr2SnsRam\000"
 4069      536E7352 
 4069      616D00
 4070              	.LASF119:
 4071 0825 50415241 		.ascii	"PARAM_ID_STRUCT\000"
 4071      4D5F4944 
 4071      5F535452 
 4071      55435400 
 4072              	.LASF79:
 4073 0835 736E7353 		.ascii	"snsStatus\000"
 4073      74617475 
 4073      7300
 4074              	.LASF46:
 4075 083f 736E7343 		.ascii	"snsClkSource\000"
 4075      6C6B536F 
 4075      75726365 
 4075      00
 4076              	.LASF33:
 4077 084c 496E7075 		.ascii	"Input_Capsense_WD_TOUCHPAD_E\000"
 4077      745F4361 
 4077      7073656E 
 4077      73655F57 
 4077      445F544F 
 4078              	.LASF2:
 4079 0869 73686F72 		.ascii	"short int\000"
 4079      7420696E 
 4079      7400
 4080              	.LASF4:
 4081 0873 6C6F6E67 		.ascii	"long int\000"
 4081      20696E74 
 4081      00
 4082              	.LASF84:
 4083 087c 736E7254 		.ascii	"snrTestWidgetId\000"
 4083      65737457 
 4083      69646765 
 4083      74496400 
 4084              	.LASF77:
 4085 088c 77646774 		.ascii	"wdgtEnable\000"
 4085      456E6162 
 4085      6C6500
 4086              	.LASF66:
 4087 0897 64696666 		.ascii	"diff\000"
 4087      00
 4088              	.LASF74:
 4089 089c 74756E65 		.ascii	"tunerCmd\000"
 4089      72436D64 
 4089      00
 4090              	.LASF94:
 4091 08a5 70735074 		.ascii	"psPtr\000"
 4091      7200
ARM GAS  C:\Users\doita\AppData\Local\Temp\ccsDJsU6.s 			page 106


 4092              	.LASF123:
 4093 08ab 736E7349 		.ascii	"snsId\000"
 4093      6400
 4094              	.LASF125:
 4095 08b1 70747253 		.ascii	"ptrSnsTmp\000"
 4095      6E73546D 
 4095      7000
 4096              	.LASF135:
 4097 08bb 496E7075 		.ascii	"Input_Capsense_IsAnyWidgetActive\000"
 4097      745F4361 
 4097      7073656E 
 4097      73655F49 
 4097      73416E79 
 4098              	.LASF174:
 4099 08dc 47656E65 		.ascii	"Generated_Source\\PSoC4\\Input_Capsense_Structure.c"
 4099      72617465 
 4099      645F536F 
 4099      75726365 
 4099      5C50536F 
 4100 090d 00       		.ascii	"\000"
 4101              	.LASF47:
 4102 090e 66696E67 		.ascii	"fingerCap\000"
 4102      65724361 
 4102      7000
 4103              	.LASF78:
 4104 0918 77646774 		.ascii	"wdgtStatus\000"
 4104      53746174 
 4104      757300
 4105              	.LASF34:
 4106 0923 496E7075 		.ascii	"Input_Capsense_WD_PROXIMITY_E\000"
 4106      745F4361 
 4106      7073656E 
 4106      73655F57 
 4106      445F5052 
 4107              	.LASF18:
 4108 0941 73697A65 		.ascii	"sizetype\000"
 4108      74797065 
 4108      00
 4109              	.LASF98:
 4110 094a 64725368 		.ascii	"drShift\000"
 4110      69667400 
 4111              	.LASF5:
 4112 0952 6C6F6E67 		.ascii	"long unsigned int\000"
 4112      20756E73 
 4112      69676E65 
 4112      6420696E 
 4112      7400
 4113              	.LASF43:
 4114 0964 69646163 		.ascii	"idacMod\000"
 4114      4D6F6400 
 4115              	.LASF133:
 4116 096c 496E7075 		.ascii	"Input_Capsense_GetParam\000"
 4116      745F4361 
 4116      7073656E 
 4116      73655F47 
 4116      65745061 
 4117              	.LASF105:
ARM GAS  C:\Users\doita\AppData\Local\Temp\ccsDJsU6.s 			page 107


 4118 0984 70747232 		.ascii	"ptr2DebounceArr\000"
 4118      4465626F 
 4118      756E6365 
 4118      41727200 
 4119              	.LASF37:
 4120 0994 66696E67 		.ascii	"fingerTh\000"
 4120      65725468 
 4120      00
 4121              	.LASF65:
 4122 099d 62736C6E 		.ascii	"bslnExt\000"
 4122      45787400 
 4123              	.LASF100:
 4124 09a5 496E7075 		.ascii	"Input_Capsense_FLASH_IO_STRUCT\000"
 4124      745F4361 
 4124      7073656E 
 4124      73655F46 
 4124      4C415348 
 4125              	.LASF137:
 4126 09c4 496E7075 		.ascii	"Input_Capsense_IsWidgetActive\000"
 4126      745F4361 
 4126      7073656E 
 4126      73655F49 
 4126      73576964 
 4127              	.LASF15:
 4128 09e2 63797374 		.ascii	"cystatus\000"
 4128      61747573 
 4128      00
 4129              	.LASF118:
 4130 09eb 74797065 		.ascii	"type\000"
 4130      00
 4131              	.LASF1:
 4132 09f0 756E7369 		.ascii	"unsigned char\000"
 4132      676E6564 
 4132      20636861 
 4132      7200
 4133              	.LASF117:
 4134 09fe 666C6173 		.ascii	"flash\000"
 4134      6800
 4135              	.LASF157:
 4136 0a04 496E7075 		.ascii	"Input_Capsense_noiseEnvlpsw104\000"
 4136      745F4361 
 4136      7073656E 
 4136      73655F6E 
 4136      6F697365 
 4137              	.LASF126:
 4138 0a23 70747246 		.ascii	"ptrFlashWdgt\000"
 4138      6C617368 
 4138      57646774 
 4138      00
 4139              	.LASF106:
 4140 0a30 73746174 		.ascii	"staticConfig\000"
 4140      6963436F 
 4140      6E666967 
 4140      00
 4141              	.LASF120:
 4142 0a3d 70617261 		.ascii	"paramId\000"
 4142      6D496400 
ARM GAS  C:\Users\doita\AppData\Local\Temp\ccsDJsU6.s 			page 108


 4143              	.LASF162:
 4144 0a45 496E7075 		.ascii	"Input_Capsense_noiseEnvlpsw109\000"
 4144      745F4361 
 4144      7073656E 
 4144      73655F6E 
 4144      6F697365 
 4145              	.LASF89:
 4146 0a64 7363616E 		.ascii	"scanCurrentISC\000"
 4146      43757272 
 4146      656E7449 
 4146      534300
 4147              	.LASF102:
 4148 0a73 70747232 		.ascii	"ptr2WdgtRam\000"
 4148      57646774 
 4148      52616D00 
 4149              	.LASF132:
 4150 0a7f 70747244 		.ascii	"ptrData\000"
 4150      61746100 
 4151              	.LASF95:
 4152 0a87 6873696F 		.ascii	"hsiomMask\000"
 4152      6D4D6173 
 4152      6B00
 4153              	.LASF29:
 4154 0a91 496E7075 		.ascii	"Input_Capsense_WD_BUTTON_E\000"
 4154      745F4361 
 4154      7073656E 
 4154      73655F57 
 4154      445F4255 
 4155              	.LASF45:
 4156 0aac 736E7343 		.ascii	"snsClk\000"
 4156      6C6B00
 4157              	.LASF63:
 4158 0ab3 496E7075 		.ascii	"Input_Capsense_RAM_WD_LIST_STRUCT\000"
 4158      745F4361 
 4158      7073656E 
 4158      73655F52 
 4158      414D5F57 
 4159              	.LASF0:
 4160 0ad5 7369676E 		.ascii	"signed char\000"
 4160      65642063 
 4160      68617200 
 4161              	.LASF64:
 4162 0ae1 62736C6E 		.ascii	"bsln\000"
 4162      00
 4163              	.LASF3:
 4164 0ae6 73686F72 		.ascii	"short unsigned int\000"
 4164      7420756E 
 4164      7369676E 
 4164      65642069 
 4164      6E7400
 4165              	.LASF70:
 4166 0af9 496E7075 		.ascii	"Input_Capsense_RAM_SNS_LIST_STRUCT\000"
 4166      745F4361 
 4166      7073656E 
 4166      73655F52 
 4166      414D5F53 
 4167              	.LASF116:
ARM GAS  C:\Users\doita\AppData\Local\Temp\ccsDJsU6.s 			page 109


 4168 0b1c 61666665 		.ascii	"affectsCrc\000"
 4168      63747343 
 4168      726300
 4169              	.LASF172:
 4170 0b27 6D656D63 		.ascii	"memcpy\000"
 4170      707900
 4171              	.LASF101:
 4172 0b2e 70747232 		.ascii	"ptr2SnsFlash\000"
 4172      536E7346 
 4172      6C617368 
 4172      00
 4173              	.LASF9:
 4174 0b3b 75696E74 		.ascii	"uint8\000"
 4174      3800
 4175              	.LASF13:
 4176 0b41 646F7562 		.ascii	"double\000"
 4176      6C6500
 4177              	.LASF67:
 4178 0b48 6E656742 		.ascii	"negBslnRstCnt\000"
 4178      736C6E52 
 4178      7374436E 
 4178      7400
 4179              	.LASF21:
 4180 0b56 70617261 		.ascii	"param0\000"
 4180      6D3000
 4181              	.LASF22:
 4182 0b5d 70617261 		.ascii	"param1\000"
 4182      6D3100
 4183              	.LASF23:
 4184 0b64 70617261 		.ascii	"param2\000"
 4184      6D3200
 4185              	.LASF24:
 4186 0b6b 70617261 		.ascii	"param3\000"
 4186      6D3300
 4187              	.LASF25:
 4188 0b72 70617261 		.ascii	"param4\000"
 4188      6D3400
 4189              	.LASF26:
 4190 0b79 70617261 		.ascii	"param5\000"
 4190      6D3500
 4191              	.LASF27:
 4192 0b80 70617261 		.ascii	"param6\000"
 4192      6D3600
 4193              	.LASF164:
 4194 0b87 496E7075 		.ascii	"Input_Capsense_noiseEnvlpsw111\000"
 4194      745F4361 
 4194      7073656E 
 4194      73655F6E 
 4194      6F697365 
 4195              	.LASF72:
 4196 0ba6 64657669 		.ascii	"deviceId\000"
 4196      63654964 
 4196      00
 4197              	.LASF166:
 4198 0baf 496E7075 		.ascii	"Input_Capsense_dsRam\000"
 4198      745F4361 
 4198      7073656E 
ARM GAS  C:\Users\doita\AppData\Local\Temp\ccsDJsU6.s 			page 110


 4198      73655F64 
 4198      7352616D 
 4199              	.LASF115:
 4200 0bc4 77696467 		.ascii	"widgetId\000"
 4200      65744964 
 4200      00
 4201              	.LASF32:
 4202 0bcd 496E7075 		.ascii	"Input_Capsense_WD_MATRIX_BUTTON_E\000"
 4202      745F4361 
 4202      7073656E 
 4202      73655F57 
 4202      445F4D41 
 4203              	.LASF112:
 4204 0bef 77646774 		.ascii	"wdgtArray\000"
 4204      41727261 
 4204      7900
 4205              		.ident	"GCC: (GNU Tools for ARM Embedded Processors) 5.4.1 20160609 (release) [ARM/embedded-5-bran
