ARM GAS  C:\Users\doita\AppData\Local\Temp\cc8uFb2k.s 			page 1


   1              		.syntax unified
   2              		.cpu cortex-m0plus
   3              		.fpu softvfp
   4              		.eabi_attribute 20, 1
   5              		.eabi_attribute 21, 1
   6              		.eabi_attribute 23, 3
   7              		.eabi_attribute 24, 1
   8              		.eabi_attribute 25, 1
   9              		.eabi_attribute 26, 1
  10              		.eabi_attribute 30, 1
  11              		.eabi_attribute 34, 0
  12              		.eabi_attribute 18, 4
  13              		.thumb
  14              		.syntax unified
  15              		.file	"main.c"
  16              		.text
  17              	.Ltext0:
  18              		.cfi_sections	.debug_frame
  19              		.section	.text.HeartbeatLed_Blink,"ax",%progbits
  20              		.align	2
  21              		.global	HeartbeatLed_Blink
  22              		.code	16
  23              		.thumb_func
  24              		.type	HeartbeatLed_Blink, %function
  25              	HeartbeatLed_Blink:
  26              	.LFB33:
  27              		.file 1 "main.c"
   1:main.c        **** /* ========================================
   2:main.c        ****  *
   3:main.c        ****  * Demo code for hacking the LED display on 2019 GE washers and dryers.
   4:main.c        ****  * The display contains two shift registers, and interfaces to the MCU of the UI
   5:main.c        ****  * through a 6-pin synchronous serial interface. It functions base on the
   6:main.c        ****  * principle of a standard shift register and is easy to work with.
   7:main.c        ****  * 
   8:main.c        ****  * Part number for reference: WH22X29549
   9:main.c        ****  * 
  10:main.c        ****  * This code just scrolls "Hello world" across all three digits.
  11:main.c        ****  *
  12:main.c        ****  * This version is ported to run on the captouch UI board itself and can be compiled with PSoC crea
  13:main.c        ****  *
  14:main.c        ****  * ========================================
  15:main.c        **** */
  16:main.c        **** 
  17:main.c        **** #include "Display.h"
  18:main.c        **** #include <project.h>
  19:main.c        **** 
  20:main.c        **** bool curState = 0;
  21:main.c        **** 
  22:main.c        **** void HeartbeatLed_Blink(int period) {
  28              		.loc 1 22 0
  29              		.cfi_startproc
  30              		@ args = 0, pretend = 0, frame = 0
  31              		@ frame_needed = 0, uses_anonymous_args = 0
  32              	.LVL0:
  33 0000 10B5     		push	{r4, lr}
  34              		.cfi_def_cfa_offset 8
  35              		.cfi_offset 4, -8
ARM GAS  C:\Users\doita\AppData\Local\Temp\cc8uFb2k.s 			page 2


  36              		.cfi_offset 14, -4
  37 0002 0400     		movs	r4, r0
  23:main.c        ****     
  24:main.c        ****     HeartbeatLed_Write(1);
  38              		.loc 1 24 0
  39 0004 0120     		movs	r0, #1
  40              	.LVL1:
  41 0006 FFF7FEFF 		bl	HeartbeatLed_Write
  42              	.LVL2:
  25:main.c        ****     CyDelay(period);
  43              		.loc 1 25 0
  44 000a 2000     		movs	r0, r4
  45 000c FFF7FEFF 		bl	CyDelay
  46              	.LVL3:
  26:main.c        ****     HeartbeatLed_Write(0);
  47              		.loc 1 26 0
  48 0010 0020     		movs	r0, #0
  49 0012 FFF7FEFF 		bl	HeartbeatLed_Write
  50              	.LVL4:
  27:main.c        ****     CyDelay(period);
  51              		.loc 1 27 0
  52 0016 2000     		movs	r0, r4
  53 0018 FFF7FEFF 		bl	CyDelay
  54              	.LVL5:
  28:main.c        ****     
  29:main.c        **** }
  55              		.loc 1 29 0
  56              		@ sp needed
  57              	.LVL6:
  58 001c 10BD     		pop	{r4, pc}
  59              		.cfi_endproc
  60              	.LFE33:
  61              		.size	HeartbeatLed_Blink, .-HeartbeatLed_Blink
  62 001e C046     		.section	.text.HeartbeatLed_Toggle,"ax",%progbits
  63              		.align	2
  64              		.global	HeartbeatLed_Toggle
  65              		.code	16
  66              		.thumb_func
  67              		.type	HeartbeatLed_Toggle, %function
  68              	HeartbeatLed_Toggle:
  69              	.LFB34:
  30:main.c        **** 
  31:main.c        **** void HeartbeatLed_Toggle(void) {
  70              		.loc 1 31 0
  71              		.cfi_startproc
  72              		@ args = 0, pretend = 0, frame = 0
  73              		@ frame_needed = 0, uses_anonymous_args = 0
  74 0000 10B5     		push	{r4, lr}
  75              		.cfi_def_cfa_offset 8
  76              		.cfi_offset 4, -8
  77              		.cfi_offset 14, -4
  32:main.c        ****     
  33:main.c        ****     curState = !curState;
  78              		.loc 1 33 0
  79 0002 044A     		ldr	r2, .L3
  80 0004 1078     		ldrb	r0, [r2]
  81 0006 0123     		movs	r3, #1
ARM GAS  C:\Users\doita\AppData\Local\Temp\cc8uFb2k.s 			page 3


  82 0008 5840     		eors	r0, r3
  83 000a C0B2     		uxtb	r0, r0
  84 000c 1070     		strb	r0, [r2]
  34:main.c        ****     HeartbeatLed_Write(curState);
  85              		.loc 1 34 0
  86 000e FFF7FEFF 		bl	HeartbeatLed_Write
  87              	.LVL7:
  35:main.c        ****     
  36:main.c        **** }
  88              		.loc 1 36 0
  89              		@ sp needed
  90 0012 10BD     		pop	{r4, pc}
  91              	.L4:
  92              		.align	2
  93              	.L3:
  94 0014 00000000 		.word	.LANCHOR0
  95              		.cfi_endproc
  96              	.LFE34:
  97              		.size	HeartbeatLed_Toggle, .-HeartbeatLed_Toggle
  98              		.section	.text.helloWorld,"ax",%progbits
  99              		.align	2
 100              		.global	helloWorld
 101              		.code	16
 102              		.thumb_func
 103              		.type	helloWorld, %function
 104              	helloWorld:
 105              	.LFB35:
  37:main.c        **** 
  38:main.c        **** void helloWorld(int period)
  39:main.c        **** {
 106              		.loc 1 39 0
 107              		.cfi_startproc
 108              		@ args = 0, pretend = 0, frame = 0
 109              		@ frame_needed = 0, uses_anonymous_args = 0
 110              	.LVL8:
 111 0000 10B5     		push	{r4, lr}
 112              		.cfi_def_cfa_offset 8
 113              		.cfi_offset 4, -8
 114              		.cfi_offset 14, -4
 115 0002 0400     		movs	r4, r0
 116              	.LVL9:
  40:main.c        **** 
  41:main.c        ****   uint8_t H = 17;
  42:main.c        ****   uint8_t e = 40;
  43:main.c        ****   uint8_t l = 47;
  44:main.c        ****   uint8_t o = 50;
  45:main.c        ****   uint8_t w = 58;
  46:main.c        ****   uint8_t r = 53;
  47:main.c        ****   uint8_t d = 39;
  48:main.c        **** 
  49:main.c        ****   uint8_t space = 74;
  50:main.c        ****   
  51:main.c        ****   // This is a really crude way of scrolling text, but this will do until I
  52:main.c        ****   // can write a function to process and scroll strings automatically.
  53:main.c        ****   writeToAllDigits(space, space, H, period);
 117              		.loc 1 53 0
 118 0004 0300     		movs	r3, r0
ARM GAS  C:\Users\doita\AppData\Local\Temp\cc8uFb2k.s 			page 4


 119 0006 1122     		movs	r2, #17
 120 0008 4A21     		movs	r1, #74
 121 000a 4A20     		movs	r0, #74
 122              	.LVL10:
 123 000c FFF7FEFF 		bl	writeToAllDigits
 124              	.LVL11:
  54:main.c        ****   writeToAllDigits(space, H, e, period);
 125              		.loc 1 54 0
 126 0010 2300     		movs	r3, r4
 127 0012 2822     		movs	r2, #40
 128 0014 1121     		movs	r1, #17
 129 0016 4A20     		movs	r0, #74
 130 0018 FFF7FEFF 		bl	writeToAllDigits
 131              	.LVL12:
  55:main.c        ****   writeToAllDigits(H, e, l, period);
 132              		.loc 1 55 0
 133 001c 2300     		movs	r3, r4
 134 001e 2F22     		movs	r2, #47
 135 0020 2821     		movs	r1, #40
 136 0022 1120     		movs	r0, #17
 137 0024 FFF7FEFF 		bl	writeToAllDigits
 138              	.LVL13:
  56:main.c        ****   writeToAllDigits(e, l, l, period);
 139              		.loc 1 56 0
 140 0028 2300     		movs	r3, r4
 141 002a 2F22     		movs	r2, #47
 142 002c 2F21     		movs	r1, #47
 143 002e 2820     		movs	r0, #40
 144 0030 FFF7FEFF 		bl	writeToAllDigits
 145              	.LVL14:
  57:main.c        ****   writeToAllDigits(l, l, o, period);
 146              		.loc 1 57 0
 147 0034 2300     		movs	r3, r4
 148 0036 3222     		movs	r2, #50
 149 0038 2F21     		movs	r1, #47
 150 003a 2F20     		movs	r0, #47
 151 003c FFF7FEFF 		bl	writeToAllDigits
 152              	.LVL15:
  58:main.c        ****   writeToAllDigits(l, o, space, period);
 153              		.loc 1 58 0
 154 0040 2300     		movs	r3, r4
 155 0042 4A22     		movs	r2, #74
 156 0044 3221     		movs	r1, #50
 157 0046 2F20     		movs	r0, #47
 158 0048 FFF7FEFF 		bl	writeToAllDigits
 159              	.LVL16:
  59:main.c        ****   writeToAllDigits(o, space, w, period);
 160              		.loc 1 59 0
 161 004c 2300     		movs	r3, r4
 162 004e 3A22     		movs	r2, #58
 163 0050 4A21     		movs	r1, #74
 164 0052 3220     		movs	r0, #50
 165 0054 FFF7FEFF 		bl	writeToAllDigits
 166              	.LVL17:
  60:main.c        ****   writeToAllDigits(space, w, o, period);
 167              		.loc 1 60 0
 168 0058 2300     		movs	r3, r4
ARM GAS  C:\Users\doita\AppData\Local\Temp\cc8uFb2k.s 			page 5


 169 005a 3222     		movs	r2, #50
 170 005c 3A21     		movs	r1, #58
 171 005e 4A20     		movs	r0, #74
 172 0060 FFF7FEFF 		bl	writeToAllDigits
 173              	.LVL18:
  61:main.c        ****   writeToAllDigits(w, o, r, period);
 174              		.loc 1 61 0
 175 0064 2300     		movs	r3, r4
 176 0066 3522     		movs	r2, #53
 177 0068 3221     		movs	r1, #50
 178 006a 3A20     		movs	r0, #58
 179 006c FFF7FEFF 		bl	writeToAllDigits
 180              	.LVL19:
  62:main.c        ****   writeToAllDigits(o, r, l, period);
 181              		.loc 1 62 0
 182 0070 2300     		movs	r3, r4
 183 0072 2F22     		movs	r2, #47
 184 0074 3521     		movs	r1, #53
 185 0076 3220     		movs	r0, #50
 186 0078 FFF7FEFF 		bl	writeToAllDigits
 187              	.LVL20:
  63:main.c        ****   writeToAllDigits(r, l, d, period);
 188              		.loc 1 63 0
 189 007c 2300     		movs	r3, r4
 190 007e 2722     		movs	r2, #39
 191 0080 2F21     		movs	r1, #47
 192 0082 3520     		movs	r0, #53
 193 0084 FFF7FEFF 		bl	writeToAllDigits
 194              	.LVL21:
  64:main.c        ****   writeToAllDigits(l, d, space, period);
 195              		.loc 1 64 0
 196 0088 2300     		movs	r3, r4
 197 008a 4A22     		movs	r2, #74
 198 008c 2721     		movs	r1, #39
 199 008e 2F20     		movs	r0, #47
 200 0090 FFF7FEFF 		bl	writeToAllDigits
 201              	.LVL22:
  65:main.c        ****   writeToAllDigits(d, space, space, period);
 202              		.loc 1 65 0
 203 0094 2300     		movs	r3, r4
 204 0096 4A22     		movs	r2, #74
 205 0098 4A21     		movs	r1, #74
 206 009a 2720     		movs	r0, #39
 207 009c FFF7FEFF 		bl	writeToAllDigits
 208              	.LVL23:
  66:main.c        ****   writeToAllDigits(space, space, space, period);
 209              		.loc 1 66 0
 210 00a0 2300     		movs	r3, r4
 211 00a2 4A22     		movs	r2, #74
 212 00a4 4A21     		movs	r1, #74
 213 00a6 4A20     		movs	r0, #74
 214 00a8 FFF7FEFF 		bl	writeToAllDigits
 215              	.LVL24:
  67:main.c        **** 
  68:main.c        ****   HeartbeatLed_Toggle();
 216              		.loc 1 68 0
 217 00ac FFF7FEFF 		bl	HeartbeatLed_Toggle
ARM GAS  C:\Users\doita\AppData\Local\Temp\cc8uFb2k.s 			page 6


 218              	.LVL25:
  69:main.c        ****   
  70:main.c        ****   CyDelay(500);
 219              		.loc 1 70 0
 220 00b0 FA20     		movs	r0, #250
 221 00b2 4000     		lsls	r0, r0, #1
 222 00b4 FFF7FEFF 		bl	CyDelay
 223              	.LVL26:
  71:main.c        ****   
  72:main.c        **** }
 224              		.loc 1 72 0
 225              		@ sp needed
 226              	.LVL27:
 227 00b8 10BD     		pop	{r4, pc}
 228              		.cfi_endproc
 229              	.LFE35:
 230              		.size	helloWorld, .-helloWorld
 231 00ba C046     		.section	.text.main,"ax",%progbits
 232              		.align	2
 233              		.global	main
 234              		.code	16
 235              		.thumb_func
 236              		.type	main, %function
 237              	main:
 238              	.LFB36:
  73:main.c        **** 
  74:main.c        **** int main(void)
  75:main.c        **** {
 239              		.loc 1 75 0
 240              		.cfi_startproc
 241              		@ Volatile: function does not return.
 242              		@ args = 0, pretend = 0, frame = 0
 243              		@ frame_needed = 0, uses_anonymous_args = 0
 244 0000 10B5     		push	{r4, lr}
 245              		.cfi_def_cfa_offset 8
 246              		.cfi_offset 4, -8
 247              		.cfi_offset 14, -4
  76:main.c        ****     CyGlobalIntEnable; /* Enable global interrupts. */
 248              		.loc 1 76 0
 249              		.syntax divided
 250              	@ 76 "main.c" 1
 251 0002 62B6     		CPSIE   i
 252              	@ 0 "" 2
  77:main.c        ****     
  78:main.c        ****     strobe(HIGH);
 253              		.loc 1 78 0
 254              		.thumb
 255              		.syntax unified
 256 0004 0120     		movs	r0, #1
 257 0006 FFF7FEFF 		bl	strobe
 258              	.LVL28:
  79:main.c        ****     SegDispClock_Write(HIGH);
 259              		.loc 1 79 0
 260 000a 0120     		movs	r0, #1
 261 000c FFF7FEFF 		bl	SegDispClock_Write
 262              	.LVL29:
  80:main.c        ****     SegDispData_Write(HIGH);
ARM GAS  C:\Users\doita\AppData\Local\Temp\cc8uFb2k.s 			page 7


 263              		.loc 1 80 0
 264 0010 0120     		movs	r0, #1
 265 0012 FFF7FEFF 		bl	SegDispData_Write
 266              	.LVL30:
  81:main.c        ****     
  82:main.c        ****     ctrlDisplay(0, 0);
 267              		.loc 1 82 0
 268 0016 0021     		movs	r1, #0
 269 0018 0020     		movs	r0, #0
 270 001a FFF7FEFF 		bl	ctrlDisplay
 271              	.LVL31:
  83:main.c        ****     ctrlDisplay(1, 0);
 272              		.loc 1 83 0
 273 001e 0021     		movs	r1, #0
 274 0020 0120     		movs	r0, #1
 275 0022 FFF7FEFF 		bl	ctrlDisplay
 276              	.LVL32:
  84:main.c        ****     ctrlDisplay(2, (4 | 0x08));
 277              		.loc 1 84 0
 278 0026 0C21     		movs	r1, #12
 279 0028 0220     		movs	r0, #2
 280 002a FFF7FEFF 		bl	ctrlDisplay
 281              	.LVL33:
 282              	.L7:
  85:main.c        **** 
  86:main.c        ****     for(;;)
  87:main.c        ****     {
  88:main.c        ****         // Scroll "Hello world" across all three digits with a 200ms delay between frames.
  89:main.c        ****         helloWorld(200);
 283              		.loc 1 89 0 discriminator 1
 284 002e C820     		movs	r0, #200
 285 0030 FFF7FEFF 		bl	helloWorld
 286              	.LVL34:
 287 0034 FBE7     		b	.L7
 288              		.cfi_endproc
 289              	.LFE36:
 290              		.size	main, .-main
 291              		.global	curState
 292 0036 C046     		.bss
 293              		.set	.LANCHOR0,. + 0
 294              		.type	curState, %object
 295              		.size	curState, 1
 296              	curState:
 297 0000 00       		.space	1
 298              		.text
 299              	.Letext0:
 300              		.file 2 "c:\\program files (x86)\\cypress\\psoc creator\\4.4\\psoc creator\\import\\gnu\\arm\\5.4.
 301              		.file 3 "c:\\program files (x86)\\cypress\\psoc creator\\4.4\\psoc creator\\import\\gnu\\arm\\5.4.
 302              		.file 4 "Generated_Source\\PSoC4/cytypes.h"
 303              		.file 5 "Generated_Source\\PSoC4/HeartbeatLed.h"
 304              		.file 6 "Generated_Source\\PSoC4/CyLib.h"
 305              		.file 7 "Display.h"
 306              		.file 8 "Generated_Source\\PSoC4/SegDispClock.h"
 307              		.file 9 "Generated_Source\\PSoC4/SegDispData.h"