ARM GAS  C:\Users\doita\AppData\Local\Temp\cc3YV8hR.s 			page 1


   1              		.syntax unified
   2              		.cpu cortex-m0plus
   3              		.fpu softvfp
   4              		.eabi_attribute 20, 1
   5              		.eabi_attribute 21, 1
   6              		.eabi_attribute 23, 3
   7              		.eabi_attribute 24, 1
   8              		.eabi_attribute 25, 1
   9              		.eabi_attribute 26, 1
  10              		.eabi_attribute 30, 1
  11              		.eabi_attribute 34, 0
  12              		.eabi_attribute 18, 4
  13              		.thumb
  14              		.syntax unified
  15              		.file	"Uart_Mc_UART.c"
  16              		.text
  17              	.Ltext0:
  18              		.cfi_sections	.debug_frame
  19              		.section	.text.Uart_Mc_UartInit,"ax",%progbits
  20              		.align	2
  21              		.global	Uart_Mc_UartInit
  22              		.code	16
  23              		.thumb_func
  24              		.type	Uart_Mc_UartInit, %function
  25              	Uart_Mc_UartInit:
  26              	.LFB1:
  27              		.file 1 "Generated_Source\\PSoC4\\Uart_Mc_UART.c"
   1:Generated_Source\PSoC4/Uart_Mc_UART.c **** /***************************************************************************//**
   2:Generated_Source\PSoC4/Uart_Mc_UART.c **** * \file Uart_Mc_UART.c
   3:Generated_Source\PSoC4/Uart_Mc_UART.c **** * \version 4.0
   4:Generated_Source\PSoC4/Uart_Mc_UART.c **** *
   5:Generated_Source\PSoC4/Uart_Mc_UART.c **** * \brief
   6:Generated_Source\PSoC4/Uart_Mc_UART.c **** *  This file provides the source code to the API for the SCB Component in
   7:Generated_Source\PSoC4/Uart_Mc_UART.c **** *  UART mode.
   8:Generated_Source\PSoC4/Uart_Mc_UART.c **** *
   9:Generated_Source\PSoC4/Uart_Mc_UART.c **** * Note:
  10:Generated_Source\PSoC4/Uart_Mc_UART.c **** *
  11:Generated_Source\PSoC4/Uart_Mc_UART.c **** *******************************************************************************
  12:Generated_Source\PSoC4/Uart_Mc_UART.c **** * \copyright
  13:Generated_Source\PSoC4/Uart_Mc_UART.c **** * Copyright 2013-2017, Cypress Semiconductor Corporation.  All rights reserved.
  14:Generated_Source\PSoC4/Uart_Mc_UART.c **** * You may use this file only in accordance with the license, terms, conditions,
  15:Generated_Source\PSoC4/Uart_Mc_UART.c **** * disclaimers, and limitations in the end user license agreement accompanying
  16:Generated_Source\PSoC4/Uart_Mc_UART.c **** * the software package with which this file was provided.
  17:Generated_Source\PSoC4/Uart_Mc_UART.c **** *******************************************************************************/
  18:Generated_Source\PSoC4/Uart_Mc_UART.c **** 
  19:Generated_Source\PSoC4/Uart_Mc_UART.c **** #include "Uart_Mc_PVT.h"
  20:Generated_Source\PSoC4/Uart_Mc_UART.c **** #include "Uart_Mc_SPI_UART_PVT.h"
  21:Generated_Source\PSoC4/Uart_Mc_UART.c **** #include "cyapicallbacks.h"
  22:Generated_Source\PSoC4/Uart_Mc_UART.c **** 
  23:Generated_Source\PSoC4/Uart_Mc_UART.c **** #if (Uart_Mc_UART_WAKE_ENABLE_CONST && Uart_Mc_UART_RX_WAKEUP_IRQ)
  24:Generated_Source\PSoC4/Uart_Mc_UART.c ****     /**
  25:Generated_Source\PSoC4/Uart_Mc_UART.c ****     * \addtogroup group_globals
  26:Generated_Source\PSoC4/Uart_Mc_UART.c ****     * \{
  27:Generated_Source\PSoC4/Uart_Mc_UART.c ****     */
  28:Generated_Source\PSoC4/Uart_Mc_UART.c ****     /** This global variable determines whether to enable Skip Start
  29:Generated_Source\PSoC4/Uart_Mc_UART.c ****     * functionality when Uart_Mc_Sleep() function is called:
  30:Generated_Source\PSoC4/Uart_Mc_UART.c ****     * 0 – disable, other values – enable. Default value is 1.
ARM GAS  C:\Users\doita\AppData\Local\Temp\cc3YV8hR.s 			page 2


  31:Generated_Source\PSoC4/Uart_Mc_UART.c ****     * It is only available when Enable wakeup from Deep Sleep Mode is enabled.
  32:Generated_Source\PSoC4/Uart_Mc_UART.c ****     */
  33:Generated_Source\PSoC4/Uart_Mc_UART.c ****     uint8 Uart_Mc_skipStart = 1u;
  34:Generated_Source\PSoC4/Uart_Mc_UART.c ****     /** \} globals */
  35:Generated_Source\PSoC4/Uart_Mc_UART.c **** #endif /* (Uart_Mc_UART_WAKE_ENABLE_CONST && Uart_Mc_UART_RX_WAKEUP_IRQ) */
  36:Generated_Source\PSoC4/Uart_Mc_UART.c **** 
  37:Generated_Source\PSoC4/Uart_Mc_UART.c **** #if(Uart_Mc_SCB_MODE_UNCONFIG_CONST_CFG)
  38:Generated_Source\PSoC4/Uart_Mc_UART.c **** 
  39:Generated_Source\PSoC4/Uart_Mc_UART.c ****     /***************************************
  40:Generated_Source\PSoC4/Uart_Mc_UART.c ****     *  Configuration Structure Initialization
  41:Generated_Source\PSoC4/Uart_Mc_UART.c ****     ***************************************/
  42:Generated_Source\PSoC4/Uart_Mc_UART.c **** 
  43:Generated_Source\PSoC4/Uart_Mc_UART.c ****     const Uart_Mc_UART_INIT_STRUCT Uart_Mc_configUart =
  44:Generated_Source\PSoC4/Uart_Mc_UART.c ****     {
  45:Generated_Source\PSoC4/Uart_Mc_UART.c ****         Uart_Mc_UART_SUB_MODE,
  46:Generated_Source\PSoC4/Uart_Mc_UART.c ****         Uart_Mc_UART_DIRECTION,
  47:Generated_Source\PSoC4/Uart_Mc_UART.c ****         Uart_Mc_UART_DATA_BITS_NUM,
  48:Generated_Source\PSoC4/Uart_Mc_UART.c ****         Uart_Mc_UART_PARITY_TYPE,
  49:Generated_Source\PSoC4/Uart_Mc_UART.c ****         Uart_Mc_UART_STOP_BITS_NUM,
  50:Generated_Source\PSoC4/Uart_Mc_UART.c ****         Uart_Mc_UART_OVS_FACTOR,
  51:Generated_Source\PSoC4/Uart_Mc_UART.c ****         Uart_Mc_UART_IRDA_LOW_POWER,
  52:Generated_Source\PSoC4/Uart_Mc_UART.c ****         Uart_Mc_UART_MEDIAN_FILTER_ENABLE,
  53:Generated_Source\PSoC4/Uart_Mc_UART.c ****         Uart_Mc_UART_RETRY_ON_NACK,
  54:Generated_Source\PSoC4/Uart_Mc_UART.c ****         Uart_Mc_UART_IRDA_POLARITY,
  55:Generated_Source\PSoC4/Uart_Mc_UART.c ****         Uart_Mc_UART_DROP_ON_PARITY_ERR,
  56:Generated_Source\PSoC4/Uart_Mc_UART.c ****         Uart_Mc_UART_DROP_ON_FRAME_ERR,
  57:Generated_Source\PSoC4/Uart_Mc_UART.c ****         Uart_Mc_UART_WAKE_ENABLE,
  58:Generated_Source\PSoC4/Uart_Mc_UART.c ****         0u,
  59:Generated_Source\PSoC4/Uart_Mc_UART.c ****         NULL,
  60:Generated_Source\PSoC4/Uart_Mc_UART.c ****         0u,
  61:Generated_Source\PSoC4/Uart_Mc_UART.c ****         NULL,
  62:Generated_Source\PSoC4/Uart_Mc_UART.c ****         Uart_Mc_UART_MP_MODE_ENABLE,
  63:Generated_Source\PSoC4/Uart_Mc_UART.c ****         Uart_Mc_UART_MP_ACCEPT_ADDRESS,
  64:Generated_Source\PSoC4/Uart_Mc_UART.c ****         Uart_Mc_UART_MP_RX_ADDRESS,
  65:Generated_Source\PSoC4/Uart_Mc_UART.c ****         Uart_Mc_UART_MP_RX_ADDRESS_MASK,
  66:Generated_Source\PSoC4/Uart_Mc_UART.c ****         (uint32) Uart_Mc_SCB_IRQ_INTERNAL,
  67:Generated_Source\PSoC4/Uart_Mc_UART.c ****         Uart_Mc_UART_INTR_RX_MASK,
  68:Generated_Source\PSoC4/Uart_Mc_UART.c ****         Uart_Mc_UART_RX_TRIGGER_LEVEL,
  69:Generated_Source\PSoC4/Uart_Mc_UART.c ****         Uart_Mc_UART_INTR_TX_MASK,
  70:Generated_Source\PSoC4/Uart_Mc_UART.c ****         Uart_Mc_UART_TX_TRIGGER_LEVEL,
  71:Generated_Source\PSoC4/Uart_Mc_UART.c ****         (uint8) Uart_Mc_UART_BYTE_MODE_ENABLE,
  72:Generated_Source\PSoC4/Uart_Mc_UART.c ****         (uint8) Uart_Mc_UART_CTS_ENABLE,
  73:Generated_Source\PSoC4/Uart_Mc_UART.c ****         (uint8) Uart_Mc_UART_CTS_POLARITY,
  74:Generated_Source\PSoC4/Uart_Mc_UART.c ****         (uint8) Uart_Mc_UART_RTS_POLARITY,
  75:Generated_Source\PSoC4/Uart_Mc_UART.c ****         (uint8) Uart_Mc_UART_RTS_FIFO_LEVEL,
  76:Generated_Source\PSoC4/Uart_Mc_UART.c ****         (uint8) Uart_Mc_UART_RX_BREAK_WIDTH
  77:Generated_Source\PSoC4/Uart_Mc_UART.c ****     };
  78:Generated_Source\PSoC4/Uart_Mc_UART.c **** 
  79:Generated_Source\PSoC4/Uart_Mc_UART.c **** 
  80:Generated_Source\PSoC4/Uart_Mc_UART.c ****     /*******************************************************************************
  81:Generated_Source\PSoC4/Uart_Mc_UART.c ****     * Function Name: Uart_Mc_UartInit
  82:Generated_Source\PSoC4/Uart_Mc_UART.c ****     ****************************************************************************//**
  83:Generated_Source\PSoC4/Uart_Mc_UART.c ****     *
  84:Generated_Source\PSoC4/Uart_Mc_UART.c ****     *  Configures the Uart_Mc for UART operation.
  85:Generated_Source\PSoC4/Uart_Mc_UART.c ****     *
  86:Generated_Source\PSoC4/Uart_Mc_UART.c ****     *  This function is intended specifically to be used when the Uart_Mc
  87:Generated_Source\PSoC4/Uart_Mc_UART.c ****     *  configuration is set to “Unconfigured Uart_Mc” in the customizer.
ARM GAS  C:\Users\doita\AppData\Local\Temp\cc3YV8hR.s 			page 3


  88:Generated_Source\PSoC4/Uart_Mc_UART.c ****     *  After initializing the Uart_Mc in UART mode using this function,
  89:Generated_Source\PSoC4/Uart_Mc_UART.c ****     *  the component can be enabled using the Uart_Mc_Start() or
  90:Generated_Source\PSoC4/Uart_Mc_UART.c ****     * Uart_Mc_Enable() function.
  91:Generated_Source\PSoC4/Uart_Mc_UART.c ****     *  This function uses a pointer to a structure that provides the configuration
  92:Generated_Source\PSoC4/Uart_Mc_UART.c ****     *  settings. This structure contains the same information that would otherwise
  93:Generated_Source\PSoC4/Uart_Mc_UART.c ****     *  be provided by the customizer settings.
  94:Generated_Source\PSoC4/Uart_Mc_UART.c ****     *
  95:Generated_Source\PSoC4/Uart_Mc_UART.c ****     *  \param config: pointer to a structure that contains the following list of
  96:Generated_Source\PSoC4/Uart_Mc_UART.c ****     *   fields. These fields match the selections available in the customizer.
  97:Generated_Source\PSoC4/Uart_Mc_UART.c ****     *   Refer to the customizer for further description of the settings.
  98:Generated_Source\PSoC4/Uart_Mc_UART.c ****     *
  99:Generated_Source\PSoC4/Uart_Mc_UART.c ****     *******************************************************************************/
 100:Generated_Source\PSoC4/Uart_Mc_UART.c ****     void Uart_Mc_UartInit(const Uart_Mc_UART_INIT_STRUCT *config)
 101:Generated_Source\PSoC4/Uart_Mc_UART.c ****     {
 102:Generated_Source\PSoC4/Uart_Mc_UART.c ****         uint32 pinsConfig;
 103:Generated_Source\PSoC4/Uart_Mc_UART.c **** 
 104:Generated_Source\PSoC4/Uart_Mc_UART.c ****         if (NULL == config)
 105:Generated_Source\PSoC4/Uart_Mc_UART.c ****         {
 106:Generated_Source\PSoC4/Uart_Mc_UART.c ****             CYASSERT(0u != 0u); /* Halt execution due to bad function parameter */
 107:Generated_Source\PSoC4/Uart_Mc_UART.c ****         }
 108:Generated_Source\PSoC4/Uart_Mc_UART.c ****         else
 109:Generated_Source\PSoC4/Uart_Mc_UART.c ****         {
 110:Generated_Source\PSoC4/Uart_Mc_UART.c ****             /* Get direction to configure UART pins: TX, RX or TX+RX */
 111:Generated_Source\PSoC4/Uart_Mc_UART.c ****             pinsConfig  = config->direction;
 112:Generated_Source\PSoC4/Uart_Mc_UART.c **** 
 113:Generated_Source\PSoC4/Uart_Mc_UART.c ****         #if !(Uart_Mc_CY_SCBIP_V0 || Uart_Mc_CY_SCBIP_V1)
 114:Generated_Source\PSoC4/Uart_Mc_UART.c ****             /* Add RTS and CTS pins to configure */
 115:Generated_Source\PSoC4/Uart_Mc_UART.c ****             pinsConfig |= (0u != config->rtsRxFifoLevel) ? (Uart_Mc_UART_RTS_PIN_ENABLE) : (0u);
 116:Generated_Source\PSoC4/Uart_Mc_UART.c ****             pinsConfig |= (0u != config->enableCts)      ? (Uart_Mc_UART_CTS_PIN_ENABLE) : (0u);
 117:Generated_Source\PSoC4/Uart_Mc_UART.c ****         #endif /* !(Uart_Mc_CY_SCBIP_V0 || Uart_Mc_CY_SCBIP_V1) */
 118:Generated_Source\PSoC4/Uart_Mc_UART.c **** 
 119:Generated_Source\PSoC4/Uart_Mc_UART.c ****             /* Configure pins */
 120:Generated_Source\PSoC4/Uart_Mc_UART.c ****             Uart_Mc_SetPins(Uart_Mc_SCB_MODE_UART, config->mode, pinsConfig);
 121:Generated_Source\PSoC4/Uart_Mc_UART.c **** 
 122:Generated_Source\PSoC4/Uart_Mc_UART.c ****             /* Store internal configuration */
 123:Generated_Source\PSoC4/Uart_Mc_UART.c ****             Uart_Mc_scbMode       = (uint8) Uart_Mc_SCB_MODE_UART;
 124:Generated_Source\PSoC4/Uart_Mc_UART.c ****             Uart_Mc_scbEnableWake = (uint8) config->enableWake;
 125:Generated_Source\PSoC4/Uart_Mc_UART.c ****             Uart_Mc_scbEnableIntr = (uint8) config->enableInterrupt;
 126:Generated_Source\PSoC4/Uart_Mc_UART.c **** 
 127:Generated_Source\PSoC4/Uart_Mc_UART.c ****             /* Set RX direction internal variables */
 128:Generated_Source\PSoC4/Uart_Mc_UART.c ****             Uart_Mc_rxBuffer      =         config->rxBuffer;
 129:Generated_Source\PSoC4/Uart_Mc_UART.c ****             Uart_Mc_rxDataBits    = (uint8) config->dataBits;
 130:Generated_Source\PSoC4/Uart_Mc_UART.c ****             Uart_Mc_rxBufferSize  =         config->rxBufferSize;
 131:Generated_Source\PSoC4/Uart_Mc_UART.c **** 
 132:Generated_Source\PSoC4/Uart_Mc_UART.c ****             /* Set TX direction internal variables */
 133:Generated_Source\PSoC4/Uart_Mc_UART.c ****             Uart_Mc_txBuffer      =         config->txBuffer;
 134:Generated_Source\PSoC4/Uart_Mc_UART.c ****             Uart_Mc_txDataBits    = (uint8) config->dataBits;
 135:Generated_Source\PSoC4/Uart_Mc_UART.c ****             Uart_Mc_txBufferSize  =         config->txBufferSize;
 136:Generated_Source\PSoC4/Uart_Mc_UART.c **** 
 137:Generated_Source\PSoC4/Uart_Mc_UART.c ****             /* Configure UART interface */
 138:Generated_Source\PSoC4/Uart_Mc_UART.c ****             if(Uart_Mc_UART_MODE_IRDA == config->mode)
 139:Generated_Source\PSoC4/Uart_Mc_UART.c ****             {
 140:Generated_Source\PSoC4/Uart_Mc_UART.c ****                 /* OVS settings: IrDA */
 141:Generated_Source\PSoC4/Uart_Mc_UART.c ****                 Uart_Mc_CTRL_REG  = ((0u != config->enableIrdaLowPower) ?
 142:Generated_Source\PSoC4/Uart_Mc_UART.c ****                                                 (Uart_Mc_UART_GET_CTRL_OVS_IRDA_LP(config->oversamp
 143:Generated_Source\PSoC4/Uart_Mc_UART.c ****                                                 (Uart_Mc_CTRL_OVS_IRDA_OVS16));
 144:Generated_Source\PSoC4/Uart_Mc_UART.c ****             }
ARM GAS  C:\Users\doita\AppData\Local\Temp\cc3YV8hR.s 			page 4


 145:Generated_Source\PSoC4/Uart_Mc_UART.c ****             else
 146:Generated_Source\PSoC4/Uart_Mc_UART.c ****             {
 147:Generated_Source\PSoC4/Uart_Mc_UART.c ****                 /* OVS settings: UART and SmartCard */
 148:Generated_Source\PSoC4/Uart_Mc_UART.c ****                 Uart_Mc_CTRL_REG  = Uart_Mc_GET_CTRL_OVS(config->oversample);
 149:Generated_Source\PSoC4/Uart_Mc_UART.c ****             }
 150:Generated_Source\PSoC4/Uart_Mc_UART.c **** 
 151:Generated_Source\PSoC4/Uart_Mc_UART.c ****             Uart_Mc_CTRL_REG     |= Uart_Mc_GET_CTRL_BYTE_MODE  (config->enableByteMode)      |
 152:Generated_Source\PSoC4/Uart_Mc_UART.c ****                                              Uart_Mc_GET_CTRL_ADDR_ACCEPT(config->multiprocAcceptAd
 153:Generated_Source\PSoC4/Uart_Mc_UART.c ****                                              Uart_Mc_CTRL_UART;
 154:Generated_Source\PSoC4/Uart_Mc_UART.c **** 
 155:Generated_Source\PSoC4/Uart_Mc_UART.c ****             /* Configure sub-mode: UART, SmartCard or IrDA */
 156:Generated_Source\PSoC4/Uart_Mc_UART.c ****             Uart_Mc_UART_CTRL_REG = Uart_Mc_GET_UART_CTRL_MODE(config->mode);
 157:Generated_Source\PSoC4/Uart_Mc_UART.c **** 
 158:Generated_Source\PSoC4/Uart_Mc_UART.c ****             /* Configure RX direction */
 159:Generated_Source\PSoC4/Uart_Mc_UART.c ****             Uart_Mc_UART_RX_CTRL_REG = Uart_Mc_GET_UART_RX_CTRL_MODE(config->stopBits)             
 160:Generated_Source\PSoC4/Uart_Mc_UART.c ****                                         Uart_Mc_GET_UART_RX_CTRL_POLARITY(config->enableInvertedRx)
 161:Generated_Source\PSoC4/Uart_Mc_UART.c ****                                         Uart_Mc_GET_UART_RX_CTRL_MP_MODE(config->enableMultiproc)  
 162:Generated_Source\PSoC4/Uart_Mc_UART.c ****                                         Uart_Mc_GET_UART_RX_CTRL_DROP_ON_PARITY_ERR(config->dropOnP
 163:Generated_Source\PSoC4/Uart_Mc_UART.c ****                                         Uart_Mc_GET_UART_RX_CTRL_DROP_ON_FRAME_ERR(config->dropOnFr
 164:Generated_Source\PSoC4/Uart_Mc_UART.c ****                                         Uart_Mc_GET_UART_RX_CTRL_BREAK_WIDTH(config->breakWidth);
 165:Generated_Source\PSoC4/Uart_Mc_UART.c **** 
 166:Generated_Source\PSoC4/Uart_Mc_UART.c ****             if(Uart_Mc_UART_PARITY_NONE != config->parity)
 167:Generated_Source\PSoC4/Uart_Mc_UART.c ****             {
 168:Generated_Source\PSoC4/Uart_Mc_UART.c ****                Uart_Mc_UART_RX_CTRL_REG |= Uart_Mc_GET_UART_RX_CTRL_PARITY(config->parity) |
 169:Generated_Source\PSoC4/Uart_Mc_UART.c ****                                                     Uart_Mc_UART_RX_CTRL_PARITY_ENABLED;
 170:Generated_Source\PSoC4/Uart_Mc_UART.c ****             }
 171:Generated_Source\PSoC4/Uart_Mc_UART.c **** 
 172:Generated_Source\PSoC4/Uart_Mc_UART.c ****             Uart_Mc_RX_CTRL_REG      = Uart_Mc_GET_RX_CTRL_DATA_WIDTH(config->dataBits)       |
 173:Generated_Source\PSoC4/Uart_Mc_UART.c ****                                                 Uart_Mc_GET_RX_CTRL_MEDIAN(config->enableMedianFilt
 174:Generated_Source\PSoC4/Uart_Mc_UART.c ****                                                 Uart_Mc_GET_UART_RX_CTRL_ENABLED(config->direction)
 175:Generated_Source\PSoC4/Uart_Mc_UART.c **** 
 176:Generated_Source\PSoC4/Uart_Mc_UART.c ****             Uart_Mc_RX_FIFO_CTRL_REG = Uart_Mc_GET_RX_FIFO_CTRL_TRIGGER_LEVEL(config->rxTriggerLeve
 177:Generated_Source\PSoC4/Uart_Mc_UART.c **** 
 178:Generated_Source\PSoC4/Uart_Mc_UART.c ****             /* Configure MP address */
 179:Generated_Source\PSoC4/Uart_Mc_UART.c ****             Uart_Mc_RX_MATCH_REG     = Uart_Mc_GET_RX_MATCH_ADDR(config->multiprocAddr) |
 180:Generated_Source\PSoC4/Uart_Mc_UART.c ****                                                 Uart_Mc_GET_RX_MATCH_MASK(config->multiprocAddrMask
 181:Generated_Source\PSoC4/Uart_Mc_UART.c **** 
 182:Generated_Source\PSoC4/Uart_Mc_UART.c ****             /* Configure RX direction */
 183:Generated_Source\PSoC4/Uart_Mc_UART.c ****             Uart_Mc_UART_TX_CTRL_REG = Uart_Mc_GET_UART_TX_CTRL_MODE(config->stopBits) |
 184:Generated_Source\PSoC4/Uart_Mc_UART.c ****                                                 Uart_Mc_GET_UART_TX_CTRL_RETRY_NACK(config->enableR
 185:Generated_Source\PSoC4/Uart_Mc_UART.c **** 
 186:Generated_Source\PSoC4/Uart_Mc_UART.c ****             if(Uart_Mc_UART_PARITY_NONE != config->parity)
 187:Generated_Source\PSoC4/Uart_Mc_UART.c ****             {
 188:Generated_Source\PSoC4/Uart_Mc_UART.c ****                Uart_Mc_UART_TX_CTRL_REG |= Uart_Mc_GET_UART_TX_CTRL_PARITY(config->parity) |
 189:Generated_Source\PSoC4/Uart_Mc_UART.c ****                                                     Uart_Mc_UART_TX_CTRL_PARITY_ENABLED;
 190:Generated_Source\PSoC4/Uart_Mc_UART.c ****             }
 191:Generated_Source\PSoC4/Uart_Mc_UART.c **** 
 192:Generated_Source\PSoC4/Uart_Mc_UART.c ****             Uart_Mc_TX_CTRL_REG      = Uart_Mc_GET_TX_CTRL_DATA_WIDTH(config->dataBits)    |
 193:Generated_Source\PSoC4/Uart_Mc_UART.c ****                                                 Uart_Mc_GET_UART_TX_CTRL_ENABLED(config->direction)
 194:Generated_Source\PSoC4/Uart_Mc_UART.c **** 
 195:Generated_Source\PSoC4/Uart_Mc_UART.c ****             Uart_Mc_TX_FIFO_CTRL_REG = Uart_Mc_GET_TX_FIFO_CTRL_TRIGGER_LEVEL(config->txTriggerLeve
 196:Generated_Source\PSoC4/Uart_Mc_UART.c **** 
 197:Generated_Source\PSoC4/Uart_Mc_UART.c ****         #if !(Uart_Mc_CY_SCBIP_V0 || Uart_Mc_CY_SCBIP_V1)
 198:Generated_Source\PSoC4/Uart_Mc_UART.c ****             Uart_Mc_UART_FLOW_CTRL_REG = Uart_Mc_GET_UART_FLOW_CTRL_CTS_ENABLE(config->enableCts) |
 199:Generated_Source\PSoC4/Uart_Mc_UART.c ****                                             Uart_Mc_GET_UART_FLOW_CTRL_CTS_POLARITY (config->ctsPol
 200:Generated_Source\PSoC4/Uart_Mc_UART.c ****                                             Uart_Mc_GET_UART_FLOW_CTRL_RTS_POLARITY (config->rtsPol
 201:Generated_Source\PSoC4/Uart_Mc_UART.c ****                                             Uart_Mc_GET_UART_FLOW_CTRL_TRIGGER_LEVEL(config->rtsRxF
ARM GAS  C:\Users\doita\AppData\Local\Temp\cc3YV8hR.s 			page 5


 202:Generated_Source\PSoC4/Uart_Mc_UART.c ****         #endif /* !(Uart_Mc_CY_SCBIP_V0 || Uart_Mc_CY_SCBIP_V1) */
 203:Generated_Source\PSoC4/Uart_Mc_UART.c **** 
 204:Generated_Source\PSoC4/Uart_Mc_UART.c ****             /* Configure interrupt with UART handler but do not enable it */
 205:Generated_Source\PSoC4/Uart_Mc_UART.c ****             CyIntDisable    (Uart_Mc_ISR_NUMBER);
 206:Generated_Source\PSoC4/Uart_Mc_UART.c ****             CyIntSetPriority(Uart_Mc_ISR_NUMBER, Uart_Mc_ISR_PRIORITY);
 207:Generated_Source\PSoC4/Uart_Mc_UART.c ****             (void) CyIntSetVector(Uart_Mc_ISR_NUMBER, &Uart_Mc_SPI_UART_ISR);
 208:Generated_Source\PSoC4/Uart_Mc_UART.c **** 
 209:Generated_Source\PSoC4/Uart_Mc_UART.c ****             /* Configure WAKE interrupt */
 210:Generated_Source\PSoC4/Uart_Mc_UART.c ****         #if(Uart_Mc_UART_RX_WAKEUP_IRQ)
 211:Generated_Source\PSoC4/Uart_Mc_UART.c ****             CyIntDisable    (Uart_Mc_RX_WAKE_ISR_NUMBER);
 212:Generated_Source\PSoC4/Uart_Mc_UART.c ****             CyIntSetPriority(Uart_Mc_RX_WAKE_ISR_NUMBER, Uart_Mc_RX_WAKE_ISR_PRIORITY);
 213:Generated_Source\PSoC4/Uart_Mc_UART.c ****             (void) CyIntSetVector(Uart_Mc_RX_WAKE_ISR_NUMBER, &Uart_Mc_UART_WAKEUP_ISR);
 214:Generated_Source\PSoC4/Uart_Mc_UART.c ****         #endif /* (Uart_Mc_UART_RX_WAKEUP_IRQ) */
 215:Generated_Source\PSoC4/Uart_Mc_UART.c **** 
 216:Generated_Source\PSoC4/Uart_Mc_UART.c ****             /* Configure interrupt sources */
 217:Generated_Source\PSoC4/Uart_Mc_UART.c ****             Uart_Mc_INTR_I2C_EC_MASK_REG = Uart_Mc_NO_INTR_SOURCES;
 218:Generated_Source\PSoC4/Uart_Mc_UART.c ****             Uart_Mc_INTR_SPI_EC_MASK_REG = Uart_Mc_NO_INTR_SOURCES;
 219:Generated_Source\PSoC4/Uart_Mc_UART.c ****             Uart_Mc_INTR_SLAVE_MASK_REG  = Uart_Mc_NO_INTR_SOURCES;
 220:Generated_Source\PSoC4/Uart_Mc_UART.c ****             Uart_Mc_INTR_MASTER_MASK_REG = Uart_Mc_NO_INTR_SOURCES;
 221:Generated_Source\PSoC4/Uart_Mc_UART.c ****             Uart_Mc_INTR_RX_MASK_REG     = config->rxInterruptMask;
 222:Generated_Source\PSoC4/Uart_Mc_UART.c ****             Uart_Mc_INTR_TX_MASK_REG     = config->txInterruptMask;
 223:Generated_Source\PSoC4/Uart_Mc_UART.c **** 
 224:Generated_Source\PSoC4/Uart_Mc_UART.c ****             /* Configure TX interrupt sources to restore. */
 225:Generated_Source\PSoC4/Uart_Mc_UART.c ****             Uart_Mc_IntrTxMask = LO16(Uart_Mc_INTR_TX_MASK_REG);
 226:Generated_Source\PSoC4/Uart_Mc_UART.c **** 
 227:Generated_Source\PSoC4/Uart_Mc_UART.c ****             /* Clear RX buffer indexes */
 228:Generated_Source\PSoC4/Uart_Mc_UART.c ****             Uart_Mc_rxBufferHead     = 0u;
 229:Generated_Source\PSoC4/Uart_Mc_UART.c ****             Uart_Mc_rxBufferTail     = 0u;
 230:Generated_Source\PSoC4/Uart_Mc_UART.c ****             Uart_Mc_rxBufferOverflow = 0u;
 231:Generated_Source\PSoC4/Uart_Mc_UART.c **** 
 232:Generated_Source\PSoC4/Uart_Mc_UART.c ****             /* Clear TX buffer indexes */
 233:Generated_Source\PSoC4/Uart_Mc_UART.c ****             Uart_Mc_txBufferHead = 0u;
 234:Generated_Source\PSoC4/Uart_Mc_UART.c ****             Uart_Mc_txBufferTail = 0u;
 235:Generated_Source\PSoC4/Uart_Mc_UART.c ****         }
 236:Generated_Source\PSoC4/Uart_Mc_UART.c ****     }
 237:Generated_Source\PSoC4/Uart_Mc_UART.c **** 
 238:Generated_Source\PSoC4/Uart_Mc_UART.c **** #else
 239:Generated_Source\PSoC4/Uart_Mc_UART.c **** 
 240:Generated_Source\PSoC4/Uart_Mc_UART.c ****     /*******************************************************************************
 241:Generated_Source\PSoC4/Uart_Mc_UART.c ****     * Function Name: Uart_Mc_UartInit
 242:Generated_Source\PSoC4/Uart_Mc_UART.c ****     ****************************************************************************//**
 243:Generated_Source\PSoC4/Uart_Mc_UART.c ****     *
 244:Generated_Source\PSoC4/Uart_Mc_UART.c ****     *  Configures the SCB for the UART operation.
 245:Generated_Source\PSoC4/Uart_Mc_UART.c ****     *
 246:Generated_Source\PSoC4/Uart_Mc_UART.c ****     *******************************************************************************/
 247:Generated_Source\PSoC4/Uart_Mc_UART.c ****     void Uart_Mc_UartInit(void)
 248:Generated_Source\PSoC4/Uart_Mc_UART.c ****     {
  28              		.loc 1 248 0
  29              		.cfi_startproc
  30              		@ args = 0, pretend = 0, frame = 0
  31              		@ frame_needed = 0, uses_anonymous_args = 0
  32 0000 70B5     		push	{r4, r5, r6, lr}
  33              		.cfi_def_cfa_offset 16
  34              		.cfi_offset 4, -16
  35              		.cfi_offset 5, -12
  36              		.cfi_offset 6, -8
  37              		.cfi_offset 14, -4
ARM GAS  C:\Users\doita\AppData\Local\Temp\cc3YV8hR.s 			page 6


 249:Generated_Source\PSoC4/Uart_Mc_UART.c ****         /* Configure UART interface */
 250:Generated_Source\PSoC4/Uart_Mc_UART.c ****         Uart_Mc_CTRL_REG = Uart_Mc_UART_DEFAULT_CTRL;
  38              		.loc 1 250 0
  39 0002 214A     		ldr	r2, .L2
  40 0004 214B     		ldr	r3, .L2+4
  41 0006 1A60     		str	r2, [r3]
 251:Generated_Source\PSoC4/Uart_Mc_UART.c **** 
 252:Generated_Source\PSoC4/Uart_Mc_UART.c ****         /* Configure sub-mode: UART, SmartCard or IrDA */
 253:Generated_Source\PSoC4/Uart_Mc_UART.c ****         Uart_Mc_UART_CTRL_REG = Uart_Mc_UART_DEFAULT_UART_CTRL;
  42              		.loc 1 253 0
  43 0008 0024     		movs	r4, #0
  44 000a 214B     		ldr	r3, .L2+8
  45 000c 1C60     		str	r4, [r3]
 254:Generated_Source\PSoC4/Uart_Mc_UART.c **** 
 255:Generated_Source\PSoC4/Uart_Mc_UART.c ****         /* Configure RX direction */
 256:Generated_Source\PSoC4/Uart_Mc_UART.c ****         Uart_Mc_UART_RX_CTRL_REG = Uart_Mc_UART_DEFAULT_UART_RX_CTRL;
  46              		.loc 1 256 0
  47 000e 214A     		ldr	r2, .L2+12
  48 0010 214B     		ldr	r3, .L2+16
  49 0012 1A60     		str	r2, [r3]
 257:Generated_Source\PSoC4/Uart_Mc_UART.c ****         Uart_Mc_RX_CTRL_REG      = Uart_Mc_UART_DEFAULT_RX_CTRL;
  50              		.loc 1 257 0
  51 0014 214B     		ldr	r3, .L2+20
  52 0016 224A     		ldr	r2, .L2+24
  53 0018 1360     		str	r3, [r2]
 258:Generated_Source\PSoC4/Uart_Mc_UART.c ****         Uart_Mc_RX_FIFO_CTRL_REG = Uart_Mc_UART_DEFAULT_RX_FIFO_CTRL;
  54              		.loc 1 258 0
  55 001a 0721     		movs	r1, #7
  56 001c 214A     		ldr	r2, .L2+28
  57 001e 1160     		str	r1, [r2]
 259:Generated_Source\PSoC4/Uart_Mc_UART.c ****         Uart_Mc_RX_MATCH_REG     = Uart_Mc_UART_DEFAULT_RX_MATCH_REG;
  58              		.loc 1 259 0
  59 0020 214A     		ldr	r2, .L2+32
  60 0022 1460     		str	r4, [r2]
 260:Generated_Source\PSoC4/Uart_Mc_UART.c **** 
 261:Generated_Source\PSoC4/Uart_Mc_UART.c ****         /* Configure TX direction */
 262:Generated_Source\PSoC4/Uart_Mc_UART.c ****         Uart_Mc_UART_TX_CTRL_REG = Uart_Mc_UART_DEFAULT_UART_TX_CTRL;
  61              		.loc 1 262 0
  62 0024 0639     		subs	r1, r1, #6
  63 0026 214A     		ldr	r2, .L2+36
  64 0028 1160     		str	r1, [r2]
 263:Generated_Source\PSoC4/Uart_Mc_UART.c ****         Uart_Mc_TX_CTRL_REG      = Uart_Mc_UART_DEFAULT_TX_CTRL;
  65              		.loc 1 263 0
  66 002a 214A     		ldr	r2, .L2+40
  67 002c 1360     		str	r3, [r2]
 264:Generated_Source\PSoC4/Uart_Mc_UART.c ****         Uart_Mc_TX_FIFO_CTRL_REG = Uart_Mc_UART_DEFAULT_TX_FIFO_CTRL;
  68              		.loc 1 264 0
  69 002e 214B     		ldr	r3, .L2+44
  70 0030 1C60     		str	r4, [r3]
 265:Generated_Source\PSoC4/Uart_Mc_UART.c **** 
 266:Generated_Source\PSoC4/Uart_Mc_UART.c ****     #if !(Uart_Mc_CY_SCBIP_V0 || Uart_Mc_CY_SCBIP_V1)
 267:Generated_Source\PSoC4/Uart_Mc_UART.c ****         Uart_Mc_UART_FLOW_CTRL_REG = Uart_Mc_UART_DEFAULT_FLOW_CTRL;
  71              		.loc 1 267 0
  72 0032 0425     		movs	r5, #4
  73 0034 204B     		ldr	r3, .L2+48
  74 0036 1D60     		str	r5, [r3]
 268:Generated_Source\PSoC4/Uart_Mc_UART.c ****     #endif /* !(Uart_Mc_CY_SCBIP_V0 || Uart_Mc_CY_SCBIP_V1) */
ARM GAS  C:\Users\doita\AppData\Local\Temp\cc3YV8hR.s 			page 7


 269:Generated_Source\PSoC4/Uart_Mc_UART.c **** 
 270:Generated_Source\PSoC4/Uart_Mc_UART.c ****         /* Configure interrupt with UART handler but do not enable it */
 271:Generated_Source\PSoC4/Uart_Mc_UART.c ****     #if(Uart_Mc_SCB_IRQ_INTERNAL)
 272:Generated_Source\PSoC4/Uart_Mc_UART.c ****         CyIntDisable    (Uart_Mc_ISR_NUMBER);
  75              		.loc 1 272 0
  76 0038 0A20     		movs	r0, #10
  77 003a FFF7FEFF 		bl	CyIntDisable
  78              	.LVL0:
 273:Generated_Source\PSoC4/Uart_Mc_UART.c ****         CyIntSetPriority(Uart_Mc_ISR_NUMBER, Uart_Mc_ISR_PRIORITY);
  79              		.loc 1 273 0
  80 003e 0321     		movs	r1, #3
  81 0040 0A20     		movs	r0, #10
  82 0042 FFF7FEFF 		bl	CyIntSetPriority
  83              	.LVL1:
 274:Generated_Source\PSoC4/Uart_Mc_UART.c ****         (void) CyIntSetVector(Uart_Mc_ISR_NUMBER, &Uart_Mc_SPI_UART_ISR);
  84              		.loc 1 274 0
  85 0046 1D49     		ldr	r1, .L2+52
  86 0048 0A20     		movs	r0, #10
  87 004a FFF7FEFF 		bl	CyIntSetVector
  88              	.LVL2:
 275:Generated_Source\PSoC4/Uart_Mc_UART.c ****     #endif /* (Uart_Mc_SCB_IRQ_INTERNAL) */
 276:Generated_Source\PSoC4/Uart_Mc_UART.c **** 
 277:Generated_Source\PSoC4/Uart_Mc_UART.c ****         /* Configure WAKE interrupt */
 278:Generated_Source\PSoC4/Uart_Mc_UART.c ****     #if(Uart_Mc_UART_RX_WAKEUP_IRQ)
 279:Generated_Source\PSoC4/Uart_Mc_UART.c ****         CyIntDisable    (Uart_Mc_RX_WAKE_ISR_NUMBER);
 280:Generated_Source\PSoC4/Uart_Mc_UART.c ****         CyIntSetPriority(Uart_Mc_RX_WAKE_ISR_NUMBER, Uart_Mc_RX_WAKE_ISR_PRIORITY);
 281:Generated_Source\PSoC4/Uart_Mc_UART.c ****         (void) CyIntSetVector(Uart_Mc_RX_WAKE_ISR_NUMBER, &Uart_Mc_UART_WAKEUP_ISR);
 282:Generated_Source\PSoC4/Uart_Mc_UART.c ****     #endif /* (Uart_Mc_UART_RX_WAKEUP_IRQ) */
 283:Generated_Source\PSoC4/Uart_Mc_UART.c **** 
 284:Generated_Source\PSoC4/Uart_Mc_UART.c ****         /* Configure interrupt sources */
 285:Generated_Source\PSoC4/Uart_Mc_UART.c ****         Uart_Mc_INTR_I2C_EC_MASK_REG = Uart_Mc_UART_DEFAULT_INTR_I2C_EC_MASK;
  89              		.loc 1 285 0
  90 004e 1C4B     		ldr	r3, .L2+56
  91 0050 1C60     		str	r4, [r3]
 286:Generated_Source\PSoC4/Uart_Mc_UART.c ****         Uart_Mc_INTR_SPI_EC_MASK_REG = Uart_Mc_UART_DEFAULT_INTR_SPI_EC_MASK;
  92              		.loc 1 286 0
  93 0052 1C4B     		ldr	r3, .L2+60
  94 0054 1C60     		str	r4, [r3]
 287:Generated_Source\PSoC4/Uart_Mc_UART.c ****         Uart_Mc_INTR_SLAVE_MASK_REG  = Uart_Mc_UART_DEFAULT_INTR_SLAVE_MASK;
  95              		.loc 1 287 0
  96 0056 1C4B     		ldr	r3, .L2+64
  97 0058 1C60     		str	r4, [r3]
 288:Generated_Source\PSoC4/Uart_Mc_UART.c ****         Uart_Mc_INTR_MASTER_MASK_REG = Uart_Mc_UART_DEFAULT_INTR_MASTER_MASK;
  98              		.loc 1 288 0
  99 005a 1C4B     		ldr	r3, .L2+68
 100 005c 1C60     		str	r4, [r3]
 289:Generated_Source\PSoC4/Uart_Mc_UART.c ****         Uart_Mc_INTR_RX_MASK_REG     = Uart_Mc_UART_DEFAULT_INTR_RX_MASK;
 101              		.loc 1 289 0
 102 005e 1C4B     		ldr	r3, .L2+72
 103 0060 1D60     		str	r5, [r3]
 290:Generated_Source\PSoC4/Uart_Mc_UART.c ****         Uart_Mc_INTR_TX_MASK_REG     = Uart_Mc_UART_DEFAULT_INTR_TX_MASK;
 104              		.loc 1 290 0
 105 0062 1C4B     		ldr	r3, .L2+76
 106 0064 8022     		movs	r2, #128
 107 0066 9200     		lsls	r2, r2, #2
 108 0068 1A60     		str	r2, [r3]
 291:Generated_Source\PSoC4/Uart_Mc_UART.c **** 
ARM GAS  C:\Users\doita\AppData\Local\Temp\cc3YV8hR.s 			page 8


 292:Generated_Source\PSoC4/Uart_Mc_UART.c ****         /* Configure TX interrupt sources to restore. */
 293:Generated_Source\PSoC4/Uart_Mc_UART.c ****         Uart_Mc_IntrTxMask = LO16(Uart_Mc_INTR_TX_MASK_REG);
 109              		.loc 1 293 0
 110 006a 1A68     		ldr	r2, [r3]
 111 006c 1A4B     		ldr	r3, .L2+80
 112 006e 1A80     		strh	r2, [r3]
 294:Generated_Source\PSoC4/Uart_Mc_UART.c **** 
 295:Generated_Source\PSoC4/Uart_Mc_UART.c ****     #if(Uart_Mc_INTERNAL_RX_SW_BUFFER_CONST)
 296:Generated_Source\PSoC4/Uart_Mc_UART.c ****         Uart_Mc_rxBufferHead     = 0u;
 113              		.loc 1 296 0
 114 0070 1A4B     		ldr	r3, .L2+84
 115 0072 1C60     		str	r4, [r3]
 297:Generated_Source\PSoC4/Uart_Mc_UART.c ****         Uart_Mc_rxBufferTail     = 0u;
 116              		.loc 1 297 0
 117 0074 1A4B     		ldr	r3, .L2+88
 118 0076 1C60     		str	r4, [r3]
 298:Generated_Source\PSoC4/Uart_Mc_UART.c ****         Uart_Mc_rxBufferOverflow = 0u;
 119              		.loc 1 298 0
 120 0078 1A4B     		ldr	r3, .L2+92
 121 007a 1C70     		strb	r4, [r3]
 299:Generated_Source\PSoC4/Uart_Mc_UART.c ****     #endif /* (Uart_Mc_INTERNAL_RX_SW_BUFFER_CONST) */
 300:Generated_Source\PSoC4/Uart_Mc_UART.c **** 
 301:Generated_Source\PSoC4/Uart_Mc_UART.c ****     #if(Uart_Mc_INTERNAL_TX_SW_BUFFER_CONST)
 302:Generated_Source\PSoC4/Uart_Mc_UART.c ****         Uart_Mc_txBufferHead = 0u;
 122              		.loc 1 302 0
 123 007c 1A4B     		ldr	r3, .L2+96
 124 007e 1C60     		str	r4, [r3]
 303:Generated_Source\PSoC4/Uart_Mc_UART.c ****         Uart_Mc_txBufferTail = 0u;
 125              		.loc 1 303 0
 126 0080 1A4B     		ldr	r3, .L2+100
 127 0082 1C60     		str	r4, [r3]
 304:Generated_Source\PSoC4/Uart_Mc_UART.c ****     #endif /* (Uart_Mc_INTERNAL_TX_SW_BUFFER_CONST) */
 305:Generated_Source\PSoC4/Uart_Mc_UART.c ****     }
 128              		.loc 1 305 0
 129              		@ sp needed
 130 0084 70BD     		pop	{r4, r5, r6, pc}
 131              	.L3:
 132 0086 C046     		.align	2
 133              	.L2:
 134 0088 0C000002 		.word	33554444
 135 008c 00002740 		.word	1076297728
 136 0090 40002740 		.word	1076297792
 137 0094 01000A00 		.word	655361
 138 0098 48002740 		.word	1076297800
 139 009c 07000080 		.word	-2147483641
 140 00a0 00032740 		.word	1076298496
 141 00a4 04032740 		.word	1076298500
 142 00a8 10032740 		.word	1076298512
 143 00ac 44002740 		.word	1076297796
 144 00b0 00022740 		.word	1076298240
 145 00b4 04022740 		.word	1076298244
 146 00b8 50002740 		.word	1076297808
 147 00bc 00000000 		.word	Uart_Mc_SPI_UART_ISR
 148 00c0 880E2740 		.word	1076301448
 149 00c4 C80E2740 		.word	1076301512
 150 00c8 480F2740 		.word	1076301640
 151 00cc 080F2740 		.word	1076301576
ARM GAS  C:\Users\doita\AppData\Local\Temp\cc3YV8hR.s 			page 9


 152 00d0 C80F2740 		.word	1076301768
 153 00d4 880F2740 		.word	1076301704
 154 00d8 00000000 		.word	Uart_Mc_IntrTxMask
 155 00dc 00000000 		.word	Uart_Mc_rxBufferHead
 156 00e0 00000000 		.word	Uart_Mc_rxBufferTail
 157 00e4 00000000 		.word	Uart_Mc_rxBufferOverflow
 158 00e8 00000000 		.word	Uart_Mc_txBufferHead
 159 00ec 00000000 		.word	Uart_Mc_txBufferTail
 160              		.cfi_endproc
 161              	.LFE1:
 162              		.size	Uart_Mc_UartInit, .-Uart_Mc_UartInit
 163              		.section	.text.Uart_Mc_UartPostEnable,"ax",%progbits
 164              		.align	2
 165              		.global	Uart_Mc_UartPostEnable
 166              		.code	16
 167              		.thumb_func
 168              		.type	Uart_Mc_UartPostEnable, %function
 169              	Uart_Mc_UartPostEnable:
 170              	.LFB2:
 306:Generated_Source\PSoC4/Uart_Mc_UART.c **** #endif /* (Uart_Mc_SCB_MODE_UNCONFIG_CONST_CFG) */
 307:Generated_Source\PSoC4/Uart_Mc_UART.c **** 
 308:Generated_Source\PSoC4/Uart_Mc_UART.c **** 
 309:Generated_Source\PSoC4/Uart_Mc_UART.c **** /*******************************************************************************
 310:Generated_Source\PSoC4/Uart_Mc_UART.c **** * Function Name: Uart_Mc_UartPostEnable
 311:Generated_Source\PSoC4/Uart_Mc_UART.c **** ****************************************************************************//**
 312:Generated_Source\PSoC4/Uart_Mc_UART.c **** *
 313:Generated_Source\PSoC4/Uart_Mc_UART.c **** *  Restores HSIOM settings for the UART output pins (TX and/or RTS) to be
 314:Generated_Source\PSoC4/Uart_Mc_UART.c **** *  controlled by the SCB UART.
 315:Generated_Source\PSoC4/Uart_Mc_UART.c **** *
 316:Generated_Source\PSoC4/Uart_Mc_UART.c **** *******************************************************************************/
 317:Generated_Source\PSoC4/Uart_Mc_UART.c **** void Uart_Mc_UartPostEnable(void)
 318:Generated_Source\PSoC4/Uart_Mc_UART.c **** {
 171              		.loc 1 318 0
 172              		.cfi_startproc
 173              		@ args = 0, pretend = 0, frame = 0
 174              		@ frame_needed = 0, uses_anonymous_args = 0
 175              		@ link register save eliminated.
 319:Generated_Source\PSoC4/Uart_Mc_UART.c **** #if (Uart_Mc_SCB_MODE_UNCONFIG_CONST_CFG)
 320:Generated_Source\PSoC4/Uart_Mc_UART.c ****     #if (Uart_Mc_TX_SDA_MISO_PIN)
 321:Generated_Source\PSoC4/Uart_Mc_UART.c ****         if (Uart_Mc_CHECK_TX_SDA_MISO_PIN_USED)
 322:Generated_Source\PSoC4/Uart_Mc_UART.c ****         {
 323:Generated_Source\PSoC4/Uart_Mc_UART.c ****             /* Set SCB UART to drive the output pin */
 324:Generated_Source\PSoC4/Uart_Mc_UART.c ****             Uart_Mc_SET_HSIOM_SEL(Uart_Mc_TX_SDA_MISO_HSIOM_REG, Uart_Mc_TX_SDA_MISO_HSIOM_MASK,
 325:Generated_Source\PSoC4/Uart_Mc_UART.c ****                                            Uart_Mc_TX_SDA_MISO_HSIOM_POS, Uart_Mc_TX_SDA_MISO_HSIOM
 326:Generated_Source\PSoC4/Uart_Mc_UART.c ****         }
 327:Generated_Source\PSoC4/Uart_Mc_UART.c ****     #endif /* (Uart_Mc_TX_SDA_MISO_PIN_PIN) */
 328:Generated_Source\PSoC4/Uart_Mc_UART.c **** 
 329:Generated_Source\PSoC4/Uart_Mc_UART.c ****     #if !(Uart_Mc_CY_SCBIP_V0 || Uart_Mc_CY_SCBIP_V1)
 330:Generated_Source\PSoC4/Uart_Mc_UART.c ****         #if (Uart_Mc_RTS_SS0_PIN)
 331:Generated_Source\PSoC4/Uart_Mc_UART.c ****             if (Uart_Mc_CHECK_RTS_SS0_PIN_USED)
 332:Generated_Source\PSoC4/Uart_Mc_UART.c ****             {
 333:Generated_Source\PSoC4/Uart_Mc_UART.c ****                 /* Set SCB UART to drive the output pin */
 334:Generated_Source\PSoC4/Uart_Mc_UART.c ****                 Uart_Mc_SET_HSIOM_SEL(Uart_Mc_RTS_SS0_HSIOM_REG, Uart_Mc_RTS_SS0_HSIOM_MASK,
 335:Generated_Source\PSoC4/Uart_Mc_UART.c ****                                                Uart_Mc_RTS_SS0_HSIOM_POS, Uart_Mc_RTS_SS0_HSIOM_SEL
 336:Generated_Source\PSoC4/Uart_Mc_UART.c ****             }
 337:Generated_Source\PSoC4/Uart_Mc_UART.c ****         #endif /* (Uart_Mc_RTS_SS0_PIN) */
 338:Generated_Source\PSoC4/Uart_Mc_UART.c ****     #endif /* !(Uart_Mc_CY_SCBIP_V0 || Uart_Mc_CY_SCBIP_V1) */
ARM GAS  C:\Users\doita\AppData\Local\Temp\cc3YV8hR.s 			page 10


 339:Generated_Source\PSoC4/Uart_Mc_UART.c **** 
 340:Generated_Source\PSoC4/Uart_Mc_UART.c **** #else
 341:Generated_Source\PSoC4/Uart_Mc_UART.c ****     #if (Uart_Mc_UART_TX_PIN)
 342:Generated_Source\PSoC4/Uart_Mc_UART.c ****          /* Set SCB UART to drive the output pin */
 343:Generated_Source\PSoC4/Uart_Mc_UART.c ****         Uart_Mc_SET_HSIOM_SEL(Uart_Mc_TX_HSIOM_REG, Uart_Mc_TX_HSIOM_MASK,
 176              		.loc 1 343 0
 177 0000 0549     		ldr	r1, .L5
 178 0002 0B68     		ldr	r3, [r1]
 179 0004 F022     		movs	r2, #240
 180 0006 9343     		bics	r3, r2
 181 0008 603A     		subs	r2, r2, #96
 182 000a 1343     		orrs	r3, r2
 183 000c 0B60     		str	r3, [r1]
 344:Generated_Source\PSoC4/Uart_Mc_UART.c ****                                        Uart_Mc_TX_HSIOM_POS, Uart_Mc_TX_HSIOM_SEL_UART);
 345:Generated_Source\PSoC4/Uart_Mc_UART.c ****     #endif /* (Uart_Mc_UART_TX_PIN) */
 346:Generated_Source\PSoC4/Uart_Mc_UART.c **** 
 347:Generated_Source\PSoC4/Uart_Mc_UART.c ****     #if (Uart_Mc_UART_RTS_PIN)
 348:Generated_Source\PSoC4/Uart_Mc_UART.c ****         /* Set SCB UART to drive the output pin */
 349:Generated_Source\PSoC4/Uart_Mc_UART.c ****         Uart_Mc_SET_HSIOM_SEL(Uart_Mc_RTS_HSIOM_REG, Uart_Mc_RTS_HSIOM_MASK,
 350:Generated_Source\PSoC4/Uart_Mc_UART.c ****                                        Uart_Mc_RTS_HSIOM_POS, Uart_Mc_RTS_HSIOM_SEL_UART);
 351:Generated_Source\PSoC4/Uart_Mc_UART.c ****     #endif /* (Uart_Mc_UART_RTS_PIN) */
 352:Generated_Source\PSoC4/Uart_Mc_UART.c **** #endif /* (Uart_Mc_SCB_MODE_UNCONFIG_CONST_CFG) */
 353:Generated_Source\PSoC4/Uart_Mc_UART.c **** 
 354:Generated_Source\PSoC4/Uart_Mc_UART.c ****     /* Restore TX interrupt sources. */
 355:Generated_Source\PSoC4/Uart_Mc_UART.c ****     Uart_Mc_SetTxInterruptMode(Uart_Mc_IntrTxMask);
 184              		.loc 1 355 0
 185 000e 034B     		ldr	r3, .L5+4
 186 0010 1A88     		ldrh	r2, [r3]
 187 0012 034B     		ldr	r3, .L5+8
 188 0014 1A60     		str	r2, [r3]
 356:Generated_Source\PSoC4/Uart_Mc_UART.c **** }
 189              		.loc 1 356 0
 190              		@ sp needed
 191 0016 7047     		bx	lr
 192              	.L6:
 193              		.align	2
 194              	.L5:
 195 0018 00070240 		.word	1073874688
 196 001c 00000000 		.word	Uart_Mc_IntrTxMask
 197 0020 880F2740 		.word	1076301704
 198              		.cfi_endproc
 199              	.LFE2:
 200              		.size	Uart_Mc_UartPostEnable, .-Uart_Mc_UartPostEnable
 201              		.section	.text.Uart_Mc_UartStop,"ax",%progbits
 202              		.align	2
 203              		.global	Uart_Mc_UartStop
 204              		.code	16
 205              		.thumb_func
 206              		.type	Uart_Mc_UartStop, %function
 207              	Uart_Mc_UartStop:
 208              	.LFB3:
 357:Generated_Source\PSoC4/Uart_Mc_UART.c **** 
 358:Generated_Source\PSoC4/Uart_Mc_UART.c **** 
 359:Generated_Source\PSoC4/Uart_Mc_UART.c **** /*******************************************************************************
 360:Generated_Source\PSoC4/Uart_Mc_UART.c **** * Function Name: Uart_Mc_UartStop
 361:Generated_Source\PSoC4/Uart_Mc_UART.c **** ****************************************************************************//**
 362:Generated_Source\PSoC4/Uart_Mc_UART.c **** *
ARM GAS  C:\Users\doita\AppData\Local\Temp\cc3YV8hR.s 			page 11


 363:Generated_Source\PSoC4/Uart_Mc_UART.c **** *  Changes the HSIOM settings for the UART output pins (TX and/or RTS) to keep
 364:Generated_Source\PSoC4/Uart_Mc_UART.c **** *  them inactive after the block is disabled. The output pins are controlled by
 365:Generated_Source\PSoC4/Uart_Mc_UART.c **** *  the GPIO data register. Also, the function disables the skip start feature
 366:Generated_Source\PSoC4/Uart_Mc_UART.c **** *  to not cause it to trigger after the component is enabled.
 367:Generated_Source\PSoC4/Uart_Mc_UART.c **** *
 368:Generated_Source\PSoC4/Uart_Mc_UART.c **** *******************************************************************************/
 369:Generated_Source\PSoC4/Uart_Mc_UART.c **** void Uart_Mc_UartStop(void)
 370:Generated_Source\PSoC4/Uart_Mc_UART.c **** {
 209              		.loc 1 370 0
 210              		.cfi_startproc
 211              		@ args = 0, pretend = 0, frame = 0
 212              		@ frame_needed = 0, uses_anonymous_args = 0
 213              		@ link register save eliminated.
 371:Generated_Source\PSoC4/Uart_Mc_UART.c **** #if(Uart_Mc_SCB_MODE_UNCONFIG_CONST_CFG)
 372:Generated_Source\PSoC4/Uart_Mc_UART.c ****     #if (Uart_Mc_TX_SDA_MISO_PIN)
 373:Generated_Source\PSoC4/Uart_Mc_UART.c ****         if (Uart_Mc_CHECK_TX_SDA_MISO_PIN_USED)
 374:Generated_Source\PSoC4/Uart_Mc_UART.c ****         {
 375:Generated_Source\PSoC4/Uart_Mc_UART.c ****             /* Set GPIO to drive output pin */
 376:Generated_Source\PSoC4/Uart_Mc_UART.c ****             Uart_Mc_SET_HSIOM_SEL(Uart_Mc_TX_SDA_MISO_HSIOM_REG, Uart_Mc_TX_SDA_MISO_HSIOM_MASK,
 377:Generated_Source\PSoC4/Uart_Mc_UART.c ****                                            Uart_Mc_TX_SDA_MISO_HSIOM_POS, Uart_Mc_TX_SDA_MISO_HSIOM
 378:Generated_Source\PSoC4/Uart_Mc_UART.c ****         }
 379:Generated_Source\PSoC4/Uart_Mc_UART.c ****     #endif /* (Uart_Mc_TX_SDA_MISO_PIN_PIN) */
 380:Generated_Source\PSoC4/Uart_Mc_UART.c **** 
 381:Generated_Source\PSoC4/Uart_Mc_UART.c ****     #if !(Uart_Mc_CY_SCBIP_V0 || Uart_Mc_CY_SCBIP_V1)
 382:Generated_Source\PSoC4/Uart_Mc_UART.c ****         #if (Uart_Mc_RTS_SS0_PIN)
 383:Generated_Source\PSoC4/Uart_Mc_UART.c ****             if (Uart_Mc_CHECK_RTS_SS0_PIN_USED)
 384:Generated_Source\PSoC4/Uart_Mc_UART.c ****             {
 385:Generated_Source\PSoC4/Uart_Mc_UART.c ****                 /* Set output pin state after block is disabled */
 386:Generated_Source\PSoC4/Uart_Mc_UART.c ****                 Uart_Mc_uart_rts_spi_ss0_Write(Uart_Mc_GET_UART_RTS_INACTIVE);
 387:Generated_Source\PSoC4/Uart_Mc_UART.c **** 
 388:Generated_Source\PSoC4/Uart_Mc_UART.c ****                 /* Set GPIO to drive output pin */
 389:Generated_Source\PSoC4/Uart_Mc_UART.c ****                 Uart_Mc_SET_HSIOM_SEL(Uart_Mc_RTS_SS0_HSIOM_REG, Uart_Mc_RTS_SS0_HSIOM_MASK,
 390:Generated_Source\PSoC4/Uart_Mc_UART.c ****                                                Uart_Mc_RTS_SS0_HSIOM_POS, Uart_Mc_RTS_SS0_HSIOM_SEL
 391:Generated_Source\PSoC4/Uart_Mc_UART.c ****             }
 392:Generated_Source\PSoC4/Uart_Mc_UART.c ****         #endif /* (Uart_Mc_RTS_SS0_PIN) */
 393:Generated_Source\PSoC4/Uart_Mc_UART.c ****     #endif /* !(Uart_Mc_CY_SCBIP_V0 || Uart_Mc_CY_SCBIP_V1) */
 394:Generated_Source\PSoC4/Uart_Mc_UART.c **** 
 395:Generated_Source\PSoC4/Uart_Mc_UART.c **** #else
 396:Generated_Source\PSoC4/Uart_Mc_UART.c ****     #if (Uart_Mc_UART_TX_PIN)
 397:Generated_Source\PSoC4/Uart_Mc_UART.c ****         /* Set GPIO to drive output pin */
 398:Generated_Source\PSoC4/Uart_Mc_UART.c ****         Uart_Mc_SET_HSIOM_SEL(Uart_Mc_TX_HSIOM_REG, Uart_Mc_TX_HSIOM_MASK,
 214              		.loc 1 398 0
 215 0000 064A     		ldr	r2, .L8
 216 0002 1368     		ldr	r3, [r2]
 217 0004 F021     		movs	r1, #240
 218 0006 8B43     		bics	r3, r1
 219 0008 1360     		str	r3, [r2]
 399:Generated_Source\PSoC4/Uart_Mc_UART.c ****                                        Uart_Mc_TX_HSIOM_POS, Uart_Mc_TX_HSIOM_SEL_GPIO);
 400:Generated_Source\PSoC4/Uart_Mc_UART.c ****     #endif /* (Uart_Mc_UART_TX_PIN) */
 401:Generated_Source\PSoC4/Uart_Mc_UART.c **** 
 402:Generated_Source\PSoC4/Uart_Mc_UART.c ****     #if (Uart_Mc_UART_RTS_PIN)
 403:Generated_Source\PSoC4/Uart_Mc_UART.c ****         /* Set output pin state after block is disabled */
 404:Generated_Source\PSoC4/Uart_Mc_UART.c ****         Uart_Mc_rts_Write(Uart_Mc_GET_UART_RTS_INACTIVE);
 405:Generated_Source\PSoC4/Uart_Mc_UART.c **** 
 406:Generated_Source\PSoC4/Uart_Mc_UART.c ****         /* Set GPIO to drive output pin */
 407:Generated_Source\PSoC4/Uart_Mc_UART.c ****         Uart_Mc_SET_HSIOM_SEL(Uart_Mc_RTS_HSIOM_REG, Uart_Mc_RTS_HSIOM_MASK,
 408:Generated_Source\PSoC4/Uart_Mc_UART.c ****                                        Uart_Mc_RTS_HSIOM_POS, Uart_Mc_RTS_HSIOM_SEL_GPIO);
ARM GAS  C:\Users\doita\AppData\Local\Temp\cc3YV8hR.s 			page 12


 409:Generated_Source\PSoC4/Uart_Mc_UART.c ****     #endif /* (Uart_Mc_UART_RTS_PIN) */
 410:Generated_Source\PSoC4/Uart_Mc_UART.c **** 
 411:Generated_Source\PSoC4/Uart_Mc_UART.c **** #endif /* (Uart_Mc_SCB_MODE_UNCONFIG_CONST_CFG) */
 412:Generated_Source\PSoC4/Uart_Mc_UART.c **** 
 413:Generated_Source\PSoC4/Uart_Mc_UART.c **** #if (Uart_Mc_UART_WAKE_ENABLE_CONST)
 414:Generated_Source\PSoC4/Uart_Mc_UART.c ****     /* Disable skip start feature used for wakeup */
 415:Generated_Source\PSoC4/Uart_Mc_UART.c ****     Uart_Mc_UART_RX_CTRL_REG &= (uint32) ~Uart_Mc_UART_RX_CTRL_SKIP_START;
 416:Generated_Source\PSoC4/Uart_Mc_UART.c **** #endif /* (Uart_Mc_UART_WAKE_ENABLE_CONST) */
 417:Generated_Source\PSoC4/Uart_Mc_UART.c **** 
 418:Generated_Source\PSoC4/Uart_Mc_UART.c ****     /* Store TX interrupt sources (exclude level triggered). */
 419:Generated_Source\PSoC4/Uart_Mc_UART.c ****     Uart_Mc_IntrTxMask = LO16(Uart_Mc_GetTxInterruptMode() & Uart_Mc_INTR_UART_TX_RESTORE);
 220              		.loc 1 419 0
 221 000a 054B     		ldr	r3, .L8+4
 222 000c 1A68     		ldr	r2, [r3]
 223 000e E423     		movs	r3, #228
 224 0010 DB00     		lsls	r3, r3, #3
 225 0012 1340     		ands	r3, r2
 226 0014 034A     		ldr	r2, .L8+8
 227 0016 1380     		strh	r3, [r2]
 420:Generated_Source\PSoC4/Uart_Mc_UART.c **** }
 228              		.loc 1 420 0
 229              		@ sp needed
 230 0018 7047     		bx	lr
 231              	.L9:
 232 001a C046     		.align	2
 233              	.L8:
 234 001c 00070240 		.word	1073874688
 235 0020 880F2740 		.word	1076301704
 236 0024 00000000 		.word	Uart_Mc_IntrTxMask
 237              		.cfi_endproc
 238              	.LFE3:
 239              		.size	Uart_Mc_UartStop, .-Uart_Mc_UartStop
 240              		.section	.text.Uart_Mc_UartSetRxAddress,"ax",%progbits
 241              		.align	2
 242              		.global	Uart_Mc_UartSetRxAddress
 243              		.code	16
 244              		.thumb_func
 245              		.type	Uart_Mc_UartSetRxAddress, %function
 246              	Uart_Mc_UartSetRxAddress:
 247              	.LFB4:
 421:Generated_Source\PSoC4/Uart_Mc_UART.c **** 
 422:Generated_Source\PSoC4/Uart_Mc_UART.c **** 
 423:Generated_Source\PSoC4/Uart_Mc_UART.c **** /*******************************************************************************
 424:Generated_Source\PSoC4/Uart_Mc_UART.c **** * Function Name: Uart_Mc_UartSetRxAddress
 425:Generated_Source\PSoC4/Uart_Mc_UART.c **** ****************************************************************************//**
 426:Generated_Source\PSoC4/Uart_Mc_UART.c **** *
 427:Generated_Source\PSoC4/Uart_Mc_UART.c **** *  Sets the hardware detectable receiver address for the UART in the
 428:Generated_Source\PSoC4/Uart_Mc_UART.c **** *  Multiprocessor mode.
 429:Generated_Source\PSoC4/Uart_Mc_UART.c **** *
 430:Generated_Source\PSoC4/Uart_Mc_UART.c **** *  \param address: Address for hardware address detection.
 431:Generated_Source\PSoC4/Uart_Mc_UART.c **** *
 432:Generated_Source\PSoC4/Uart_Mc_UART.c **** *******************************************************************************/
 433:Generated_Source\PSoC4/Uart_Mc_UART.c **** void Uart_Mc_UartSetRxAddress(uint32 address)
 434:Generated_Source\PSoC4/Uart_Mc_UART.c **** {
 248              		.loc 1 434 0
 249              		.cfi_startproc
 250              		@ args = 0, pretend = 0, frame = 0
ARM GAS  C:\Users\doita\AppData\Local\Temp\cc3YV8hR.s 			page 13


 251              		@ frame_needed = 0, uses_anonymous_args = 0
 252              		@ link register save eliminated.
 253              	.LVL3:
 435:Generated_Source\PSoC4/Uart_Mc_UART.c ****      uint32 matchReg;
 436:Generated_Source\PSoC4/Uart_Mc_UART.c **** 
 437:Generated_Source\PSoC4/Uart_Mc_UART.c ****     matchReg = Uart_Mc_RX_MATCH_REG;
 254              		.loc 1 437 0
 255 0000 034A     		ldr	r2, .L11
 256 0002 1368     		ldr	r3, [r2]
 257              	.LVL4:
 438:Generated_Source\PSoC4/Uart_Mc_UART.c **** 
 439:Generated_Source\PSoC4/Uart_Mc_UART.c ****     matchReg &= ((uint32) ~Uart_Mc_RX_MATCH_ADDR_MASK); /* Clear address bits */
 258              		.loc 1 439 0
 259 0004 FF21     		movs	r1, #255
 260 0006 8B43     		bics	r3, r1
 261              	.LVL5:
 440:Generated_Source\PSoC4/Uart_Mc_UART.c ****     matchReg |= ((uint32)  (address & Uart_Mc_RX_MATCH_ADDR_MASK)); /* Set address  */
 262              		.loc 1 440 0
 263 0008 0840     		ands	r0, r1
 264              	.LVL6:
 265 000a 1843     		orrs	r0, r3
 266              	.LVL7:
 441:Generated_Source\PSoC4/Uart_Mc_UART.c **** 
 442:Generated_Source\PSoC4/Uart_Mc_UART.c ****     Uart_Mc_RX_MATCH_REG = matchReg;
 267              		.loc 1 442 0
 268 000c 1060     		str	r0, [r2]
 443:Generated_Source\PSoC4/Uart_Mc_UART.c **** }
 269              		.loc 1 443 0
 270              		@ sp needed
 271 000e 7047     		bx	lr
 272              	.L12:
 273              		.align	2
 274              	.L11:
 275 0010 10032740 		.word	1076298512
 276              		.cfi_endproc
 277              	.LFE4:
 278              		.size	Uart_Mc_UartSetRxAddress, .-Uart_Mc_UartSetRxAddress
 279              		.section	.text.Uart_Mc_UartSetRxAddressMask,"ax",%progbits
 280              		.align	2
 281              		.global	Uart_Mc_UartSetRxAddressMask
 282              		.code	16
 283              		.thumb_func
 284              		.type	Uart_Mc_UartSetRxAddressMask, %function
 285              	Uart_Mc_UartSetRxAddressMask:
 286              	.LFB5:
 444:Generated_Source\PSoC4/Uart_Mc_UART.c **** 
 445:Generated_Source\PSoC4/Uart_Mc_UART.c **** 
 446:Generated_Source\PSoC4/Uart_Mc_UART.c **** /*******************************************************************************
 447:Generated_Source\PSoC4/Uart_Mc_UART.c **** * Function Name: Uart_Mc_UartSetRxAddressMask
 448:Generated_Source\PSoC4/Uart_Mc_UART.c **** ****************************************************************************//**
 449:Generated_Source\PSoC4/Uart_Mc_UART.c **** *
 450:Generated_Source\PSoC4/Uart_Mc_UART.c **** *  Sets the hardware address mask for the UART in the Multiprocessor mode.
 451:Generated_Source\PSoC4/Uart_Mc_UART.c **** *
 452:Generated_Source\PSoC4/Uart_Mc_UART.c **** *  \param addressMask: Address mask.
 453:Generated_Source\PSoC4/Uart_Mc_UART.c **** *   - Bit value 0 – excludes bit from address comparison.
 454:Generated_Source\PSoC4/Uart_Mc_UART.c **** *   - Bit value 1 – the bit needs to match with the corresponding bit
 455:Generated_Source\PSoC4/Uart_Mc_UART.c **** *     of the address.
ARM GAS  C:\Users\doita\AppData\Local\Temp\cc3YV8hR.s 			page 14


 456:Generated_Source\PSoC4/Uart_Mc_UART.c **** *
 457:Generated_Source\PSoC4/Uart_Mc_UART.c **** *******************************************************************************/
 458:Generated_Source\PSoC4/Uart_Mc_UART.c **** void Uart_Mc_UartSetRxAddressMask(uint32 addressMask)
 459:Generated_Source\PSoC4/Uart_Mc_UART.c **** {
 287              		.loc 1 459 0
 288              		.cfi_startproc
 289              		@ args = 0, pretend = 0, frame = 0
 290              		@ frame_needed = 0, uses_anonymous_args = 0
 291              		@ link register save eliminated.
 292              	.LVL8:
 460:Generated_Source\PSoC4/Uart_Mc_UART.c ****     uint32 matchReg;
 461:Generated_Source\PSoC4/Uart_Mc_UART.c **** 
 462:Generated_Source\PSoC4/Uart_Mc_UART.c ****     matchReg = Uart_Mc_RX_MATCH_REG;
 293              		.loc 1 462 0
 294 0000 034A     		ldr	r2, .L14
 295 0002 1168     		ldr	r1, [r2]
 296              	.LVL9:
 463:Generated_Source\PSoC4/Uart_Mc_UART.c **** 
 464:Generated_Source\PSoC4/Uart_Mc_UART.c ****     matchReg &= ((uint32) ~Uart_Mc_RX_MATCH_MASK_MASK); /* Clear address mask bits */
 297              		.loc 1 464 0
 298 0004 034B     		ldr	r3, .L14+4
 299 0006 0B40     		ands	r3, r1
 300              	.LVL10:
 465:Generated_Source\PSoC4/Uart_Mc_UART.c ****     matchReg |= ((uint32) (addressMask << Uart_Mc_RX_MATCH_MASK_POS));
 301              		.loc 1 465 0
 302 0008 0004     		lsls	r0, r0, #16
 303              	.LVL11:
 304 000a 1843     		orrs	r0, r3
 305              	.LVL12:
 466:Generated_Source\PSoC4/Uart_Mc_UART.c **** 
 467:Generated_Source\PSoC4/Uart_Mc_UART.c ****     Uart_Mc_RX_MATCH_REG = matchReg;
 306              		.loc 1 467 0
 307 000c 1060     		str	r0, [r2]
 468:Generated_Source\PSoC4/Uart_Mc_UART.c **** }
 308              		.loc 1 468 0
 309              		@ sp needed
 310 000e 7047     		bx	lr
 311              	.L15:
 312              		.align	2
 313              	.L14:
 314 0010 10032740 		.word	1076298512
 315 0014 FFFF00FF 		.word	-16711681
 316              		.cfi_endproc
 317              	.LFE5:
 318              		.size	Uart_Mc_UartSetRxAddressMask, .-Uart_Mc_UartSetRxAddressMask
 319              		.section	.text.Uart_Mc_UartGetChar,"ax",%progbits
 320              		.align	2
 321              		.global	Uart_Mc_UartGetChar
 322              		.code	16
 323              		.thumb_func
 324              		.type	Uart_Mc_UartGetChar, %function
 325              	Uart_Mc_UartGetChar:
 326              	.LFB6:
 469:Generated_Source\PSoC4/Uart_Mc_UART.c **** 
 470:Generated_Source\PSoC4/Uart_Mc_UART.c **** 
 471:Generated_Source\PSoC4/Uart_Mc_UART.c **** #if(Uart_Mc_UART_RX_DIRECTION)
 472:Generated_Source\PSoC4/Uart_Mc_UART.c ****     /*******************************************************************************
ARM GAS  C:\Users\doita\AppData\Local\Temp\cc3YV8hR.s 			page 15


 473:Generated_Source\PSoC4/Uart_Mc_UART.c ****     * Function Name: Uart_Mc_UartGetChar
 474:Generated_Source\PSoC4/Uart_Mc_UART.c ****     ****************************************************************************//**
 475:Generated_Source\PSoC4/Uart_Mc_UART.c ****     *
 476:Generated_Source\PSoC4/Uart_Mc_UART.c ****     *  Retrieves next data element from receive buffer.
 477:Generated_Source\PSoC4/Uart_Mc_UART.c ****     *  This function is designed for ASCII characters and returns a char where
 478:Generated_Source\PSoC4/Uart_Mc_UART.c ****     *  1 to 255 are valid characters and 0 indicates an error occurred or no data
 479:Generated_Source\PSoC4/Uart_Mc_UART.c ****     *  is present.
 480:Generated_Source\PSoC4/Uart_Mc_UART.c ****     *  - RX software buffer is disabled: Returns data element retrieved from RX
 481:Generated_Source\PSoC4/Uart_Mc_UART.c ****     *    FIFO.
 482:Generated_Source\PSoC4/Uart_Mc_UART.c ****     *  - RX software buffer is enabled: Returns data element from the software
 483:Generated_Source\PSoC4/Uart_Mc_UART.c ****     *    receive buffer.
 484:Generated_Source\PSoC4/Uart_Mc_UART.c ****     *
 485:Generated_Source\PSoC4/Uart_Mc_UART.c ****     *  \return
 486:Generated_Source\PSoC4/Uart_Mc_UART.c ****     *   Next data element from the receive buffer. ASCII character values from
 487:Generated_Source\PSoC4/Uart_Mc_UART.c ****     *   1 to 255 are valid. A returned zero signifies an error condition or no
 488:Generated_Source\PSoC4/Uart_Mc_UART.c ****     *   data available.
 489:Generated_Source\PSoC4/Uart_Mc_UART.c ****     *
 490:Generated_Source\PSoC4/Uart_Mc_UART.c ****     *  \sideeffect
 491:Generated_Source\PSoC4/Uart_Mc_UART.c ****     *   The errors bits may not correspond with reading characters due to
 492:Generated_Source\PSoC4/Uart_Mc_UART.c ****     *   RX FIFO and software buffer usage.
 493:Generated_Source\PSoC4/Uart_Mc_UART.c ****     *   RX software buffer is enabled: The internal software buffer overflow
 494:Generated_Source\PSoC4/Uart_Mc_UART.c ****     *   is not treated as an error condition.
 495:Generated_Source\PSoC4/Uart_Mc_UART.c ****     *   Check Uart_Mc_rxBufferOverflow to capture that error condition.
 496:Generated_Source\PSoC4/Uart_Mc_UART.c ****     *
 497:Generated_Source\PSoC4/Uart_Mc_UART.c ****     *******************************************************************************/
 498:Generated_Source\PSoC4/Uart_Mc_UART.c ****     uint32 Uart_Mc_UartGetChar(void)
 499:Generated_Source\PSoC4/Uart_Mc_UART.c ****     {
 327              		.loc 1 499 0
 328              		.cfi_startproc
 329              		@ args = 0, pretend = 0, frame = 0
 330              		@ frame_needed = 0, uses_anonymous_args = 0
 331 0000 10B5     		push	{r4, lr}
 332              		.cfi_def_cfa_offset 8
 333              		.cfi_offset 4, -8
 334              		.cfi_offset 14, -4
 335              	.LVL13:
 500:Generated_Source\PSoC4/Uart_Mc_UART.c ****         uint32 rxData = 0u;
 501:Generated_Source\PSoC4/Uart_Mc_UART.c **** 
 502:Generated_Source\PSoC4/Uart_Mc_UART.c ****         /* Reads data only if there is data to read */
 503:Generated_Source\PSoC4/Uart_Mc_UART.c ****         if (0u != Uart_Mc_SpiUartGetRxBufferSize())
 336              		.loc 1 503 0
 337 0002 FFF7FEFF 		bl	Uart_Mc_SpiUartGetRxBufferSize
 338              	.LVL14:
 339 0006 0028     		cmp	r0, #0
 340 0008 02D0     		beq	.L19
 504:Generated_Source\PSoC4/Uart_Mc_UART.c ****         {
 505:Generated_Source\PSoC4/Uart_Mc_UART.c ****             rxData = Uart_Mc_SpiUartReadRxData();
 341              		.loc 1 505 0
 342 000a FFF7FEFF 		bl	Uart_Mc_SpiUartReadRxData
 343              	.LVL15:
 344 000e 00E0     		b	.L17
 345              	.LVL16:
 346              	.L19:
 500:Generated_Source\PSoC4/Uart_Mc_UART.c ****         uint32 rxData = 0u;
 347              		.loc 1 500 0
 348 0010 0020     		movs	r0, #0
 349              	.LVL17:
ARM GAS  C:\Users\doita\AppData\Local\Temp\cc3YV8hR.s 			page 16


 350              	.L17:
 506:Generated_Source\PSoC4/Uart_Mc_UART.c ****         }
 507:Generated_Source\PSoC4/Uart_Mc_UART.c **** 
 508:Generated_Source\PSoC4/Uart_Mc_UART.c ****         if (Uart_Mc_CHECK_INTR_RX(Uart_Mc_INTR_RX_ERR))
 351              		.loc 1 508 0
 352 0012 054B     		ldr	r3, .L20
 353 0014 1A68     		ldr	r2, [r3]
 354 0016 D823     		movs	r3, #216
 355 0018 9B00     		lsls	r3, r3, #2
 356 001a 1A42     		tst	r2, r3
 357 001c 03D0     		beq	.L18
 358              	.LVL18:
 509:Generated_Source\PSoC4/Uart_Mc_UART.c ****         {
 510:Generated_Source\PSoC4/Uart_Mc_UART.c ****             rxData = 0u; /* Error occurred: returns zero */
 511:Generated_Source\PSoC4/Uart_Mc_UART.c ****             Uart_Mc_ClearRxInterruptSource(Uart_Mc_INTR_RX_ERR);
 359              		.loc 1 511 0
 360 001e 1A00     		movs	r2, r3
 361 0020 014B     		ldr	r3, .L20
 362 0022 1A60     		str	r2, [r3]
 510:Generated_Source\PSoC4/Uart_Mc_UART.c ****             Uart_Mc_ClearRxInterruptSource(Uart_Mc_INTR_RX_ERR);
 363              		.loc 1 510 0
 364 0024 0020     		movs	r0, #0
 365              	.LVL19:
 366              	.L18:
 512:Generated_Source\PSoC4/Uart_Mc_UART.c ****         }
 513:Generated_Source\PSoC4/Uart_Mc_UART.c **** 
 514:Generated_Source\PSoC4/Uart_Mc_UART.c ****         return (rxData);
 515:Generated_Source\PSoC4/Uart_Mc_UART.c ****     }
 367              		.loc 1 515 0
 368              		@ sp needed
 369 0026 10BD     		pop	{r4, pc}
 370              	.L21:
 371              		.align	2
 372              	.L20:
 373 0028 C00F2740 		.word	1076301760
 374              		.cfi_endproc
 375              	.LFE6:
 376              		.size	Uart_Mc_UartGetChar, .-Uart_Mc_UartGetChar
 377              		.section	.text.Uart_Mc_UartGetByte,"ax",%progbits
 378              		.align	2
 379              		.global	Uart_Mc_UartGetByte
 380              		.code	16
 381              		.thumb_func
 382              		.type	Uart_Mc_UartGetByte, %function
 383              	Uart_Mc_UartGetByte:
 384              	.LFB7:
 516:Generated_Source\PSoC4/Uart_Mc_UART.c **** 
 517:Generated_Source\PSoC4/Uart_Mc_UART.c **** 
 518:Generated_Source\PSoC4/Uart_Mc_UART.c ****     /*******************************************************************************
 519:Generated_Source\PSoC4/Uart_Mc_UART.c ****     * Function Name: Uart_Mc_UartGetByte
 520:Generated_Source\PSoC4/Uart_Mc_UART.c ****     ****************************************************************************//**
 521:Generated_Source\PSoC4/Uart_Mc_UART.c ****     *
 522:Generated_Source\PSoC4/Uart_Mc_UART.c ****     *  Retrieves the next data element from the receive buffer, returns the
 523:Generated_Source\PSoC4/Uart_Mc_UART.c ****     *  received byte and error condition.
 524:Generated_Source\PSoC4/Uart_Mc_UART.c ****     *   - The RX software buffer is disabled: returns the data element retrieved
 525:Generated_Source\PSoC4/Uart_Mc_UART.c ****     *     from the RX FIFO. Undefined data will be returned if the RX FIFO is
 526:Generated_Source\PSoC4/Uart_Mc_UART.c ****     *     empty.
ARM GAS  C:\Users\doita\AppData\Local\Temp\cc3YV8hR.s 			page 17


 527:Generated_Source\PSoC4/Uart_Mc_UART.c ****     *   - The RX software buffer is enabled: returns data element from the
 528:Generated_Source\PSoC4/Uart_Mc_UART.c ****     *     software receive buffer.
 529:Generated_Source\PSoC4/Uart_Mc_UART.c ****     *
 530:Generated_Source\PSoC4/Uart_Mc_UART.c ****     *  \return
 531:Generated_Source\PSoC4/Uart_Mc_UART.c ****     *   Bits 7-0 contain the next data element from the receive buffer and
 532:Generated_Source\PSoC4/Uart_Mc_UART.c ****     *   other bits contain the error condition.
 533:Generated_Source\PSoC4/Uart_Mc_UART.c ****     *   - Uart_Mc_UART_RX_OVERFLOW - Attempt to write to a full
 534:Generated_Source\PSoC4/Uart_Mc_UART.c ****     *     receiver FIFO.
 535:Generated_Source\PSoC4/Uart_Mc_UART.c ****     *   - Uart_Mc_UART_RX_UNDERFLOW    Attempt to read from an empty
 536:Generated_Source\PSoC4/Uart_Mc_UART.c ****     *     receiver FIFO.
 537:Generated_Source\PSoC4/Uart_Mc_UART.c ****     *   - Uart_Mc_UART_RX_FRAME_ERROR - UART framing error detected.
 538:Generated_Source\PSoC4/Uart_Mc_UART.c ****     *   - Uart_Mc_UART_RX_PARITY_ERROR - UART parity error detected.
 539:Generated_Source\PSoC4/Uart_Mc_UART.c ****     *
 540:Generated_Source\PSoC4/Uart_Mc_UART.c ****     *  \sideeffect
 541:Generated_Source\PSoC4/Uart_Mc_UART.c ****     *   The errors bits may not correspond with reading characters due to
 542:Generated_Source\PSoC4/Uart_Mc_UART.c ****     *   RX FIFO and software buffer usage.
 543:Generated_Source\PSoC4/Uart_Mc_UART.c ****     *   RX software buffer is enabled: The internal software buffer overflow
 544:Generated_Source\PSoC4/Uart_Mc_UART.c ****     *   is not treated as an error condition.
 545:Generated_Source\PSoC4/Uart_Mc_UART.c ****     *   Check Uart_Mc_rxBufferOverflow to capture that error condition.
 546:Generated_Source\PSoC4/Uart_Mc_UART.c ****     *
 547:Generated_Source\PSoC4/Uart_Mc_UART.c ****     *******************************************************************************/
 548:Generated_Source\PSoC4/Uart_Mc_UART.c ****     uint32 Uart_Mc_UartGetByte(void)
 549:Generated_Source\PSoC4/Uart_Mc_UART.c ****     {
 385              		.loc 1 549 0
 386              		.cfi_startproc
 387              		@ args = 0, pretend = 0, frame = 0
 388              		@ frame_needed = 0, uses_anonymous_args = 0
 389 0000 10B5     		push	{r4, lr}
 390              		.cfi_def_cfa_offset 8
 391              		.cfi_offset 4, -8
 392              		.cfi_offset 14, -4
 550:Generated_Source\PSoC4/Uart_Mc_UART.c ****         uint32 rxData;
 551:Generated_Source\PSoC4/Uart_Mc_UART.c ****         uint32 tmpStatus;
 552:Generated_Source\PSoC4/Uart_Mc_UART.c **** 
 553:Generated_Source\PSoC4/Uart_Mc_UART.c ****         #if (Uart_Mc_CHECK_RX_SW_BUFFER)
 554:Generated_Source\PSoC4/Uart_Mc_UART.c ****         {
 555:Generated_Source\PSoC4/Uart_Mc_UART.c ****             Uart_Mc_DisableInt();
 393              		.loc 1 555 0
 394 0002 0A20     		movs	r0, #10
 395 0004 FFF7FEFF 		bl	CyIntDisable
 396              	.LVL20:
 556:Generated_Source\PSoC4/Uart_Mc_UART.c ****         }
 557:Generated_Source\PSoC4/Uart_Mc_UART.c ****         #endif
 558:Generated_Source\PSoC4/Uart_Mc_UART.c **** 
 559:Generated_Source\PSoC4/Uart_Mc_UART.c ****         if (0u != Uart_Mc_SpiUartGetRxBufferSize())
 397              		.loc 1 559 0
 398 0008 FFF7FEFF 		bl	Uart_Mc_SpiUartGetRxBufferSize
 399              	.LVL21:
 400 000c 0028     		cmp	r0, #0
 401 000e 06D0     		beq	.L23
 560:Generated_Source\PSoC4/Uart_Mc_UART.c ****         {
 561:Generated_Source\PSoC4/Uart_Mc_UART.c ****             /* Enables interrupt to receive more bytes: at least one byte is in
 562:Generated_Source\PSoC4/Uart_Mc_UART.c ****             * buffer.
 563:Generated_Source\PSoC4/Uart_Mc_UART.c ****             */
 564:Generated_Source\PSoC4/Uart_Mc_UART.c ****             #if (Uart_Mc_CHECK_RX_SW_BUFFER)
 565:Generated_Source\PSoC4/Uart_Mc_UART.c ****             {
 566:Generated_Source\PSoC4/Uart_Mc_UART.c ****                 Uart_Mc_EnableInt();
ARM GAS  C:\Users\doita\AppData\Local\Temp\cc3YV8hR.s 			page 18


 402              		.loc 1 566 0
 403 0010 0A20     		movs	r0, #10
 404 0012 FFF7FEFF 		bl	CyIntEnable
 405              	.LVL22:
 567:Generated_Source\PSoC4/Uart_Mc_UART.c ****             }
 568:Generated_Source\PSoC4/Uart_Mc_UART.c ****             #endif
 569:Generated_Source\PSoC4/Uart_Mc_UART.c **** 
 570:Generated_Source\PSoC4/Uart_Mc_UART.c ****             /* Get received byte */
 571:Generated_Source\PSoC4/Uart_Mc_UART.c ****             rxData = Uart_Mc_SpiUartReadRxData();
 406              		.loc 1 571 0
 407 0016 FFF7FEFF 		bl	Uart_Mc_SpiUartReadRxData
 408              	.LVL23:
 409 001a 0400     		movs	r4, r0
 410              	.LVL24:
 411 001c 07E0     		b	.L24
 412              	.LVL25:
 413              	.L23:
 572:Generated_Source\PSoC4/Uart_Mc_UART.c ****         }
 573:Generated_Source\PSoC4/Uart_Mc_UART.c ****         else
 574:Generated_Source\PSoC4/Uart_Mc_UART.c ****         {
 575:Generated_Source\PSoC4/Uart_Mc_UART.c ****             /* Reads a byte directly from RX FIFO: underflow is raised in the
 576:Generated_Source\PSoC4/Uart_Mc_UART.c ****             * case of empty. Otherwise the first received byte will be read.
 577:Generated_Source\PSoC4/Uart_Mc_UART.c ****             */
 578:Generated_Source\PSoC4/Uart_Mc_UART.c ****             rxData = Uart_Mc_RX_FIFO_RD_REG;
 414              		.loc 1 578 0
 415 001e 094B     		ldr	r3, .L25
 416 0020 1C68     		ldr	r4, [r3]
 417              	.LVL26:
 579:Generated_Source\PSoC4/Uart_Mc_UART.c **** 
 580:Generated_Source\PSoC4/Uart_Mc_UART.c **** 
 581:Generated_Source\PSoC4/Uart_Mc_UART.c ****             /* Enables interrupt to receive more bytes. */
 582:Generated_Source\PSoC4/Uart_Mc_UART.c ****             #if (Uart_Mc_CHECK_RX_SW_BUFFER)
 583:Generated_Source\PSoC4/Uart_Mc_UART.c ****             {
 584:Generated_Source\PSoC4/Uart_Mc_UART.c **** 
 585:Generated_Source\PSoC4/Uart_Mc_UART.c ****                 /* The byte has been read from RX FIFO. Clear RX interrupt to
 586:Generated_Source\PSoC4/Uart_Mc_UART.c ****                 * not involve interrupt handler when RX FIFO is empty.
 587:Generated_Source\PSoC4/Uart_Mc_UART.c ****                 */
 588:Generated_Source\PSoC4/Uart_Mc_UART.c ****                 Uart_Mc_ClearRxInterruptSource(Uart_Mc_INTR_RX_NOT_EMPTY);
 418              		.loc 1 588 0
 419 0022 0422     		movs	r2, #4
 420 0024 084B     		ldr	r3, .L25+4
 421 0026 1A60     		str	r2, [r3]
 589:Generated_Source\PSoC4/Uart_Mc_UART.c **** 
 590:Generated_Source\PSoC4/Uart_Mc_UART.c ****                 Uart_Mc_EnableInt();
 422              		.loc 1 590 0
 423 0028 0A20     		movs	r0, #10
 424 002a FFF7FEFF 		bl	CyIntEnable
 425              	.LVL27:
 426              	.L24:
 591:Generated_Source\PSoC4/Uart_Mc_UART.c ****             }
 592:Generated_Source\PSoC4/Uart_Mc_UART.c ****             #endif
 593:Generated_Source\PSoC4/Uart_Mc_UART.c ****         }
 594:Generated_Source\PSoC4/Uart_Mc_UART.c **** 
 595:Generated_Source\PSoC4/Uart_Mc_UART.c ****         /* Get and clear RX error mask */
 596:Generated_Source\PSoC4/Uart_Mc_UART.c ****         tmpStatus = (Uart_Mc_GetRxInterruptSource() & Uart_Mc_INTR_RX_ERR);
 427              		.loc 1 596 0
 428 002e 064B     		ldr	r3, .L25+4
ARM GAS  C:\Users\doita\AppData\Local\Temp\cc3YV8hR.s 			page 19


 429 0030 1868     		ldr	r0, [r3]
 430              	.LVL28:
 597:Generated_Source\PSoC4/Uart_Mc_UART.c ****         Uart_Mc_ClearRxInterruptSource(Uart_Mc_INTR_RX_ERR);
 431              		.loc 1 597 0
 432 0032 D822     		movs	r2, #216
 433 0034 9200     		lsls	r2, r2, #2
 434 0036 1A60     		str	r2, [r3]
 598:Generated_Source\PSoC4/Uart_Mc_UART.c **** 
 599:Generated_Source\PSoC4/Uart_Mc_UART.c ****         /* Puts together data and error status:
 600:Generated_Source\PSoC4/Uart_Mc_UART.c ****         * MP mode and accept address: 9th bit is set to notify mark.
 601:Generated_Source\PSoC4/Uart_Mc_UART.c ****         */
 602:Generated_Source\PSoC4/Uart_Mc_UART.c ****         rxData |= ((uint32) (tmpStatus << 8u));
 435              		.loc 1 602 0
 436 0038 0002     		lsls	r0, r0, #8
 437              	.LVL29:
 438 003a D823     		movs	r3, #216
 439 003c 9B02     		lsls	r3, r3, #10
 440 003e 1840     		ands	r0, r3
 441 0040 2043     		orrs	r0, r4
 442              	.LVL30:
 603:Generated_Source\PSoC4/Uart_Mc_UART.c **** 
 604:Generated_Source\PSoC4/Uart_Mc_UART.c ****         return (rxData);
 605:Generated_Source\PSoC4/Uart_Mc_UART.c ****     }
 443              		.loc 1 605 0
 444              		@ sp needed
 445 0042 10BD     		pop	{r4, pc}
 446              	.L26:
 447              		.align	2
 448              	.L25:
 449 0044 40032740 		.word	1076298560
 450 0048 C00F2740 		.word	1076301760
 451              		.cfi_endproc
 452              	.LFE7:
 453              		.size	Uart_Mc_UartGetByte, .-Uart_Mc_UartGetByte
 454              		.section	.text.Uart_Mc_UartSetRtsPolarity,"ax",%progbits
 455              		.align	2
 456              		.global	Uart_Mc_UartSetRtsPolarity
 457              		.code	16
 458              		.thumb_func
 459              		.type	Uart_Mc_UartSetRtsPolarity, %function
 460              	Uart_Mc_UartSetRtsPolarity:
 461              	.LFB8:
 606:Generated_Source\PSoC4/Uart_Mc_UART.c **** 
 607:Generated_Source\PSoC4/Uart_Mc_UART.c **** 
 608:Generated_Source\PSoC4/Uart_Mc_UART.c ****     #if !(Uart_Mc_CY_SCBIP_V0 || Uart_Mc_CY_SCBIP_V1)
 609:Generated_Source\PSoC4/Uart_Mc_UART.c ****         /*******************************************************************************
 610:Generated_Source\PSoC4/Uart_Mc_UART.c ****         * Function Name: Uart_Mc_UartSetRtsPolarity
 611:Generated_Source\PSoC4/Uart_Mc_UART.c ****         ****************************************************************************//**
 612:Generated_Source\PSoC4/Uart_Mc_UART.c ****         *
 613:Generated_Source\PSoC4/Uart_Mc_UART.c ****         *  Sets active polarity of RTS output signal.
 614:Generated_Source\PSoC4/Uart_Mc_UART.c ****         *  Only available for PSoC 4100 BLE / PSoC 4200 BLE / PSoC 4100M / PSoC 4200M /
 615:Generated_Source\PSoC4/Uart_Mc_UART.c ****         *  PSoC 4200L / PSoC 4000S / PSoC 4100S / PSoC Analog Coprocessor devices.
 616:Generated_Source\PSoC4/Uart_Mc_UART.c ****         *
 617:Generated_Source\PSoC4/Uart_Mc_UART.c ****         *  \param polarity: Active polarity of RTS output signal.
 618:Generated_Source\PSoC4/Uart_Mc_UART.c ****         *   - Uart_Mc_UART_RTS_ACTIVE_LOW  - RTS signal is active low.
 619:Generated_Source\PSoC4/Uart_Mc_UART.c ****         *   - Uart_Mc_UART_RTS_ACTIVE_HIGH - RTS signal is active high.
 620:Generated_Source\PSoC4/Uart_Mc_UART.c ****         *
ARM GAS  C:\Users\doita\AppData\Local\Temp\cc3YV8hR.s 			page 20


 621:Generated_Source\PSoC4/Uart_Mc_UART.c ****         *******************************************************************************/
 622:Generated_Source\PSoC4/Uart_Mc_UART.c ****         void Uart_Mc_UartSetRtsPolarity(uint32 polarity)
 623:Generated_Source\PSoC4/Uart_Mc_UART.c ****         {
 462              		.loc 1 623 0
 463              		.cfi_startproc
 464              		@ args = 0, pretend = 0, frame = 0
 465              		@ frame_needed = 0, uses_anonymous_args = 0
 466              		@ link register save eliminated.
 467              	.LVL31:
 624:Generated_Source\PSoC4/Uart_Mc_UART.c ****             if(0u != polarity)
 468              		.loc 1 624 0
 469 0000 0028     		cmp	r0, #0
 470 0002 06D0     		beq	.L28
 625:Generated_Source\PSoC4/Uart_Mc_UART.c ****             {
 626:Generated_Source\PSoC4/Uart_Mc_UART.c ****                 Uart_Mc_UART_FLOW_CTRL_REG |= (uint32)  Uart_Mc_UART_FLOW_CTRL_RTS_POLARITY;
 471              		.loc 1 626 0
 472 0004 064A     		ldr	r2, .L30
 473 0006 1368     		ldr	r3, [r2]
 474 0008 8021     		movs	r1, #128
 475 000a 4902     		lsls	r1, r1, #9
 476 000c 0B43     		orrs	r3, r1
 477 000e 1360     		str	r3, [r2]
 478 0010 04E0     		b	.L27
 479              	.L28:
 627:Generated_Source\PSoC4/Uart_Mc_UART.c ****             }
 628:Generated_Source\PSoC4/Uart_Mc_UART.c ****             else
 629:Generated_Source\PSoC4/Uart_Mc_UART.c ****             {
 630:Generated_Source\PSoC4/Uart_Mc_UART.c ****                 Uart_Mc_UART_FLOW_CTRL_REG &= (uint32) ~Uart_Mc_UART_FLOW_CTRL_RTS_POLARITY;
 480              		.loc 1 630 0
 481 0012 034A     		ldr	r2, .L30
 482 0014 1168     		ldr	r1, [r2]
 483 0016 034B     		ldr	r3, .L30+4
 484 0018 0B40     		ands	r3, r1
 485 001a 1360     		str	r3, [r2]
 486              	.L27:
 631:Generated_Source\PSoC4/Uart_Mc_UART.c ****             }
 632:Generated_Source\PSoC4/Uart_Mc_UART.c ****         }
 487              		.loc 1 632 0
 488              		@ sp needed
 489 001c 7047     		bx	lr
 490              	.L31:
 491 001e C046     		.align	2
 492              	.L30:
 493 0020 50002740 		.word	1076297808
 494 0024 FFFFFEFF 		.word	-65537
 495              		.cfi_endproc
 496              	.LFE8:
 497              		.size	Uart_Mc_UartSetRtsPolarity, .-Uart_Mc_UartSetRtsPolarity
 498              		.section	.text.Uart_Mc_UartSetRtsFifoLevel,"ax",%progbits
 499              		.align	2
 500              		.global	Uart_Mc_UartSetRtsFifoLevel
 501              		.code	16
 502              		.thumb_func
 503              		.type	Uart_Mc_UartSetRtsFifoLevel, %function
 504              	Uart_Mc_UartSetRtsFifoLevel:
 505              	.LFB9:
 633:Generated_Source\PSoC4/Uart_Mc_UART.c **** 
ARM GAS  C:\Users\doita\AppData\Local\Temp\cc3YV8hR.s 			page 21


 634:Generated_Source\PSoC4/Uart_Mc_UART.c **** 
 635:Generated_Source\PSoC4/Uart_Mc_UART.c ****         /*******************************************************************************
 636:Generated_Source\PSoC4/Uart_Mc_UART.c ****         * Function Name: Uart_Mc_UartSetRtsFifoLevel
 637:Generated_Source\PSoC4/Uart_Mc_UART.c ****         ****************************************************************************//**
 638:Generated_Source\PSoC4/Uart_Mc_UART.c ****         *
 639:Generated_Source\PSoC4/Uart_Mc_UART.c ****         *  Sets level in the RX FIFO for RTS signal activation.
 640:Generated_Source\PSoC4/Uart_Mc_UART.c ****         *  While the RX FIFO has fewer entries than the RX FIFO level the RTS signal
 641:Generated_Source\PSoC4/Uart_Mc_UART.c ****         *  remains active, otherwise the RTS signal becomes inactive.
 642:Generated_Source\PSoC4/Uart_Mc_UART.c ****         *  Only available for PSoC 4100 BLE / PSoC 4200 BLE / PSoC 4100M / PSoC 4200M /
 643:Generated_Source\PSoC4/Uart_Mc_UART.c ****         *  PSoC 4200L / PSoC 4000S / PSoC 4100S / PSoC Analog Coprocessor devices.
 644:Generated_Source\PSoC4/Uart_Mc_UART.c ****         *
 645:Generated_Source\PSoC4/Uart_Mc_UART.c ****         *  \param level: Level in the RX FIFO for RTS signal activation.
 646:Generated_Source\PSoC4/Uart_Mc_UART.c ****         *   The range of valid level values is between 0 and RX FIFO depth - 1.
 647:Generated_Source\PSoC4/Uart_Mc_UART.c ****         *   Setting level value to 0 disables RTS signal activation.
 648:Generated_Source\PSoC4/Uart_Mc_UART.c ****         *
 649:Generated_Source\PSoC4/Uart_Mc_UART.c ****         *******************************************************************************/
 650:Generated_Source\PSoC4/Uart_Mc_UART.c ****         void Uart_Mc_UartSetRtsFifoLevel(uint32 level)
 651:Generated_Source\PSoC4/Uart_Mc_UART.c ****         {
 506              		.loc 1 651 0
 507              		.cfi_startproc
 508              		@ args = 0, pretend = 0, frame = 0
 509              		@ frame_needed = 0, uses_anonymous_args = 0
 510              		@ link register save eliminated.
 511              	.LVL32:
 652:Generated_Source\PSoC4/Uart_Mc_UART.c ****             uint32 uartFlowCtrl;
 653:Generated_Source\PSoC4/Uart_Mc_UART.c **** 
 654:Generated_Source\PSoC4/Uart_Mc_UART.c ****             uartFlowCtrl = Uart_Mc_UART_FLOW_CTRL_REG;
 512              		.loc 1 654 0
 513 0000 034A     		ldr	r2, .L33
 514 0002 1368     		ldr	r3, [r2]
 515              	.LVL33:
 655:Generated_Source\PSoC4/Uart_Mc_UART.c **** 
 656:Generated_Source\PSoC4/Uart_Mc_UART.c ****             uartFlowCtrl &= ((uint32) ~Uart_Mc_UART_FLOW_CTRL_TRIGGER_LEVEL_MASK); /* Clear level m
 516              		.loc 1 656 0
 517 0004 0F21     		movs	r1, #15
 518 0006 8B43     		bics	r3, r1
 519              	.LVL34:
 657:Generated_Source\PSoC4/Uart_Mc_UART.c ****             uartFlowCtrl |= ((uint32) (Uart_Mc_UART_FLOW_CTRL_TRIGGER_LEVEL_MASK & level));
 520              		.loc 1 657 0
 521 0008 0840     		ands	r0, r1
 522              	.LVL35:
 523 000a 1843     		orrs	r0, r3
 524              	.LVL36:
 658:Generated_Source\PSoC4/Uart_Mc_UART.c **** 
 659:Generated_Source\PSoC4/Uart_Mc_UART.c ****             Uart_Mc_UART_FLOW_CTRL_REG = uartFlowCtrl;
 525              		.loc 1 659 0
 526 000c 1060     		str	r0, [r2]
 660:Generated_Source\PSoC4/Uart_Mc_UART.c ****         }
 527              		.loc 1 660 0
 528              		@ sp needed
 529 000e 7047     		bx	lr
 530              	.L34:
 531              		.align	2
 532              	.L33:
 533 0010 50002740 		.word	1076297808
 534              		.cfi_endproc
 535              	.LFE9:
ARM GAS  C:\Users\doita\AppData\Local\Temp\cc3YV8hR.s 			page 22


 536              		.size	Uart_Mc_UartSetRtsFifoLevel, .-Uart_Mc_UartSetRtsFifoLevel
 537              		.section	.text.Uart_Mc_UartPutString,"ax",%progbits
 538              		.align	2
 539              		.global	Uart_Mc_UartPutString
 540              		.code	16
 541              		.thumb_func
 542              		.type	Uart_Mc_UartPutString, %function
 543              	Uart_Mc_UartPutString:
 544              	.LFB10:
 661:Generated_Source\PSoC4/Uart_Mc_UART.c ****     #endif /* !(Uart_Mc_CY_SCBIP_V0 || Uart_Mc_CY_SCBIP_V1) */
 662:Generated_Source\PSoC4/Uart_Mc_UART.c **** 
 663:Generated_Source\PSoC4/Uart_Mc_UART.c **** #endif /* (Uart_Mc_UART_RX_DIRECTION) */
 664:Generated_Source\PSoC4/Uart_Mc_UART.c **** 
 665:Generated_Source\PSoC4/Uart_Mc_UART.c **** 
 666:Generated_Source\PSoC4/Uart_Mc_UART.c **** #if(Uart_Mc_UART_TX_DIRECTION)
 667:Generated_Source\PSoC4/Uart_Mc_UART.c ****     /*******************************************************************************
 668:Generated_Source\PSoC4/Uart_Mc_UART.c ****     * Function Name: Uart_Mc_UartPutString
 669:Generated_Source\PSoC4/Uart_Mc_UART.c ****     ****************************************************************************//**
 670:Generated_Source\PSoC4/Uart_Mc_UART.c ****     *
 671:Generated_Source\PSoC4/Uart_Mc_UART.c ****     *  Places a NULL terminated string in the transmit buffer to be sent at the
 672:Generated_Source\PSoC4/Uart_Mc_UART.c ****     *  next available bus time.
 673:Generated_Source\PSoC4/Uart_Mc_UART.c ****     *  This function is blocking and waits until there is a space available to put
 674:Generated_Source\PSoC4/Uart_Mc_UART.c ****     *  requested data in transmit buffer.
 675:Generated_Source\PSoC4/Uart_Mc_UART.c ****     *
 676:Generated_Source\PSoC4/Uart_Mc_UART.c ****     *  \param string: pointer to the null terminated string array to be placed in the
 677:Generated_Source\PSoC4/Uart_Mc_UART.c ****     *   transmit buffer.
 678:Generated_Source\PSoC4/Uart_Mc_UART.c ****     *
 679:Generated_Source\PSoC4/Uart_Mc_UART.c ****     *******************************************************************************/
 680:Generated_Source\PSoC4/Uart_Mc_UART.c ****     void Uart_Mc_UartPutString(const char8 string[])
 681:Generated_Source\PSoC4/Uart_Mc_UART.c ****     {
 545              		.loc 1 681 0
 546              		.cfi_startproc
 547              		@ args = 0, pretend = 0, frame = 0
 548              		@ frame_needed = 0, uses_anonymous_args = 0
 549              	.LVL37:
 550 0000 70B5     		push	{r4, r5, r6, lr}
 551              		.cfi_def_cfa_offset 16
 552              		.cfi_offset 4, -16
 553              		.cfi_offset 5, -12
 554              		.cfi_offset 6, -8
 555              		.cfi_offset 14, -4
 556 0002 0500     		movs	r5, r0
 557              	.LVL38:
 682:Generated_Source\PSoC4/Uart_Mc_UART.c ****         uint32 bufIndex;
 683:Generated_Source\PSoC4/Uart_Mc_UART.c **** 
 684:Generated_Source\PSoC4/Uart_Mc_UART.c ****         bufIndex = 0u;
 558              		.loc 1 684 0
 559 0004 0024     		movs	r4, #0
 685:Generated_Source\PSoC4/Uart_Mc_UART.c **** 
 686:Generated_Source\PSoC4/Uart_Mc_UART.c ****         /* Blocks the control flow until all data has been sent */
 687:Generated_Source\PSoC4/Uart_Mc_UART.c ****         while(string[bufIndex] != ((char8) 0))
 560              		.loc 1 687 0
 561 0006 02E0     		b	.L36
 562              	.LVL39:
 563              	.L37:
 688:Generated_Source\PSoC4/Uart_Mc_UART.c ****         {
 689:Generated_Source\PSoC4/Uart_Mc_UART.c ****             Uart_Mc_UartPutChar((uint32) string[bufIndex]);
ARM GAS  C:\Users\doita\AppData\Local\Temp\cc3YV8hR.s 			page 23


 564              		.loc 1 689 0
 565 0008 FFF7FEFF 		bl	Uart_Mc_SpiUartWriteTxData
 566              	.LVL40:
 690:Generated_Source\PSoC4/Uart_Mc_UART.c ****             bufIndex++;
 567              		.loc 1 690 0
 568 000c 0134     		adds	r4, r4, #1
 569              	.LVL41:
 570              	.L36:
 687:Generated_Source\PSoC4/Uart_Mc_UART.c ****         {
 571              		.loc 1 687 0
 572 000e 285D     		ldrb	r0, [r5, r4]
 573 0010 0028     		cmp	r0, #0
 574 0012 F9D1     		bne	.L37
 691:Generated_Source\PSoC4/Uart_Mc_UART.c ****         }
 692:Generated_Source\PSoC4/Uart_Mc_UART.c ****     }
 575              		.loc 1 692 0
 576              		@ sp needed
 577              	.LVL42:
 578              	.LVL43:
 579 0014 70BD     		pop	{r4, r5, r6, pc}
 580              		.cfi_endproc
 581              	.LFE10:
 582              		.size	Uart_Mc_UartPutString, .-Uart_Mc_UartPutString
 583 0016 C046     		.section	.text.Uart_Mc_UartPutCRLF,"ax",%progbits
 584              		.align	2
 585              		.global	Uart_Mc_UartPutCRLF
 586              		.code	16
 587              		.thumb_func
 588              		.type	Uart_Mc_UartPutCRLF, %function
 589              	Uart_Mc_UartPutCRLF:
 590              	.LFB11:
 693:Generated_Source\PSoC4/Uart_Mc_UART.c **** 
 694:Generated_Source\PSoC4/Uart_Mc_UART.c **** 
 695:Generated_Source\PSoC4/Uart_Mc_UART.c ****     /*******************************************************************************
 696:Generated_Source\PSoC4/Uart_Mc_UART.c ****     * Function Name: Uart_Mc_UartPutCRLF
 697:Generated_Source\PSoC4/Uart_Mc_UART.c ****     ****************************************************************************//**
 698:Generated_Source\PSoC4/Uart_Mc_UART.c ****     *
 699:Generated_Source\PSoC4/Uart_Mc_UART.c ****     *  Places byte of data followed by a carriage return (0x0D) and line feed
 700:Generated_Source\PSoC4/Uart_Mc_UART.c ****     *  (0x0A) in the transmit buffer.
 701:Generated_Source\PSoC4/Uart_Mc_UART.c ****     *  This function is blocking and waits until there is a space available to put
 702:Generated_Source\PSoC4/Uart_Mc_UART.c ****     *  all requested data in transmit buffer.
 703:Generated_Source\PSoC4/Uart_Mc_UART.c ****     *
 704:Generated_Source\PSoC4/Uart_Mc_UART.c ****     *  \param txDataByte: the data to be transmitted.
 705:Generated_Source\PSoC4/Uart_Mc_UART.c ****     *
 706:Generated_Source\PSoC4/Uart_Mc_UART.c ****     *******************************************************************************/
 707:Generated_Source\PSoC4/Uart_Mc_UART.c ****     void Uart_Mc_UartPutCRLF(uint32 txDataByte)
 708:Generated_Source\PSoC4/Uart_Mc_UART.c ****     {
 591              		.loc 1 708 0
 592              		.cfi_startproc
 593              		@ args = 0, pretend = 0, frame = 0
 594              		@ frame_needed = 0, uses_anonymous_args = 0
 595              	.LVL44:
 596 0000 10B5     		push	{r4, lr}
 597              		.cfi_def_cfa_offset 8
 598              		.cfi_offset 4, -8
 599              		.cfi_offset 14, -4
 709:Generated_Source\PSoC4/Uart_Mc_UART.c ****         Uart_Mc_UartPutChar(txDataByte);  /* Blocks control flow until all data has been sent */
ARM GAS  C:\Users\doita\AppData\Local\Temp\cc3YV8hR.s 			page 24


 600              		.loc 1 709 0
 601 0002 FFF7FEFF 		bl	Uart_Mc_SpiUartWriteTxData
 602              	.LVL45:
 710:Generated_Source\PSoC4/Uart_Mc_UART.c ****         Uart_Mc_UartPutChar(0x0Du);       /* Blocks control flow until all data has been sent */
 603              		.loc 1 710 0
 604 0006 0D20     		movs	r0, #13
 605 0008 FFF7FEFF 		bl	Uart_Mc_SpiUartWriteTxData
 606              	.LVL46:
 711:Generated_Source\PSoC4/Uart_Mc_UART.c ****         Uart_Mc_UartPutChar(0x0Au);       /* Blocks control flow until all data has been sent */
 607              		.loc 1 711 0
 608 000c 0A20     		movs	r0, #10
 609 000e FFF7FEFF 		bl	Uart_Mc_SpiUartWriteTxData
 610              	.LVL47:
 712:Generated_Source\PSoC4/Uart_Mc_UART.c ****     }
 611              		.loc 1 712 0
 612              		@ sp needed
 613 0012 10BD     		pop	{r4, pc}
 614              		.cfi_endproc
 615              	.LFE11:
 616              		.size	Uart_Mc_UartPutCRLF, .-Uart_Mc_UartPutCRLF
 617              		.section	.text.Uart_Mc_UartEnableCts,"ax",%progbits
 618              		.align	2
 619              		.global	Uart_Mc_UartEnableCts
 620              		.code	16
 621              		.thumb_func
 622              		.type	Uart_Mc_UartEnableCts, %function
 623              	Uart_Mc_UartEnableCts:
 624              	.LFB12:
 713:Generated_Source\PSoC4/Uart_Mc_UART.c **** 
 714:Generated_Source\PSoC4/Uart_Mc_UART.c **** 
 715:Generated_Source\PSoC4/Uart_Mc_UART.c ****     #if !(Uart_Mc_CY_SCBIP_V0 || Uart_Mc_CY_SCBIP_V1)
 716:Generated_Source\PSoC4/Uart_Mc_UART.c ****         /*******************************************************************************
 717:Generated_Source\PSoC4/Uart_Mc_UART.c ****         * Function Name: Uart_McSCB_UartEnableCts
 718:Generated_Source\PSoC4/Uart_Mc_UART.c ****         ****************************************************************************//**
 719:Generated_Source\PSoC4/Uart_Mc_UART.c ****         *
 720:Generated_Source\PSoC4/Uart_Mc_UART.c ****         *  Enables usage of CTS input signal by the UART transmitter.
 721:Generated_Source\PSoC4/Uart_Mc_UART.c ****         *  Only available for PSoC 4100 BLE / PSoC 4200 BLE / PSoC 4100M / PSoC 4200M /
 722:Generated_Source\PSoC4/Uart_Mc_UART.c ****         *  PSoC 4200L / PSoC 4000S / PSoC 4100S / PSoC Analog Coprocessor devices.
 723:Generated_Source\PSoC4/Uart_Mc_UART.c ****         *
 724:Generated_Source\PSoC4/Uart_Mc_UART.c ****         *******************************************************************************/
 725:Generated_Source\PSoC4/Uart_Mc_UART.c ****         void Uart_Mc_UartEnableCts(void)
 726:Generated_Source\PSoC4/Uart_Mc_UART.c ****         {
 625              		.loc 1 726 0
 626              		.cfi_startproc
 627              		@ args = 0, pretend = 0, frame = 0
 628              		@ frame_needed = 0, uses_anonymous_args = 0
 629              		@ link register save eliminated.
 727:Generated_Source\PSoC4/Uart_Mc_UART.c ****             Uart_Mc_UART_FLOW_CTRL_REG |= (uint32)  Uart_Mc_UART_FLOW_CTRL_CTS_ENABLE;
 630              		.loc 1 727 0
 631 0000 034A     		ldr	r2, .L40
 632 0002 1368     		ldr	r3, [r2]
 633 0004 8021     		movs	r1, #128
 634 0006 8904     		lsls	r1, r1, #18
 635 0008 0B43     		orrs	r3, r1
 636 000a 1360     		str	r3, [r2]
 728:Generated_Source\PSoC4/Uart_Mc_UART.c ****         }
 637              		.loc 1 728 0
ARM GAS  C:\Users\doita\AppData\Local\Temp\cc3YV8hR.s 			page 25


 638              		@ sp needed
 639 000c 7047     		bx	lr
 640              	.L41:
 641 000e C046     		.align	2
 642              	.L40:
 643 0010 50002740 		.word	1076297808
 644              		.cfi_endproc
 645              	.LFE12:
 646              		.size	Uart_Mc_UartEnableCts, .-Uart_Mc_UartEnableCts
 647              		.section	.text.Uart_Mc_UartDisableCts,"ax",%progbits
 648              		.align	2
 649              		.global	Uart_Mc_UartDisableCts
 650              		.code	16
 651              		.thumb_func
 652              		.type	Uart_Mc_UartDisableCts, %function
 653              	Uart_Mc_UartDisableCts:
 654              	.LFB13:
 729:Generated_Source\PSoC4/Uart_Mc_UART.c **** 
 730:Generated_Source\PSoC4/Uart_Mc_UART.c **** 
 731:Generated_Source\PSoC4/Uart_Mc_UART.c ****         /*******************************************************************************
 732:Generated_Source\PSoC4/Uart_Mc_UART.c ****         * Function Name: Uart_Mc_UartDisableCts
 733:Generated_Source\PSoC4/Uart_Mc_UART.c ****         ****************************************************************************//**
 734:Generated_Source\PSoC4/Uart_Mc_UART.c ****         *
 735:Generated_Source\PSoC4/Uart_Mc_UART.c ****         *  Disables usage of CTS input signal by the UART transmitter.
 736:Generated_Source\PSoC4/Uart_Mc_UART.c ****         *  Only available for PSoC 4100 BLE / PSoC 4200 BLE / PSoC 4100M / PSoC 4200M /
 737:Generated_Source\PSoC4/Uart_Mc_UART.c ****         *  PSoC 4200L / PSoC 4000S / PSoC 4100S / PSoC Analog Coprocessor devices.
 738:Generated_Source\PSoC4/Uart_Mc_UART.c ****         *
 739:Generated_Source\PSoC4/Uart_Mc_UART.c ****         *******************************************************************************/
 740:Generated_Source\PSoC4/Uart_Mc_UART.c ****         void Uart_Mc_UartDisableCts(void)
 741:Generated_Source\PSoC4/Uart_Mc_UART.c ****         {
 655              		.loc 1 741 0
 656              		.cfi_startproc
 657              		@ args = 0, pretend = 0, frame = 0
 658              		@ frame_needed = 0, uses_anonymous_args = 0
 659              		@ link register save eliminated.
 742:Generated_Source\PSoC4/Uart_Mc_UART.c ****             Uart_Mc_UART_FLOW_CTRL_REG &= (uint32) ~Uart_Mc_UART_FLOW_CTRL_CTS_ENABLE;
 660              		.loc 1 742 0
 661 0000 024A     		ldr	r2, .L43
 662 0002 1168     		ldr	r1, [r2]
 663 0004 024B     		ldr	r3, .L43+4
 664 0006 0B40     		ands	r3, r1
 665 0008 1360     		str	r3, [r2]
 743:Generated_Source\PSoC4/Uart_Mc_UART.c ****         }
 666              		.loc 1 743 0
 667              		@ sp needed
 668 000a 7047     		bx	lr
 669              	.L44:
 670              		.align	2
 671              	.L43:
 672 000c 50002740 		.word	1076297808
 673 0010 FFFFFFFD 		.word	-33554433
 674              		.cfi_endproc
 675              	.LFE13:
 676              		.size	Uart_Mc_UartDisableCts, .-Uart_Mc_UartDisableCts
 677              		.section	.text.Uart_Mc_UartSetCtsPolarity,"ax",%progbits
 678              		.align	2
 679              		.global	Uart_Mc_UartSetCtsPolarity
ARM GAS  C:\Users\doita\AppData\Local\Temp\cc3YV8hR.s 			page 26


 680              		.code	16
 681              		.thumb_func
 682              		.type	Uart_Mc_UartSetCtsPolarity, %function
 683              	Uart_Mc_UartSetCtsPolarity:
 684              	.LFB14:
 744:Generated_Source\PSoC4/Uart_Mc_UART.c **** 
 745:Generated_Source\PSoC4/Uart_Mc_UART.c **** 
 746:Generated_Source\PSoC4/Uart_Mc_UART.c ****         /*******************************************************************************
 747:Generated_Source\PSoC4/Uart_Mc_UART.c ****         * Function Name: Uart_Mc_UartSetCtsPolarity
 748:Generated_Source\PSoC4/Uart_Mc_UART.c ****         ****************************************************************************//**
 749:Generated_Source\PSoC4/Uart_Mc_UART.c ****         *
 750:Generated_Source\PSoC4/Uart_Mc_UART.c ****         *  Sets active polarity of CTS input signal.
 751:Generated_Source\PSoC4/Uart_Mc_UART.c ****         *  Only available for PSoC 4100 BLE / PSoC 4200 BLE / PSoC 4100M / PSoC 4200M /
 752:Generated_Source\PSoC4/Uart_Mc_UART.c ****         *  PSoC 4200L / PSoC 4000S / PSoC 4100S / PSoC Analog Coprocessor devices.
 753:Generated_Source\PSoC4/Uart_Mc_UART.c ****         *
 754:Generated_Source\PSoC4/Uart_Mc_UART.c ****         * \param
 755:Generated_Source\PSoC4/Uart_Mc_UART.c ****         * polarity: Active polarity of CTS output signal.
 756:Generated_Source\PSoC4/Uart_Mc_UART.c ****         *   - Uart_Mc_UART_CTS_ACTIVE_LOW  - CTS signal is active low.
 757:Generated_Source\PSoC4/Uart_Mc_UART.c ****         *   - Uart_Mc_UART_CTS_ACTIVE_HIGH - CTS signal is active high.
 758:Generated_Source\PSoC4/Uart_Mc_UART.c ****         *
 759:Generated_Source\PSoC4/Uart_Mc_UART.c ****         *******************************************************************************/
 760:Generated_Source\PSoC4/Uart_Mc_UART.c ****         void Uart_Mc_UartSetCtsPolarity(uint32 polarity)
 761:Generated_Source\PSoC4/Uart_Mc_UART.c ****         {
 685              		.loc 1 761 0
 686              		.cfi_startproc
 687              		@ args = 0, pretend = 0, frame = 0
 688              		@ frame_needed = 0, uses_anonymous_args = 0
 689              		@ link register save eliminated.
 690              	.LVL48:
 762:Generated_Source\PSoC4/Uart_Mc_UART.c ****             if (0u != polarity)
 691              		.loc 1 762 0
 692 0000 0028     		cmp	r0, #0
 693 0002 06D0     		beq	.L46
 763:Generated_Source\PSoC4/Uart_Mc_UART.c ****             {
 764:Generated_Source\PSoC4/Uart_Mc_UART.c ****                 Uart_Mc_UART_FLOW_CTRL_REG |= (uint32)  Uart_Mc_UART_FLOW_CTRL_CTS_POLARITY;
 694              		.loc 1 764 0
 695 0004 064A     		ldr	r2, .L48
 696 0006 1368     		ldr	r3, [r2]
 697 0008 8021     		movs	r1, #128
 698 000a 4904     		lsls	r1, r1, #17
 699 000c 0B43     		orrs	r3, r1
 700 000e 1360     		str	r3, [r2]
 701 0010 04E0     		b	.L45
 702              	.L46:
 765:Generated_Source\PSoC4/Uart_Mc_UART.c ****             }
 766:Generated_Source\PSoC4/Uart_Mc_UART.c ****             else
 767:Generated_Source\PSoC4/Uart_Mc_UART.c ****             {
 768:Generated_Source\PSoC4/Uart_Mc_UART.c ****                 Uart_Mc_UART_FLOW_CTRL_REG &= (uint32) ~Uart_Mc_UART_FLOW_CTRL_CTS_POLARITY;
 703              		.loc 1 768 0
 704 0012 034A     		ldr	r2, .L48
 705 0014 1168     		ldr	r1, [r2]
 706 0016 034B     		ldr	r3, .L48+4
 707 0018 0B40     		ands	r3, r1
 708 001a 1360     		str	r3, [r2]
 709              	.L45:
 769:Generated_Source\PSoC4/Uart_Mc_UART.c ****             }
 770:Generated_Source\PSoC4/Uart_Mc_UART.c ****         }
ARM GAS  C:\Users\doita\AppData\Local\Temp\cc3YV8hR.s 			page 27


 710              		.loc 1 770 0
 711              		@ sp needed
 712 001c 7047     		bx	lr
 713              	.L49:
 714 001e C046     		.align	2
 715              	.L48:
 716 0020 50002740 		.word	1076297808
 717 0024 FFFFFFFE 		.word	-16777217
 718              		.cfi_endproc
 719              	.LFE14:
 720              		.size	Uart_Mc_UartSetCtsPolarity, .-Uart_Mc_UartSetCtsPolarity
 721              		.section	.text.Uart_Mc_UartSendBreakBlocking,"ax",%progbits
 722              		.align	2
 723              		.global	Uart_Mc_UartSendBreakBlocking
 724              		.code	16
 725              		.thumb_func
 726              		.type	Uart_Mc_UartSendBreakBlocking, %function
 727              	Uart_Mc_UartSendBreakBlocking:
 728              	.LFB15:
 771:Generated_Source\PSoC4/Uart_Mc_UART.c ****     #endif /* !(Uart_Mc_CY_SCBIP_V0 || Uart_Mc_CY_SCBIP_V1) */
 772:Generated_Source\PSoC4/Uart_Mc_UART.c **** 
 773:Generated_Source\PSoC4/Uart_Mc_UART.c **** 
 774:Generated_Source\PSoC4/Uart_Mc_UART.c ****     /*******************************************************************************
 775:Generated_Source\PSoC4/Uart_Mc_UART.c ****     * Function Name: Uart_Mc_UartSendBreakBlocking
 776:Generated_Source\PSoC4/Uart_Mc_UART.c ****     ****************************************************************************//**
 777:Generated_Source\PSoC4/Uart_Mc_UART.c ****     *
 778:Generated_Source\PSoC4/Uart_Mc_UART.c ****     * Sends a break condition (logic low) of specified width on UART TX line.
 779:Generated_Source\PSoC4/Uart_Mc_UART.c ****     * Blocks until break is completed. Only call this function when UART TX FIFO
 780:Generated_Source\PSoC4/Uart_Mc_UART.c ****     * and shifter are empty.
 781:Generated_Source\PSoC4/Uart_Mc_UART.c ****     *
 782:Generated_Source\PSoC4/Uart_Mc_UART.c ****     * \param breakWidth
 783:Generated_Source\PSoC4/Uart_Mc_UART.c ****     * Width of break condition. Valid range is 4 to 16 bits.
 784:Generated_Source\PSoC4/Uart_Mc_UART.c ****     *
 785:Generated_Source\PSoC4/Uart_Mc_UART.c ****     * \note
 786:Generated_Source\PSoC4/Uart_Mc_UART.c ****     * Before sending break all UART TX interrupt sources are disabled. The state
 787:Generated_Source\PSoC4/Uart_Mc_UART.c ****     * of UART TX interrupt sources is restored before function returns.
 788:Generated_Source\PSoC4/Uart_Mc_UART.c ****     *
 789:Generated_Source\PSoC4/Uart_Mc_UART.c ****     * \sideeffect
 790:Generated_Source\PSoC4/Uart_Mc_UART.c ****     * If this function is called while there is data in the TX FIFO or shifter that
 791:Generated_Source\PSoC4/Uart_Mc_UART.c ****     * data will be shifted out in packets the size of breakWidth.
 792:Generated_Source\PSoC4/Uart_Mc_UART.c ****     *
 793:Generated_Source\PSoC4/Uart_Mc_UART.c ****     *******************************************************************************/
 794:Generated_Source\PSoC4/Uart_Mc_UART.c ****     void Uart_Mc_UartSendBreakBlocking(uint32 breakWidth)
 795:Generated_Source\PSoC4/Uart_Mc_UART.c ****     {
 729              		.loc 1 795 0
 730              		.cfi_startproc
 731              		@ args = 0, pretend = 0, frame = 0
 732              		@ frame_needed = 0, uses_anonymous_args = 0
 733              	.LVL49:
 734 0000 70B5     		push	{r4, r5, r6, lr}
 735              		.cfi_def_cfa_offset 16
 736              		.cfi_offset 4, -16
 737              		.cfi_offset 5, -12
 738              		.cfi_offset 6, -8
 739              		.cfi_offset 14, -4
 740 0002 0300     		movs	r3, r0
 796:Generated_Source\PSoC4/Uart_Mc_UART.c ****         uint32 txCtrlReg;
ARM GAS  C:\Users\doita\AppData\Local\Temp\cc3YV8hR.s 			page 28


 797:Generated_Source\PSoC4/Uart_Mc_UART.c ****         uint32 txIntrReg;
 798:Generated_Source\PSoC4/Uart_Mc_UART.c **** 
 799:Generated_Source\PSoC4/Uart_Mc_UART.c ****         /* Disable all UART TX interrupt source and clear UART TX Done history */
 800:Generated_Source\PSoC4/Uart_Mc_UART.c ****         txIntrReg = Uart_Mc_GetTxInterruptMode();
 741              		.loc 1 800 0
 742 0004 0F4A     		ldr	r2, .L52
 743 0006 1568     		ldr	r5, [r2]
 744              	.LVL50:
 801:Generated_Source\PSoC4/Uart_Mc_UART.c ****         Uart_Mc_SetTxInterruptMode(0u);
 745              		.loc 1 801 0
 746 0008 0024     		movs	r4, #0
 747 000a 1460     		str	r4, [r2]
 802:Generated_Source\PSoC4/Uart_Mc_UART.c ****         Uart_Mc_ClearTxInterruptSource(Uart_Mc_INTR_TX_UART_DONE);
 748              		.loc 1 802 0
 749 000c 8021     		movs	r1, #128
 750 000e 8900     		lsls	r1, r1, #2
 751 0010 0D4A     		ldr	r2, .L52+4
 752 0012 1160     		str	r1, [r2]
 803:Generated_Source\PSoC4/Uart_Mc_UART.c **** 
 804:Generated_Source\PSoC4/Uart_Mc_UART.c ****         /* Store TX CTRL configuration */
 805:Generated_Source\PSoC4/Uart_Mc_UART.c ****         txCtrlReg = Uart_Mc_TX_CTRL_REG;
 753              		.loc 1 805 0
 754 0014 0D4A     		ldr	r2, .L52+8
 755 0016 1668     		ldr	r6, [r2]
 756              	.LVL51:
 806:Generated_Source\PSoC4/Uart_Mc_UART.c **** 
 807:Generated_Source\PSoC4/Uart_Mc_UART.c ****         /* Set break width */
 808:Generated_Source\PSoC4/Uart_Mc_UART.c ****         Uart_Mc_TX_CTRL_REG = (Uart_Mc_TX_CTRL_REG & (uint32) ~Uart_Mc_TX_CTRL_DATA_WIDTH_MASK) |
 757              		.loc 1 808 0
 758 0018 1168     		ldr	r1, [r2]
 759 001a 0F20     		movs	r0, #15
 760              	.LVL52:
 761 001c 8143     		bics	r1, r0
 809:Generated_Source\PSoC4/Uart_Mc_UART.c ****                                         Uart_Mc_GET_TX_CTRL_DATA_WIDTH(breakWidth);
 762              		.loc 1 809 0
 763 001e 013B     		subs	r3, r3, #1
 764              	.LVL53:
 765 0020 1840     		ands	r0, r3
 808:Generated_Source\PSoC4/Uart_Mc_UART.c ****                                         Uart_Mc_GET_TX_CTRL_DATA_WIDTH(breakWidth);
 766              		.loc 1 808 0
 767 0022 0843     		orrs	r0, r1
 768 0024 1060     		str	r0, [r2]
 810:Generated_Source\PSoC4/Uart_Mc_UART.c **** 
 811:Generated_Source\PSoC4/Uart_Mc_UART.c ****         /* Generate break */
 812:Generated_Source\PSoC4/Uart_Mc_UART.c ****         Uart_Mc_TX_FIFO_WR_REG = 0u;
 769              		.loc 1 812 0
 770 0026 0A4B     		ldr	r3, .L52+12
 771              	.LVL54:
 772 0028 1C60     		str	r4, [r3]
 773              	.L51:
 813:Generated_Source\PSoC4/Uart_Mc_UART.c **** 
 814:Generated_Source\PSoC4/Uart_Mc_UART.c ****         /* Wait for break completion */
 815:Generated_Source\PSoC4/Uart_Mc_UART.c ****         while (0u == (Uart_Mc_GetTxInterruptSource() & Uart_Mc_INTR_TX_UART_DONE))
 774              		.loc 1 815 0 discriminator 1
 775 002a 074B     		ldr	r3, .L52+4
 776 002c 1B68     		ldr	r3, [r3]
 777 002e 9B05     		lsls	r3, r3, #22
ARM GAS  C:\Users\doita\AppData\Local\Temp\cc3YV8hR.s 			page 29


 778 0030 FBD5     		bpl	.L51
 816:Generated_Source\PSoC4/Uart_Mc_UART.c ****         {
 817:Generated_Source\PSoC4/Uart_Mc_UART.c ****         }
 818:Generated_Source\PSoC4/Uart_Mc_UART.c **** 
 819:Generated_Source\PSoC4/Uart_Mc_UART.c ****         /* Clear all UART TX interrupt sources to  */
 820:Generated_Source\PSoC4/Uart_Mc_UART.c ****         Uart_Mc_ClearTxInterruptSource(Uart_Mc_INTR_TX_ALL);
 779              		.loc 1 820 0
 780 0032 084A     		ldr	r2, .L52+16
 781 0034 044B     		ldr	r3, .L52+4
 782 0036 1A60     		str	r2, [r3]
 821:Generated_Source\PSoC4/Uart_Mc_UART.c **** 
 822:Generated_Source\PSoC4/Uart_Mc_UART.c ****         /* Restore TX interrupt sources and data width */
 823:Generated_Source\PSoC4/Uart_Mc_UART.c ****         Uart_Mc_TX_CTRL_REG = txCtrlReg;
 783              		.loc 1 823 0
 784 0038 044B     		ldr	r3, .L52+8
 785 003a 1E60     		str	r6, [r3]
 824:Generated_Source\PSoC4/Uart_Mc_UART.c ****         Uart_Mc_SetTxInterruptMode(txIntrReg);
 786              		.loc 1 824 0
 787 003c 014B     		ldr	r3, .L52
 788 003e 1D60     		str	r5, [r3]
 825:Generated_Source\PSoC4/Uart_Mc_UART.c ****     }
 789              		.loc 1 825 0
 790              		@ sp needed
 791              	.LVL55:
 792              	.LVL56:
 793 0040 70BD     		pop	{r4, r5, r6, pc}
 794              	.L53:
 795 0042 C046     		.align	2
 796              	.L52:
 797 0044 880F2740 		.word	1076301704
 798 0048 800F2740 		.word	1076301696
 799 004c 00022740 		.word	1076298240
 800 0050 40022740 		.word	1076298304
 801 0054 F3070000 		.word	2035
 802              		.cfi_endproc
 803              	.LFE15:
 804              		.size	Uart_Mc_UartSendBreakBlocking, .-Uart_Mc_UartSendBreakBlocking
 805              		.text
 806              	.Letext0:
 807              		.file 2 "Generated_Source\\PSoC4/cytypes.h"
 808              		.file 3 "Generated_Source\\PSoC4\\Uart_Mc_PVT.h"
 809              		.file 4 "Generated_Source\\PSoC4\\Uart_Mc_SPI_UART_PVT.h"
 810              		.file 5 "Generated_Source\\PSoC4/CyLib.h"
 811              		.file 6 "Generated_Source\\PSoC4\\Uart_Mc_SPI_UART.h"